
FreeRTOS_ATMega2560_CPP.elf:     file format elf32-avr

Sections:
Idx Name          Size      VMA       LMA       File off  Algn
  0 .data         00000120  00800200  000081fa  0000828e  2**0
                  CONTENTS, ALLOC, LOAD, DATA
  1 .text         000081fa  00000000  00000000  00000094  2**1
                  CONTENTS, ALLOC, LOAD, READONLY, CODE
  2 .bss          00001d75  00800320  00800320  000083b0  2**3
                  ALLOC
  3 .comment      0000005c  00000000  00000000  000083ae  2**0
                  CONTENTS, READONLY
  4 .note.gnu.avr.deviceinfo 00000040  00000000  00000000  0000840c  2**2
                  CONTENTS, READONLY
  5 .debug_info   00000bbc  00000000  00000000  0000844c  2**0
                  CONTENTS, READONLY, DEBUGGING
  6 .debug_abbrev 00000b1a  00000000  00000000  00009008  2**0
                  CONTENTS, READONLY, DEBUGGING
  7 .debug_line   0000001a  00000000  00000000  00009b22  2**0
                  CONTENTS, READONLY, DEBUGGING
  8 .debug_str    000003e6  00000000  00000000  00009b3c  2**0
                  CONTENTS, READONLY, DEBUGGING

Disassembly of section .text:

00000000 <__vectors>:
       0:	0c 94 60 09 	jmp	0x12c0	; 0x12c0 <__ctors_end>
       4:	0c 94 91 09 	jmp	0x1322	; 0x1322 <__bad_interrupt>
       8:	0c 94 91 09 	jmp	0x1322	; 0x1322 <__bad_interrupt>
       c:	0c 94 24 26 	jmp	0x4c48	; 0x4c48 <__vector_3>
      10:	0c 94 91 09 	jmp	0x1322	; 0x1322 <__bad_interrupt>
      14:	0c 94 91 09 	jmp	0x1322	; 0x1322 <__bad_interrupt>
      18:	0c 94 91 09 	jmp	0x1322	; 0x1322 <__bad_interrupt>
      1c:	0c 94 91 09 	jmp	0x1322	; 0x1322 <__bad_interrupt>
      20:	0c 94 91 09 	jmp	0x1322	; 0x1322 <__bad_interrupt>
      24:	0c 94 91 09 	jmp	0x1322	; 0x1322 <__bad_interrupt>
      28:	0c 94 91 09 	jmp	0x1322	; 0x1322 <__bad_interrupt>
      2c:	0c 94 91 09 	jmp	0x1322	; 0x1322 <__bad_interrupt>
      30:	0c 94 91 09 	jmp	0x1322	; 0x1322 <__bad_interrupt>
      34:	0c 94 91 09 	jmp	0x1322	; 0x1322 <__bad_interrupt>
      38:	0c 94 91 09 	jmp	0x1322	; 0x1322 <__bad_interrupt>
      3c:	0c 94 91 09 	jmp	0x1322	; 0x1322 <__bad_interrupt>
      40:	0c 94 91 09 	jmp	0x1322	; 0x1322 <__bad_interrupt>
      44:	0c 94 04 2c 	jmp	0x5808	; 0x5808 <__vector_17>
      48:	0c 94 91 09 	jmp	0x1322	; 0x1322 <__bad_interrupt>
      4c:	0c 94 91 09 	jmp	0x1322	; 0x1322 <__bad_interrupt>
      50:	0c 94 91 09 	jmp	0x1322	; 0x1322 <__bad_interrupt>
      54:	0c 94 91 09 	jmp	0x1322	; 0x1322 <__bad_interrupt>
      58:	0c 94 91 09 	jmp	0x1322	; 0x1322 <__bad_interrupt>
      5c:	0c 94 91 09 	jmp	0x1322	; 0x1322 <__bad_interrupt>
      60:	0c 94 91 09 	jmp	0x1322	; 0x1322 <__bad_interrupt>
      64:	0c 94 74 2f 	jmp	0x5ee8	; 0x5ee8 <__vector_25>
      68:	0c 94 b7 2f 	jmp	0x5f6e	; 0x5f6e <__vector_26>
      6c:	0c 94 91 09 	jmp	0x1322	; 0x1322 <__bad_interrupt>
      70:	0c 94 91 09 	jmp	0x1322	; 0x1322 <__bad_interrupt>
      74:	0c 94 91 09 	jmp	0x1322	; 0x1322 <__bad_interrupt>
      78:	0c 94 91 09 	jmp	0x1322	; 0x1322 <__bad_interrupt>
      7c:	0c 94 91 09 	jmp	0x1322	; 0x1322 <__bad_interrupt>
      80:	0c 94 91 09 	jmp	0x1322	; 0x1322 <__bad_interrupt>
      84:	0c 94 91 09 	jmp	0x1322	; 0x1322 <__bad_interrupt>
      88:	0c 94 91 09 	jmp	0x1322	; 0x1322 <__bad_interrupt>
      8c:	0c 94 91 09 	jmp	0x1322	; 0x1322 <__bad_interrupt>
      90:	0c 94 91 09 	jmp	0x1322	; 0x1322 <__bad_interrupt>
      94:	0c 94 91 09 	jmp	0x1322	; 0x1322 <__bad_interrupt>
      98:	0c 94 91 09 	jmp	0x1322	; 0x1322 <__bad_interrupt>
      9c:	0c 94 91 09 	jmp	0x1322	; 0x1322 <__bad_interrupt>
      a0:	0c 94 91 09 	jmp	0x1322	; 0x1322 <__bad_interrupt>
      a4:	0c 94 91 09 	jmp	0x1322	; 0x1322 <__bad_interrupt>
      a8:	0c 94 91 09 	jmp	0x1322	; 0x1322 <__bad_interrupt>
      ac:	0c 94 91 09 	jmp	0x1322	; 0x1322 <__bad_interrupt>
      b0:	0c 94 91 09 	jmp	0x1322	; 0x1322 <__bad_interrupt>
      b4:	0c 94 91 09 	jmp	0x1322	; 0x1322 <__bad_interrupt>
      b8:	0c 94 91 09 	jmp	0x1322	; 0x1322 <__bad_interrupt>
      bc:	0c 94 91 09 	jmp	0x1322	; 0x1322 <__bad_interrupt>
      c0:	0c 94 91 09 	jmp	0x1322	; 0x1322 <__bad_interrupt>
      c4:	0c 94 91 09 	jmp	0x1322	; 0x1322 <__bad_interrupt>
      c8:	0c 94 91 09 	jmp	0x1322	; 0x1322 <__bad_interrupt>
      cc:	0c 94 91 09 	jmp	0x1322	; 0x1322 <__bad_interrupt>
      d0:	0c 94 91 09 	jmp	0x1322	; 0x1322 <__bad_interrupt>
      d4:	0c 94 91 09 	jmp	0x1322	; 0x1322 <__bad_interrupt>
      d8:	0c 94 91 09 	jmp	0x1322	; 0x1322 <__bad_interrupt>
      dc:	0c 94 91 09 	jmp	0x1322	; 0x1322 <__bad_interrupt>
      e0:	0c 94 91 09 	jmp	0x1322	; 0x1322 <__bad_interrupt>
      e4:	0e 1f       	adc	r16, r30
      e6:	7e 20       	and	r7, r14
      e8:	8a 20       	and	r8, r10
      ea:	e7 20       	and	r14, r7
      ec:	e9 20       	and	r14, r9
      ee:	00 21       	and	r16, r0
      f0:	11 21       	and	r17, r1
      f2:	70 28       	or	r7, r0
      f4:	e5 27       	eor	r30, r21
      f6:	74 28       	or	r7, r4
      f8:	e8 27       	eor	r30, r24
      fa:	eb 27       	eor	r30, r27
      fc:	ef 27       	eor	r30, r31
      fe:	f2 27       	eor	r31, r18
     100:	f5 27       	eor	r31, r21
     102:	6e 28       	or	r6, r14
     104:	6e 28       	or	r6, r14
     106:	f8 27       	eor	r31, r24
     108:	fb 27       	eor	r31, r27
     10a:	fe 27       	eor	r31, r30
     10c:	01 28       	or	r0, r1
     10e:	04 28       	or	r0, r4
     110:	07 28       	or	r0, r7
     112:	78 28       	or	r7, r8
     114:	17 28       	or	r1, r7
     116:	1a 28       	or	r1, r10
     118:	6e 28       	or	r6, r14
     11a:	1e 28       	or	r1, r14
     11c:	22 28       	or	r2, r2
     11e:	25 28       	or	r2, r5
     120:	28 28       	or	r2, r8
     122:	2b 28       	or	r2, r11
     124:	6e 28       	or	r6, r14
     126:	5b 28       	or	r5, r11
     128:	2e 28       	or	r2, r14
     12a:	31 28       	or	r3, r1
     12c:	34 28       	or	r3, r4
     12e:	37 28       	or	r3, r7
     130:	3a 28       	or	r3, r10
     132:	7c 28       	or	r7, r12
     134:	4a 28       	or	r4, r10
     136:	4d 28       	or	r4, r13
     138:	51 28       	or	r5, r1
     13a:	54 28       	or	r5, r4
     13c:	6e 28       	or	r6, r14
     13e:	58 28       	or	r5, r8
     140:	5b 28       	or	r5, r11
     142:	5f 28       	or	r5, r15
     144:	63 28       	or	r6, r3
     146:	67 28       	or	r6, r7
     148:	6b 28       	or	r6, r11
     14a:	bc 39       	cpi	r27, 0x9C	; 156
     14c:	bc 39       	cpi	r27, 0x9C	; 156
     14e:	bc 39       	cpi	r27, 0x9C	; 156
     150:	f8 39       	cpi	r31, 0x98	; 152
     152:	e4 39       	cpi	r30, 0x94	; 148
     154:	f2 39       	cpi	r31, 0x92	; 146
     156:	bc 39       	cpi	r27, 0x9C	; 156
     158:	bc 39       	cpi	r27, 0x9C	; 156
     15a:	f8 39       	cpi	r31, 0x98	; 152
     15c:	e4 39       	cpi	r30, 0x94	; 148

0000015e <__trampolines_end>:
     15e:	71 75       	andi	r23, 0x51	; 81
     160:	65 75       	andi	r22, 0x55	; 85
     162:	65 20       	and	r6, r5
     164:	66 61       	ori	r22, 0x16	; 22
     166:	69 6c       	ori	r22, 0xC9	; 201
	...

00000169 <_ZZ9CanRxFuncE3__c_1>:
     169:	71 75 65 75 65 20 66 61 69 6c 00                    queue fail.

00000174 <_ZZ9CanRxFuncE3__c_0>:
     174:	43 41 4e 20 52 65 63 20 3d 20 25 64 00              CAN Rec = %d.

00000181 <_ZZ9CanRxFuncE3__c>:
     181:	25 73 20 25 64 0a 00                                %s %d..

00000188 <_ZZ8can_sendE3__c>:
     188:	63 61 6e 20 74 78 20 65 72 72 6f 72 00              can tx error.

00000195 <__c.3147>:
     195:	46 52 45 45 3a 20 25 70 00                          FREE: %p.

0000019e <__c.3145>:
     19e:	46 52 45 45 3a 20 42 75 66 66 65 72 20 25 70 20     FREE: Buffer %p 
     1ae:	69 6e 20 75 73 65 20 62 79 20 25 75 20 75 73 65     in use by %u use
     1be:	72 73 00                                            rs.

000001c1 <__c.3143>:
     1c1:	46 52 45 45 3a 20 42 75 66 66 65 72 20 61 6c 72     FREE: Buffer alr
     1d1:	65 61 64 79 20 66 72 65 65 20 25 70 00              eady free %p.

000001de <__c.3141>:
     1de:	46 52 45 45 3a 20 49 6e 76 61 6c 69 64 20 43 53     FREE: Invalid CS
     1ee:	50 20 62 75 66 66 65 72 20 70 6f 69 6e 74 65 72     P buffer pointer
     1fe:	20 25 70 00                                          %p.

00000202 <__c.3136>:
     202:	41 74 74 65 6d 70 74 20 74 6f 20 66 72 65 65 20     Attempt to free 
     212:	6e 75 6c 6c 20 70 6f 69 6e 74 65 72 00              null pointer.

0000021f <__c.3126>:
     21f:	43 6f 72 72 75 70 74 20 43 53 50 20 62 75 66 66     Corrupt CSP buff
     22f:	65 72 00                                            er.

00000232 <__c.3124>:
     232:	47 45 54 3a 20 25 70 20 25 70 00                    GET: %p %p.

0000023d <__c.3122>:
     23d:	4f 75 74 20 6f 66 20 62 75 66 66 65 72 73 00        Out of buffers.

0000024c <__c.3120>:
     24c:	41 74 74 65 6d 70 74 20 74 6f 20 61 6c 6c 6f 63     Attempt to alloc
     25c:	61 74 65 20 74 6f 6f 20 6c 61 72 67 65 20 62 6c     ate too large bl
     26c:	6f 63 6b 20 25 75 00                                ock %u.

00000273 <__c.3325>:
     273:	5b 25 30 32 75 20 25 70 5d 20 53 3a 25 75 2c 20     [%02u %p] S:%u, 
     283:	25 75 20 2d 3e 20 25 75 2c 20 25 75 20 2d 3e 20     %u -> %u, %u -> 
     293:	25 75 2c 20 73 6f 63 6b 3a 20 25 70 0a 00           %u, sock: %p..

000002a1 <__c.3298>:
     2a1:	41 74 74 65 6d 70 74 20 74 6f 20 63 72 65 61 74     Attempt to creat
     2b1:	65 20 58 54 45 41 20 65 6e 63 72 79 70 74 65 64     e XTEA encrypted
     2c1:	20 63 6f 6e 6e 65 63 74 69 6f 6e 2c 20 62 75 74      connection, but
     2d1:	20 43 53 50 20 77 61 73 20 63 6f 6d 70 69 6c 65      CSP was compile
     2e1:	64 20 77 69 74 68 6f 75 74 20 58 54 45 41 20 73     d without XTEA s
     2f1:	75 70 70 6f 72 74 00                                upport.

000002f8 <__c.3296>:
     2f8:	41 74 74 65 6d 70 74 20 74 6f 20 63 72 65 61 74     Attempt to creat
     308:	65 20 48 4d 41 43 20 61 75 74 68 65 6e 74 69 63     e HMAC authentic
     318:	61 74 65 64 20 63 6f 6e 6e 65 63 74 69 6f 6e 2c     ated connection,
     328:	20 62 75 74 20 43 53 50 20 77 61 73 20 63 6f 6d      but CSP was com
     338:	70 69 6c 65 64 20 77 69 74 68 6f 75 74 20 48 4d     piled without HM
     348:	41 43 20 73 75 70 70 6f 72 74 00                    AC support.

00000353 <__c.3294>:
     353:	41 74 74 65 6d 70 74 20 74 6f 20 63 72 65 61 74     Attempt to creat
     363:	65 20 52 44 50 20 63 6f 6e 6e 65 63 74 69 6f 6e     e RDP connection
     373:	2c 20 62 75 74 20 43 53 50 20 77 61 73 20 63 6f     , but CSP was co
     383:	6d 70 69 6c 65 64 20 77 69 74 68 6f 75 74 20 52     mpiled without R
     393:	44 50 20 73 75 70 70 6f 72 74 00                    DP support.

0000039e <__c.3283>:
     39e:	46 61 69 6c 65 64 20 74 6f 20 6c 6f 63 6b 20 63     Failed to lock c
     3ae:	6f 6e 6e 20 61 72 72 61 79 00                       onn array.

000003b8 <__c.3281>:
     3b8:	43 6f 6e 6e 20 61 6c 72 65 61 64 79 20 63 6c 6f     Conn already clo
     3c8:	73 65 64 00                                         sed.

000003cc <__c.3279>:
     3cc:	4e 55 4c 4c 20 50 6f 69 6e 74 65 72 20 67 69 76     NULL Pointer giv
     3dc:	65 6e 20 74 6f 20 63 73 70 5f 63 6c 6f 73 65 00     en to csp_close.

000003ec <__c.3269>:
     3ec:	4e 6f 20 6d 6f 72 65 20 66 72 65 65 20 63 6f 6e     No more free con
     3fc:	6e 65 63 74 69 6f 6e 73 00                          nections.

00000405 <__c.3264>:
     405:	46 61 69 6c 65 64 20 74 6f 20 6c 6f 63 6b 20 63     Failed to lock c
     415:	6f 6e 6e 20 61 72 72 61 79 00                       onn array.

0000041f <__c.3235>:
     41f:	4e 6f 20 6d 6f 72 65 20 6d 65 6d 6f 72 79 20 66     No more memory f
     42f:	6f 72 20 63 6f 6e 6e 20 73 65 6d 61 70 68 6f 72     or conn semaphor
     43f:	65 00                                               e.

00000441 <__c.3230>:
     441:	46 61 69 6c 65 64 20 74 6f 20 63 72 65 61 74 65     Failed to create
     451:	20 63 6f 6e 6e 65 63 74 69 6f 6e 20 6c 6f 63 6b      connection lock
	...

00000462 <__c.3223>:
     462:	4e 6f 20 6d 6f 72 65 20 6d 65 6d 6f 72 79 20 66     No more memory f
     472:	6f 72 20 73 70 6f 72 74 20 73 65 6d 61 70 68 6f     or sport semapho
     482:	72 65 00                                            re.

00000485 <__c.3218>:
     485:	52 58 20 71 75 65 75 65 20 25 70 20 66 75 6c 6c     RX queue %p full
     495:	20 77 69 74 68 20 25 75 20 69 74 65 6d 73 00         with %u items.

000004a4 <crc_tab>:
     4a4:	00 00 00 00 03 83 6b f2 f7 70 3b e1 f4 f3 50 13     ......k..p;...P.
     4b4:	1f 97 9a c7 1c 14 f1 35 e8 e7 a1 26 eb 64 ca d4     .......5...&.d..
     4c4:	cf 58 d9 8a cc db b2 78 38 28 e2 6b 3b ab 89 99     .X.....x8(.k;...
     4d4:	d0 cf 43 4d d3 4c 28 bf 27 bf 78 ac 24 3c 13 5e     ..CM.L(.'.x.$<.^
     4e4:	6f c7 5e 10 6c 44 35 e2 98 b7 65 f1 9b 34 0e 03     o.^.lD5...e..4..
     4f4:	70 50 c4 d7 73 d3 af 25 87 20 ff 36 84 a3 94 c4     pP..s..%. .6....
     504:	a0 9f 87 9a a3 1c ec 68 57 ef bc 7b 54 6c d7 89     .......hW..{Tl..
     514:	bf 08 1d 5d bc 8b 76 af 48 78 26 bc 4b fb 4d 4e     ...]..v.Hx&.K.MN
     524:	de 8e bd 20 dd 0d d6 d2 29 fe 86 c1 2a 7d ed 33     ... ....)...*}.3
     534:	c1 19 27 e7 c2 9a 4c 15 36 69 1c 06 35 ea 77 f4     ..'...L.6i..5.w.
     544:	11 d6 64 aa 12 55 0f 58 e6 a6 5f 4b e5 25 34 b9     ..d..U.X.._K.%4.
     554:	0e 41 fe 6d 0d c2 95 9f f9 31 c5 8c fa b2 ae 7e     .A.m.....1.....~
     564:	b1 49 e3 30 b2 ca 88 c2 46 39 d8 d1 45 ba b3 23     .I.0....F9..E..#
     574:	ae de 79 f7 ad 5d 12 05 59 ae 42 16 5a 2d 29 e4     ..y..]..Y.B.Z-).
     584:	7e 11 3a ba 7d 92 51 48 89 61 01 5b 8a e2 6a a9     ~.:.}.QH.a.[..j.
     594:	61 86 a0 7d 62 05 cb 8f 96 f6 9b 9c 95 75 f0 6e     a..}b........u.n
     5a4:	bc 1d 7b 41 bf 9e 10 b3 4b 6d 40 a0 48 ee 2b 52     ..{A....Km@.H.+R
     5b4:	a3 8a e1 86 a0 09 8a 74 54 fa da 67 57 79 b1 95     .......tT..gWy..
     5c4:	73 45 a2 cb 70 c6 c9 39 84 35 99 2a 87 b6 f2 d8     sE..p..9.5.*....
     5d4:	6c d2 38 0c 6f 51 53 fe 9b a2 03 ed 98 21 68 1f     l.8.oQS......!h.
     5e4:	d3 da 25 51 d0 59 4e a3 24 aa 1e b0 27 29 75 42     ..%Q.YN.$...')uB
     5f4:	cc 4d bf 96 cf ce d4 64 3b 3d 84 77 38 be ef 85     .M.....d;=.w8...
     604:	1c 82 fc db 1f 01 97 29 eb f2 c7 3a e8 71 ac c8     .......)...:.q..
     614:	03 15 66 1c 00 96 0d ee f4 65 5d fd f7 e6 36 0f     ..f......e]...6.
     624:	62 93 c6 61 61 10 ad 93 95 e3 fd 80 96 60 96 72     b..aa........`.r
     634:	7d 04 5c a6 7e 87 37 54 8a 74 67 47 89 f7 0c b5     }.\.~.7T.tgG....
     644:	ad cb 1f eb ae 48 74 19 5a bb 24 0a 59 38 4f f8     .....Ht.Z.$.Y8O.
     654:	b2 5c 85 2c b1 df ee de 45 2c be cd 46 af d5 3f     .\.,....E,..F..?
     664:	0d 54 98 71 0e d7 f3 83 fa 24 a3 90 f9 a7 c8 62     .T.q.....$.....b
     674:	12 c3 02 b6 11 40 69 44 e5 b3 39 57 e6 30 52 a5     .....@iD..9W.0R.
     684:	c2 0c 41 fb c1 8f 2a 09 35 7c 7a 1a 36 ff 11 e8     ..A...*.5|z.6...
     694:	dd 9b db 3c de 18 b0 ce 2a eb e0 dd 29 68 8b 2f     ...<....*...)h./
     6a4:	78 3b f6 82 7b b8 9d 70 8f 4b cd 63 8c c8 a6 91     x;..{..p.K.c....
     6b4:	67 ac 6c 45 64 2f 07 b7 90 dc 57 a4 93 5f 3c 56     g.lEd/....W.._<V
     6c4:	b7 63 2f 08 b4 e0 44 fa 40 13 14 e9 43 90 7f 1b     .c/...D.@...C...
     6d4:	a8 f4 b5 cf ab 77 de 3d 5f 84 8e 2e 5c 07 e5 dc     .....w.=_...\...
     6e4:	17 fc a8 92 14 7f c3 60 e0 8c 93 73 e3 0f f8 81     .......`...s....
     6f4:	08 6b 32 55 0b e8 59 a7 ff 1b 09 b4 fc 98 62 46     .k2U..Y.......bF
     704:	d8 a4 71 18 db 27 1a ea 2f d4 4a f9 2c 57 21 0b     ..q..'../.J.,W!.
     714:	c7 33 eb df c4 b0 80 2d 30 43 d0 3e 33 c0 bb cc     .3.....-0C.>3...
     724:	a6 b5 4b a2 a5 36 20 50 51 c5 70 43 52 46 1b b1     ..K..6 PQ.pCRF..
     734:	b9 22 d1 65 ba a1 ba 97 4e 52 ea 84 4d d1 81 76     .".e....NR..M..v
     744:	69 ed 92 28 6a 6e f9 da 9e 9d a9 c9 9d 1e c2 3b     i..(jn.........;
     754:	76 7a 08 ef 75 f9 63 1d 81 0a 33 0e 82 89 58 fc     vz..u.c...3...X.
     764:	c9 72 15 b2 ca f1 7e 40 3e 02 2e 53 3d 81 45 a1     .r....~@>..S=.E.
     774:	d6 e5 8f 75 d5 66 e4 87 21 95 b4 94 22 16 df 66     ...u.f..!..."..f
     784:	06 2a cc 38 05 a9 a7 ca f1 5a f7 d9 f2 d9 9c 2b     .*.8.....Z.....+
     794:	19 bd 56 ff 1a 3e 3d 0d ee cd 6d 1e ed 4e 06 ec     ..V..>=...m..N..
     7a4:	c4 26 8d c3 c7 a5 e6 31 33 56 b6 22 30 d5 dd d0     .&.....13V."0...
     7b4:	db b1 17 04 d8 32 7c f6 2c c1 2c e5 2f 42 47 17     .....2|.,.,./BG.
     7c4:	0b 7e 54 49 08 fd 3f bb fc 0e 6f a8 ff 8d 04 5a     .~TI..?...o....Z
     7d4:	14 e9 ce 8e 17 6a a5 7c e3 99 f5 6f e0 1a 9e 9d     .....j.|...o....
     7e4:	ab e1 d3 d3 a8 62 b8 21 5c 91 e8 32 5f 12 83 c0     .....b.!\..2_...
     7f4:	b4 76 49 14 b7 f5 22 e6 43 06 72 f5 40 85 19 07     .vI...".C.r.@...
     804:	64 b9 0a 59 67 3a 61 ab 93 c9 31 b8 90 4a 5a 4a     d..Yg:a...1..JZJ
     814:	7b 2e 90 9e 78 ad fb 6c 8c 5e ab 7f 8f dd c0 8d     {...x..l.^......
     824:	1a a8 30 e3 19 2b 5b 11 ed d8 0b 02 ee 5b 60 f0     ..0..+[......[`.
     834:	05 3f aa 24 06 bc c1 d6 f2 4f 91 c5 f1 cc fa 37     .?.$.....O.....7
     844:	d5 f0 e9 69 d6 73 82 9b 22 80 d2 88 21 03 b9 7a     ...i.s.."...!..z
     854:	ca 67 73 ae c9 e4 18 5c 3d 17 48 4f 3e 94 23 bd     .gs....\=.HO>.#.
     864:	75 6f 6e f3 76 ec 05 01 82 1f 55 12 81 9c 3e e0     uon.v.....U...>.
     874:	6a f8 f4 34 69 7b 9f c6 9d 88 cf d5 9e 0b a4 27     j..4i{.........'
     884:	ba 37 b7 79 b9 b4 dc 8b 4d 47 8c 98 4e c4 e7 6a     .7.y....MG..N..j
     894:	a5 a0 2d be a6 23 46 4c 52 d0 16 5f 51 53 7d ad     ..-..#FLR.._QS}.

000008a4 <__c.2568>:
     8a4:	0d 0a 00                                            ...

000008a7 <__c.2542>:
     8a7:	25 2e 31 66 25 63 00                                %.1f%c.

000008ae <__c.2550>:
     8ae:	25 2d 35 73 20 20 20 74 78 3a 20 25 30 35 6c 75     %-5s   tx: %05lu
     8be:	20 72 78 3a 20 25 30 35 6c 75 20 74 78 65 3a 20      rx: %05lu txe: 
     8ce:	25 30 35 6c 75 20 72 78 65 3a 20 25 30 35 6c 75     %05lu rxe: %05lu
     8de:	0d 0a 20 20 20 20 20 20 20 20 64 72 6f 70 3a 20     ..        drop: 
     8ee:	25 30 35 6c 75 20 61 75 74 68 65 72 72 3a 20 25     %05lu autherr: %
     8fe:	30 35 6c 75 20 66 72 61 6d 65 3a 20 25 30 35 6c     05lu frame: %05l
     90e:	75 0d 0a 20 20 20 20 20 20 20 20 74 78 62 3a 20     u..        txb: 
     91e:	25 6c 75 20 28 25 73 29 20 72 78 62 3a 20 25 6c     %lu (%s) rxb: %l
     92e:	75 20 28 25 73 29 0d 0a 0d 0a 00                    u (%s).....

00000939 <__c.3322>:
     939:	46 61 69 6c 65 64 20 74 6f 20 73 65 6e 64 20 43     Failed to send C
     949:	41 4e 20 66 72 61 6d 65 20 69 6e 20 54 78 20 63     AN frame in Tx c
     959:	61 6c 6c 62 61 63 6b 00                             allback.

00000961 <__c.3319>:
     961:	46 61 69 6c 65 64 20 74 6f 20 73 65 6e 64 20 43     Failed to send C
     971:	41 4e 20 66 72 61 6d 65 20 69 6e 20 63 73 70 5f     AN frame in csp_
     981:	74 78 5f 63 61 6e 00                                tx_can.

00000988 <__c.3314>:
     988:	46 61 69 6c 65 64 20 74 6f 20 67 65 74 20 43 46     Failed to get CF
     998:	50 20 69 64 65 6e 74 69 66 69 63 61 74 69 6f 6e     P identification
     9a8:	20 6e 75 6d 62 65 72 00                              number.

000009b0 <__c.3199>:
     9b0:	43 6f 75 6c 64 20 6e 6f 74 20 69 6e 69 74 69 61     Could not initia
     9c0:	6c 69 7a 65 20 43 46 50 20 69 64 20 73 65 6d 61     lize CFP id sema
     9d0:	70 68 6f 72 65 00                                   phore.

000009d6 <__c.3284>:
     9d6:	52 58 20 62 75 66 66 65 72 20 6f 76 65 72 66 6c     RX buffer overfl
     9e6:	6f 77 00                                            ow.

000009e9 <__c.3282>:
     9e9:	43 41 4e 20 66 72 61 6d 65 20 6c 6f 73 74 20 69     CAN frame lost i
     9f9:	6e 20 43 53 50 20 70 61 63 6b 65 74 00              n CSP packet.

00000a06 <__c.3279>:
     a06:	46 61 69 6c 65 64 20 74 6f 20 67 65 74 20 62 75     Failed to get bu
     a16:	66 66 65 72 20 66 6f 72 20 43 53 50 5f 42 45 47     ffer for CSP_BEG
     a26:	49 4e 20 70 61 63 6b 65 74 00                       IN packet.

00000a30 <__c.3277>:
     a30:	49 6e 63 6f 6d 70 6c 65 74 65 20 66 72 61 6d 65     Incomplete frame
	...

00000a41 <__c.3274>:
     a41:	53 68 6f 72 74 20 42 45 47 49 4e 20 66 72 61 6d     Short BEGIN fram
     a51:	65 20 72 65 63 65 69 76 65 64 00                    e received.

00000a5c <__c.3271>:
     a5c:	4f 75 74 20 6f 66 20 6f 72 64 65 72 20 4d 4f 52     Out of order MOR
     a6c:	45 20 66 72 61 6d 65 20 72 65 63 65 69 76 65 64     E frame received
	...

00000a7d <__c.3269>:
     a7d:	4e 6f 20 61 76 61 69 6c 61 62 6c 65 20 70 61 63     No available pac
     a8d:	6b 65 74 20 62 75 66 66 65 72 20 66 6f 72 20 43     ket buffer for C
     a9d:	41 4e 00                                            AN.

00000aa0 <__c.3258>:
     aa0:	43 41 4e 20 42 75 66 66 65 72 20 65 6c 65 6d 65     CAN Buffer eleme
     ab0:	6e 74 20 74 69 6d 65 64 20 6f 75 74 00              nt timed out.

00000abd <__c.3294>:
     abd:	25 73 20 25 64 0a 00                                %s %d..

00000ac4 <__c.3344>:
     ac4:	46 61 69 6c 65 64 20 74 6f 20 69 6e 69 74 69 61     Failed to initia
     ad4:	6c 69 7a 65 20 43 41 4e 20 64 72 69 76 65 72 00     lize CAN driver.

00000ae4 <__c.3341>:
     ae4:	46 61 69 6c 65 64 20 74 6f 20 69 6e 69 74 20 43     Failed to init C
     af4:	41 4e 20 52 58 20 74 61 73 6b 00                    AN RX task.

00000aff <__c.3339>:
     aff:	46 61 69 6c 65 64 20 74 6f 20 63 72 65 61 74 65     Failed to create
     b0f:	20 43 41 4e 20 52 58 20 71 75 65 75 65 00            CAN RX queue.

00000b1d <__c.3337>:
     b1d:	55 6e 6b 6e 6f 77 6e 20 43 41 4e 20 6d 6f 64 65     Unknown CAN mode
	...

00000b2e <__c.3335>:
     b2e:	46 61 69 6c 65 64 20 74 6f 20 69 6e 69 74 69 61     Failed to initia
     b3e:	6c 69 7a 65 20 43 41 4e 20 69 64 65 6e 74 69 66     lize CAN identif
     b4e:	69 63 61 74 69 6f 6e 20 6e 75 6d 62 65 72 00        ication number.

00000b5d <__c.3383>:
     b5d:	49 6e 76 61 6c 69 64 20 63 61 6c 6c 20 74 6f 20     Invalid call to 
     b6d:	63 73 70 5f 73 65 6e 64 00                          csp_send.

00000b76 <__c.3373>:
     b76:	41 74 74 65 6d 70 74 20 74 6f 20 73 65 6e 64 20     Attempt to send 
     b86:	58 54 45 41 20 65 6e 63 72 79 70 74 65 64 20 70     XTEA encrypted p
     b96:	61 63 6b 65 74 2c 20 62 75 74 20 43 53 50 20 77     acket, but CSP w
     ba6:	61 73 20 63 6f 6d 70 69 6c 65 64 20 77 69 74 68     as compiled with
     bb6:	6f 75 74 20 58 54 45 41 20 73 75 70 70 6f 72 74     out XTEA support
     bc6:	2e 20 44 69 73 63 61 72 64 69 6e 67 20 70 61 63     . Discarding pac
     bd6:	6b 65 74 00                                         ket.

00000bda <__c.3371>:
     bda:	43 52 43 33 32 20 61 70 70 65 6e 64 20 66 61 69     CRC32 append fai
     bea:	6c 65 64 21 00                                      led!.

00000bef <__c.3368>:
     bef:	41 74 74 65 6d 70 74 20 74 6f 20 73 65 6e 64 20     Attempt to send 
     bff:	70 61 63 6b 65 74 20 77 69 74 68 20 48 4d 41 43     packet with HMAC
     c0f:	2c 20 62 75 74 20 43 53 50 20 77 61 73 20 63 6f     , but CSP was co
     c1f:	6d 70 69 6c 65 64 20 77 69 74 68 6f 75 74 20 48     mpiled without H
     c2f:	4d 41 43 20 73 75 70 70 6f 72 74 2e 20 44 69 73     MAC support. Dis
     c3f:	63 61 72 64 69 6e 67 20 70 61 63 6b 65 74 00        carding packet.

00000c4e <__c.3366>:
     c4e:	4f 55 54 3a 20 53 20 25 75 2c 20 44 20 25 75 2c     OUT: S %u, D %u,
     c5e:	20 44 70 20 25 75 2c 20 53 70 20 25 75 2c 20 50      Dp %u, Sp %u, P
     c6e:	72 20 25 75 2c 20 46 6c 20 30 78 25 30 32 58 2c     r %u, Fl 0x%02X,
     c7e:	20 53 7a 20 25 75 20 56 49 41 3a 20 25 73 00         Sz %u VIA: %s.

00000c8d <__c.3364>:
     c8d:	4e 6f 20 72 6f 75 74 65 20 74 6f 20 68 6f 73 74     No route to host
     c9d:	3a 20 25 23 30 38 78 00                             : %#08x.

00000ca5 <__c.3361>:
     ca5:	63 73 70 5f 73 65 6e 64 5f 64 69 72 65 63 74 20     csp_send_direct 
     cb5:	63 61 6c 6c 65 64 20 77 69 74 68 20 4e 55 4c 4c     called with NULL
     cc5:	20 70 61 63 6b 65 74 00                              packet.

00000ccd <__c.3342>:
     ccd:	49 6e 76 61 6c 69 64 20 73 6f 63 6b 65 74 20 6f     Invalid socket o
     cdd:	70 74 69 6f 6e 00                                   ption.

00000ce3 <__c.3340>:
     ce3:	41 74 74 65 6d 70 74 20 74 6f 20 63 72 65 61 74     Attempt to creat
     cf3:	65 20 73 6f 63 6b 65 74 20 74 68 61 74 20 72 65     e socket that re
     d03:	71 75 69 72 65 73 20 48 4d 41 43 2c 20 62 75 74     quires HMAC, but
     d13:	20 43 53 50 20 77 61 73 20 63 6f 6d 70 69 6c 65      CSP was compile
     d23:	64 20 77 69 74 68 6f 75 74 20 48 4d 41 43 20 73     d without HMAC s
     d33:	75 70 70 6f 72 74 00                                upport.

00000d3a <__c.3338>:
     d3a:	41 74 74 65 6d 70 74 20 74 6f 20 63 72 65 61 74     Attempt to creat
     d4a:	65 20 73 6f 63 6b 65 74 20 74 68 61 74 20 72 65     e socket that re
     d5a:	71 75 69 72 65 73 20 58 54 45 41 2c 20 62 75 74     quires XTEA, but
     d6a:	20 43 53 50 20 77 61 73 20 63 6f 6d 70 69 6c 65      CSP was compile
     d7a:	64 20 77 69 74 68 6f 75 74 20 58 54 45 41 20 73     d without XTEA s
     d8a:	75 70 70 6f 72 74 00                                upport.

00000d91 <__c.3336>:
     d91:	41 74 74 65 6d 70 74 20 74 6f 20 63 72 65 61 74     Attempt to creat
     da1:	65 20 73 6f 63 6b 65 74 20 74 68 61 74 20 72 65     e socket that re
     db1:	71 75 69 72 65 73 20 52 44 50 2c 20 62 75 74 20     quires RDP, but 
     dc1:	43 53 50 20 77 61 73 20 63 6f 6d 70 69 6c 65 64     CSP was compiled
     dd1:	20 77 69 74 68 6f 75 74 20 52 44 50 20 73 75 70      without RDP sup
     de1:	70 6f 72 74 00                                      port.

00000de6 <__c.3191>:
     de6:	42 69 6e 64 69 6e 67 20 73 6f 63 6b 65 74 20 25     Binding socket %
     df6:	70 20 74 6f 20 70 6f 72 74 20 25 75 00              p to port %u.

00000e03 <__c.3189>:
     e03:	50 6f 72 74 20 25 64 20 69 73 20 61 6c 72 65 61     Port %d is alrea
     e13:	64 79 20 69 6e 20 75 73 65 00                       dy in use.

00000e1d <__c.3187>:
     e1d:	4f 6e 6c 79 20 70 6f 72 74 73 20 66 72 6f 6d 20     Only ports from 
     e2d:	30 2d 25 75 20 28 61 6e 64 20 43 53 50 5f 41 4e     0-%u (and CSP_AN
     e3d:	59 20 66 6f 72 20 64 65 66 61 75 6c 74 29 20 61     Y for default) a
     e4d:	72 65 20 61 76 61 69 6c 61 62 6c 65 20 66 6f 72     re available for
     e5d:	20 69 6e 63 6f 6d 69 6e 67 20 70 6f 72 74 73 00      incoming ports.

00000e6d <__c.2385>:
     e6d:	45 52 52 4f 52 3a 20 52 6f 75 74 69 6e 67 20 69     ERROR: Routing i
     e7d:	6e 70 75 74 20 46 49 46 4f 20 69 73 20 46 55 4c     nput FIFO is FUL
     e8d:	4c 2e 20 44 72 6f 70 70 69 6e 67 20 70 61 63 6b     L. Dropping pack
     e9d:	65 74 2e 00                                         et..

00000ea1 <__c.2381>:
     ea1:	63 73 70 5f 6e 65 77 20 70 61 63 6b 65 74 20 63     csp_new packet c
     eb1:	61 6c 6c 65 64 20 77 69 74 68 20 4e 55 4c 4c 20     alled with NULL 
     ec1:	69 6e 74 65 72 66 61 63 65 00                       interface.

00000ecb <__c.2379>:
     ecb:	63 73 70 5f 6e 65 77 20 70 61 63 6b 65 74 20 63     csp_new packet c
     edb:	61 6c 6c 65 64 20 77 69 74 68 20 4e 55 4c 4c 20     alled with NULL 
     eeb:	70 61 63 6b 65 74 00                                packet.

00000ef2 <__c.3123>:
     ef2:	25 73 20 25 64 0a 00                                %s %d..

00000ef9 <__c.3132>:
     ef9:	46 61 69 6c 65 64 20 74 6f 20 73 74 61 72 74 20     Failed to start 
     f09:	72 6f 75 74 65 72 20 74 61 73 6b 00                 router task.

00000f15 <__c.3101>:
     f15:	52 65 63 65 69 76 65 64 20 70 61 63 6b 65 74 20     Received packet 
     f25:	77 69 74 68 6f 75 74 20 43 52 43 33 32 2e 20 41     without CRC32. A
     f35:	63 63 65 70 74 69 6e 67 20 70 61 63 6b 65 74 00     ccepting packet.

00000f45 <__c.3099>:
     f45:	43 52 43 33 32 20 76 65 72 69 66 69 63 61 74 69     CRC32 verificati
     f55:	6f 6e 20 65 72 72 6f 72 21 20 44 69 73 63 61 72     on error! Discar
     f65:	64 69 6e 67 20 70 61 63 6b 65 74 00                 ding packet.

00000f71 <__c.3097>:
     f71:	54 6f 6f 20 73 68 6f 72 74 20 70 61 63 6b 65 74     Too short packet
     f81:	20 66 6f 72 20 43 52 43 33 32 2c 20 25 75 00         for CRC32, %u.

00000f90 <__c.3090>:
     f90:	52 65 63 65 69 76 65 64 20 52 44 50 20 70 61 63     Received RDP pac
     fa0:	6b 65 74 2c 20 62 75 74 20 43 53 50 20 77 61 73     ket, but CSP was
     fb0:	20 63 6f 6d 70 69 6c 65 64 20 77 69 74 68 6f 75      compiled withou
     fc0:	74 20 52 44 50 20 73 75 70 70 6f 72 74 2e 20 44     t RDP support. D
     fd0:	69 73 63 61 72 64 69 6e 67 20 70 61 63 6b 65 74     iscarding packet
	...

00000fe1 <__c.3088>:
     fe1:	52 65 63 65 69 76 65 64 20 70 61 63 6b 65 74 20     Received packet 
     ff1:	77 69 74 68 20 48 4d 41 43 2c 20 62 75 74 20 43     with HMAC, but C
    1001:	53 50 20 77 61 73 20 63 6f 6d 70 69 6c 65 64 20     SP was compiled 
    1011:	77 69 74 68 6f 75 74 20 48 4d 41 43 20 73 75 70     without HMAC sup
    1021:	70 6f 72 74 2e 20 44 69 73 63 61 72 64 69 6e 67     port. Discarding
    1031:	20 70 61 63 6b 65 74 00                              packet.

00001039 <__c.3086>:
    1039:	52 65 63 65 69 76 65 64 20 58 54 45 41 20 65 6e     Received XTEA en
    1049:	63 72 79 70 74 65 64 20 70 61 63 6b 65 74 2c 20     crypted packet, 
    1059:	62 75 74 20 43 53 50 20 77 61 73 20 63 6f 6d 70     but CSP was comp
    1069:	69 6c 65 64 20 77 69 74 68 6f 75 74 20 58 54 45     iled without XTE
    1079:	41 20 73 75 70 70 6f 72 74 2e 20 44 69 73 63 61     A support. Disca
    1089:	72 64 69 6e 67 20 70 61 63 6b 65 74 00              rding packet.

00001096 <__c.3118>:
    1096:	4e 6f 20 6d 6f 72 65 20 63 6f 6e 6e 65 63 74 69     No more connecti
    10a6:	6f 6e 73 20 61 76 61 69 6c 61 62 6c 65 00           ons available.

000010b4 <__c.3115>:
    10b4:	43 6f 6e 6e 2d 6c 65 73 73 20 73 6f 63 6b 65 74     Conn-less socket
    10c4:	20 71 75 65 75 65 20 66 75 6c 6c 00                  queue full.

000010d0 <__c.3113>:
    10d0:	52 6f 75 74 65 72 20 66 61 69 6c 65 64 20 74 6f     Router failed to
    10e0:	20 73 65 6e 64 00                                    send.

000010e6 <__c.3110>:
    10e6:	49 4e 50 3a 20 53 20 25 75 2c 20 44 20 25 75 2c     INP: S %u, D %u,
    10f6:	20 44 70 20 25 75 2c 20 53 70 20 25 75 2c 20 50      Dp %u, Sp %u, P
    1106:	72 20 25 75 2c 20 46 6c 20 30 78 25 30 32 58 2c     r %u, Fl 0x%02X,
    1116:	20 53 7a 20 25 75 20 56 49 41 3a 20 25 73 00         Sz %u VIA: %s.

00001125 <__c.2564>:
    1125:	20 20 20 2a 20 20 25 2d 39 73 20 20 25 75 0d 0a        *  %-9s  %u..
	...

00001136 <__c.2559>:
    1136:	25 34 75 20 20 25 2d 39 73 20 20 25 75 0d 0a 00     %4u  %-9s  %u...

00001146 <__c.2557>:
    1146:	4e 6f 64 65 20 20 49 6e 74 65 72 66 61 63 65 20     Node  Interface 
    1156:	20 41 64 64 72 65 73 73 0d 0a 00                     Address...

00001161 <__c.2551>:
    1161:	46 61 69 6c 65 64 20 74 6f 20 73 65 74 20 72 6f     Failed to set ro
    1171:	75 74 65 3a 20 69 6e 76 61 6c 69 64 20 6e 6f 64     ute: invalid nod
    1181:	65 20 69 64 20 25 75 00                             e id %u.

00001189 <__c.3116>:
    1189:	50 6f 73 74 3a 20 25 70 00                          Post: %p.

00001192 <__c.3111>:
    1192:	57 61 69 74 3a 20 25 70 00                          Wait: %p.

0000119b <__c.3138>:
    119b:	53 45 52 56 49 43 45 3a 20 50 69 6e 67 20 72 65     SERVICE: Ping re
    11ab:	63 65 69 76 65 64 00                                ceived.

000011b2 <__c.2849>:
    11b2:	1b 5b 25 75 3b 25 75 6d 00                          .[%u;%um.

000011bb <__c.2823>:
    11bb:	46 61 69 6c 65 64 20 74 6f 20 73 68 75 74 64 6f     Failed to shutdo
    11cb:	77 6e 00                                            wn.

000011ce <__c.2813>:
    11ce:	46 61 69 6c 65 64 20 74 6f 20 72 65 62 6f 6f 74     Failed to reboot
	...

000011df <__c.2835>:
    11df:	57 61 72 6e 69 6e 67 20 73 6f 63 6b 65 74 20 63     Warning socket c
    11ef:	6f 6e 6e 65 63 74 69 6f 6e 20 71 75 65 75 65 20     onnection queue 
    11ff:	66 75 6c 6c 00                                      full.

00001204 <__c.2833>:
    1204:	43 6f 6e 6e 65 63 74 69 6f 6e 20 62 75 66 66 65     Connection buffe
    1214:	72 20 71 75 65 75 65 20 66 75 6c 6c 21 00           r queue full!.

00001222 <_ZZ16__vector_defaultE3__c>:
    1222:	55 6e 65 78 20 56 65 63 74 6f 72 00                 Unex Vector.

0000122e <_ZZ11task_clientPvE3__c_2>:
    122e:	50 69 6e 67 20 72 65 73 75 6c 74 20 25 64 20 5b     Ping result %d [
    123e:	6d 73 5d 0d 0a 00                                   ms]...

00001244 <_ZZ11task_clientPvE3__c_1>:
    1244:	50 69 6e 67 20 46 61 69 6c 65 64 0a 00              Ping Failed..

00001251 <_ZZ11task_clientPvE3__c_0>:
    1251:	53 50 20 3d 20 30 78 25 30 34 78 0a 00              SP = 0x%04x..

0000125e <_ZZ11task_clientPvE3__c>:
    125e:	25 73 20 25 64 0a 00                                %s %d..

00001265 <_ZZ11task_serverPvE3__c_0>:
    1265:	50 61 63 6b 65 74 20 72 65 63 65 69 76 65 64 20     Packet received 
    1275:	6f 6e 20 4d 59 5f 50 4f 52 54 3a 20 25 73 0d 0a     on MY_PORT: %s..
	...

00001286 <_ZZ11task_serverPvE3__c>:
    1286:	25 73 20 25 64 0a 00                                %s %d..

0000128d <_ZZ4mainE3__c_2>:
    128d:	4c 45 44 20 69 6e 69 74 00                          LED init.

00001296 <_ZZ4mainE3__c_1>:
    1296:	49 6e 74 65 72 66 61 63 65 73 0d 0a 00              Interfaces...

000012a3 <_ZZ4mainE3__c_0>:
    12a3:	52 6f 75 74 65 20 74 61 62 6c 65 0d 0a 00           Route table...

000012b1 <_ZZ4mainE3__c>:
    12b1:	43 6f 6e 6e 20 74 61 62 6c 65 0d 0a 00              Conn table...

000012be <__ctors_start>:
    12be:	d5 0b       	sbc	r29, r21

000012c0 <__ctors_end>:
    12c0:	11 24       	eor	r1, r1
    12c2:	1f be       	out	0x3f, r1	; 63
    12c4:	cf ef       	ldi	r28, 0xFF	; 255
    12c6:	d1 e2       	ldi	r29, 0x21	; 33
    12c8:	de bf       	out	0x3e, r29	; 62
    12ca:	cd bf       	out	0x3d, r28	; 61
    12cc:	00 e0       	ldi	r16, 0x00	; 0
    12ce:	0c bf       	out	0x3c, r16	; 60

000012d0 <__do_copy_data>:
    12d0:	13 e0       	ldi	r17, 0x03	; 3
    12d2:	a0 e0       	ldi	r26, 0x00	; 0
    12d4:	b2 e0       	ldi	r27, 0x02	; 2
    12d6:	ea ef       	ldi	r30, 0xFA	; 250
    12d8:	f1 e8       	ldi	r31, 0x81	; 129
    12da:	00 e0       	ldi	r16, 0x00	; 0
    12dc:	0b bf       	out	0x3b, r16	; 59
    12de:	02 c0       	rjmp	.+4      	; 0x12e4 <__do_copy_data+0x14>
    12e0:	07 90       	elpm	r0, Z+
    12e2:	0d 92       	st	X+, r0
    12e4:	a0 32       	cpi	r26, 0x20	; 32
    12e6:	b1 07       	cpc	r27, r17
    12e8:	d9 f7       	brne	.-10     	; 0x12e0 <__do_copy_data+0x10>

000012ea <__do_clear_bss>:
    12ea:	20 e2       	ldi	r18, 0x20	; 32
    12ec:	a0 e2       	ldi	r26, 0x20	; 32
    12ee:	b3 e0       	ldi	r27, 0x03	; 3
    12f0:	01 c0       	rjmp	.+2      	; 0x12f4 <.do_clear_bss_start>

000012f2 <.do_clear_bss_loop>:
    12f2:	1d 92       	st	X+, r1

000012f4 <.do_clear_bss_start>:
    12f4:	a5 39       	cpi	r26, 0x95	; 149
    12f6:	b2 07       	cpc	r27, r18
    12f8:	e1 f7       	brne	.-8      	; 0x12f2 <.do_clear_bss_loop>

000012fa <__do_global_ctors>:
    12fa:	19 e0       	ldi	r17, 0x09	; 9
    12fc:	c0 e6       	ldi	r28, 0x60	; 96
    12fe:	d9 e0       	ldi	r29, 0x09	; 9
    1300:	00 e0       	ldi	r16, 0x00	; 0
    1302:	06 c0       	rjmp	.+12     	; 0x1310 <__do_global_ctors+0x16>
    1304:	21 97       	sbiw	r28, 0x01	; 1
    1306:	01 09       	sbc	r16, r1
    1308:	80 2f       	mov	r24, r16
    130a:	fe 01       	movw	r30, r28
    130c:	0e 94 53 3b 	call	0x76a6	; 0x76a6 <__tablejump2__>
    1310:	cf 35       	cpi	r28, 0x5F	; 95
    1312:	d1 07       	cpc	r29, r17
    1314:	80 e0       	ldi	r24, 0x00	; 0
    1316:	08 07       	cpc	r16, r24
    1318:	a9 f7       	brne	.-22     	; 0x1304 <__do_global_ctors+0xa>
    131a:	0e 94 81 25 	call	0x4b02	; 0x4b02 <main>
    131e:	0c 94 fb 40 	jmp	0x81f6	; 0x81f6 <_exit>

00001322 <__bad_interrupt>:
    1322:	0c 94 5e 26 	jmp	0x4cbc	; 0x4cbc <__vector_default>

00001326 <usart_init>:
    1326:	90 93 c5 00 	sts	0x00C5, r25	; 0x8000c5 <__TEXT_REGION_LENGTH__+0x7c00c5>
    132a:	80 93 c4 00 	sts	0x00C4, r24	; 0x8000c4 <__TEXT_REGION_LENGTH__+0x7c00c4>
    132e:	e0 ec       	ldi	r30, 0xC0	; 192
    1330:	f0 e0       	ldi	r31, 0x00	; 0
    1332:	80 81       	ld	r24, Z
    1334:	82 60       	ori	r24, 0x02	; 2
    1336:	80 83       	st	Z, r24
    1338:	88 e0       	ldi	r24, 0x08	; 8
    133a:	80 93 c1 00 	sts	0x00C1, r24	; 0x8000c1 <__TEXT_REGION_LENGTH__+0x7c00c1>
    133e:	86 e0       	ldi	r24, 0x06	; 6
    1340:	80 93 c2 00 	sts	0x00C2, r24	; 0x8000c2 <__TEXT_REGION_LENGTH__+0x7c00c2>
    1344:	08 95       	ret

00001346 <usart_putchar>:
    1346:	90 91 c0 00 	lds	r25, 0x00C0	; 0x8000c0 <__TEXT_REGION_LENGTH__+0x7c00c0>
    134a:	95 ff       	sbrs	r25, 5
    134c:	fc cf       	rjmp	.-8      	; 0x1346 <usart_putchar>
    134e:	80 93 c6 00 	sts	0x00C6, r24	; 0x8000c6 <__TEXT_REGION_LENGTH__+0x7c00c6>
    1352:	08 95       	ret

00001354 <usart_pstr_p>:
    1354:	0f 93       	push	r16
    1356:	1f 93       	push	r17
    1358:	cf 93       	push	r28
    135a:	df 93       	push	r29
    135c:	fc 01       	movw	r30, r24
    135e:	8b 01       	movw	r16, r22
    1360:	84 91       	lpm	r24, Z
    1362:	ef 01       	movw	r28, r30
    1364:	21 96       	adiw	r28, 0x01	; 1
    1366:	88 23       	and	r24, r24
    1368:	21 f0       	breq	.+8      	; 0x1372 <usart_pstr_p+0x1e>
    136a:	ed df       	rcall	.-38     	; 0x1346 <usart_putchar>
    136c:	fe 01       	movw	r30, r28
    136e:	84 91       	lpm	r24, Z
    1370:	f9 cf       	rjmp	.-14     	; 0x1364 <usart_pstr_p+0x10>
    1372:	01 2b       	or	r16, r17
    1374:	41 f0       	breq	.+16     	; 0x1386 <usart_pstr_p+0x32>
    1376:	8d e0       	ldi	r24, 0x0D	; 13
    1378:	e6 df       	rcall	.-52     	; 0x1346 <usart_putchar>
    137a:	8a e0       	ldi	r24, 0x0A	; 10
    137c:	df 91       	pop	r29
    137e:	cf 91       	pop	r28
    1380:	1f 91       	pop	r17
    1382:	0f 91       	pop	r16
    1384:	e0 cf       	rjmp	.-64     	; 0x1346 <usart_putchar>
    1386:	df 91       	pop	r29
    1388:	cf 91       	pop	r28
    138a:	1f 91       	pop	r17
    138c:	0f 91       	pop	r16
    138e:	08 95       	ret

00001390 <usart_putchar_printf>:
    1390:	cf 93       	push	r28
    1392:	c8 2f       	mov	r28, r24
    1394:	8a 30       	cpi	r24, 0x0A	; 10
    1396:	11 f4       	brne	.+4      	; 0x139c <usart_putchar_printf+0xc>
    1398:	8d e0       	ldi	r24, 0x0D	; 13
    139a:	d5 df       	rcall	.-86     	; 0x1346 <usart_putchar>
    139c:	8c 2f       	mov	r24, r28
    139e:	d3 df       	rcall	.-90     	; 0x1346 <usart_putchar>
    13a0:	80 e0       	ldi	r24, 0x00	; 0
    13a2:	90 e0       	ldi	r25, 0x00	; 0
    13a4:	cf 91       	pop	r28
    13a6:	08 95       	ret

000013a8 <can_init>:
    13a8:	8f 92       	push	r8
    13aa:	9f 92       	push	r9
    13ac:	af 92       	push	r10
    13ae:	bf 92       	push	r11
    13b0:	cf 92       	push	r12
    13b2:	df 92       	push	r13
    13b4:	ef 92       	push	r14
    13b6:	ff 92       	push	r15
    13b8:	0f 93       	push	r16
    13ba:	1f 93       	push	r17
    13bc:	cf 93       	push	r28
    13be:	df 93       	push	r29
    13c0:	6b 01       	movw	r12, r22
    13c2:	7c 01       	movw	r14, r24
    13c4:	49 01       	movw	r8, r18
    13c6:	5a 01       	movw	r10, r20
    13c8:	0f b6       	in	r0, 0x3f	; 63
    13ca:	f8 94       	cli
    13cc:	0f 92       	push	r0
    13ce:	0e 94 fd 2f 	call	0x5ffa	; 0x5ffa <_ZN8SPIClass5beginEv>
    13d2:	88 e0       	ldi	r24, 0x08	; 8
    13d4:	94 e0       	ldi	r25, 0x04	; 4
    13d6:	0e 94 3b 27 	call	0x4e76	; 0x4e76 <_ZN7MCP25155resetEv>
    13da:	18 2f       	mov	r17, r24
    13dc:	6f e0       	ldi	r22, 0x0F	; 15
    13de:	88 e0       	ldi	r24, 0x08	; 8
    13e0:	94 e0       	ldi	r25, 0x04	; 4
    13e2:	0e 94 90 28 	call	0x5120	; 0x5120 <_ZN7MCP251510setBitrateE9CAN_SPEED>
    13e6:	81 11       	cpse	r24, r1
    13e8:	0a c0       	rjmp	.+20     	; 0x13fe <can_init+0x56>
    13ea:	c1 e0       	ldi	r28, 0x01	; 1
    13ec:	d0 e0       	ldi	r29, 0x00	; 0
    13ee:	11 11       	cpse	r17, r1
    13f0:	02 c0       	rjmp	.+4      	; 0x13f6 <can_init+0x4e>
    13f2:	c0 e0       	ldi	r28, 0x00	; 0
    13f4:	d0 e0       	ldi	r29, 0x00	; 0
    13f6:	d1 95       	neg	r29
    13f8:	c1 95       	neg	r28
    13fa:	d1 09       	sbc	r29, r1
    13fc:	02 c0       	rjmp	.+4      	; 0x1402 <can_init+0x5a>
    13fe:	cf ef       	ldi	r28, 0xFF	; 255
    1400:	df ef       	ldi	r29, 0xFF	; 255
    1402:	95 01       	movw	r18, r10
    1404:	84 01       	movw	r16, r8
    1406:	41 e0       	ldi	r20, 0x01	; 1
    1408:	60 e0       	ldi	r22, 0x00	; 0
    140a:	88 e0       	ldi	r24, 0x08	; 8
    140c:	94 e0       	ldi	r25, 0x04	; 4
    140e:	0e 94 bd 28 	call	0x517a	; 0x517a <_ZN7MCP251513setFilterMaskENS_4MASKEbm>
    1412:	88 23       	and	r24, r24
    1414:	11 f0       	breq	.+4      	; 0x141a <can_init+0x72>
    1416:	cf ef       	ldi	r28, 0xFF	; 255
    1418:	df ef       	ldi	r29, 0xFF	; 255
    141a:	95 01       	movw	r18, r10
    141c:	84 01       	movw	r16, r8
    141e:	41 e0       	ldi	r20, 0x01	; 1
    1420:	61 e0       	ldi	r22, 0x01	; 1
    1422:	88 e0       	ldi	r24, 0x08	; 8
    1424:	94 e0       	ldi	r25, 0x04	; 4
    1426:	0e 94 bd 28 	call	0x517a	; 0x517a <_ZN7MCP251513setFilterMaskENS_4MASKEbm>
    142a:	88 23       	and	r24, r24
    142c:	11 f0       	breq	.+4      	; 0x1432 <can_init+0x8a>
    142e:	cf ef       	ldi	r28, 0xFF	; 255
    1430:	df ef       	ldi	r29, 0xFF	; 255
    1432:	97 01       	movw	r18, r14
    1434:	86 01       	movw	r16, r12
    1436:	41 e0       	ldi	r20, 0x01	; 1
    1438:	60 e0       	ldi	r22, 0x00	; 0
    143a:	88 e0       	ldi	r24, 0x08	; 8
    143c:	94 e0       	ldi	r25, 0x04	; 4
    143e:	0e 94 ff 28 	call	0x51fe	; 0x51fe <_ZN7MCP25159setFilterENS_3RXFEbm>
    1442:	88 23       	and	r24, r24
    1444:	11 f0       	breq	.+4      	; 0x144a <can_init+0xa2>
    1446:	cf ef       	ldi	r28, 0xFF	; 255
    1448:	df ef       	ldi	r29, 0xFF	; 255
    144a:	97 01       	movw	r18, r14
    144c:	86 01       	movw	r16, r12
    144e:	41 e0       	ldi	r20, 0x01	; 1
    1450:	62 e0       	ldi	r22, 0x02	; 2
    1452:	88 e0       	ldi	r24, 0x08	; 8
    1454:	94 e0       	ldi	r25, 0x04	; 4
    1456:	0e 94 ff 28 	call	0x51fe	; 0x51fe <_ZN7MCP25159setFilterENS_3RXFEbm>
    145a:	88 23       	and	r24, r24
    145c:	11 f0       	breq	.+4      	; 0x1462 <can_init+0xba>
    145e:	cf ef       	ldi	r28, 0xFF	; 255
    1460:	df ef       	ldi	r29, 0xFF	; 255
    1462:	88 e0       	ldi	r24, 0x08	; 8
    1464:	94 e0       	ldi	r25, 0x04	; 4
    1466:	0e 94 c5 27 	call	0x4f8a	; 0x4f8a <_ZN7MCP251513setNormalModeEv>
    146a:	88 23       	and	r24, r24
    146c:	11 f0       	breq	.+4      	; 0x1472 <can_init+0xca>
    146e:	cf ef       	ldi	r28, 0xFF	; 255
    1470:	df ef       	ldi	r29, 0xFF	; 255
    1472:	0f 90       	pop	r0
    1474:	0f be       	out	0x3f, r0	; 63
    1476:	ce 01       	movw	r24, r28
    1478:	df 91       	pop	r29
    147a:	cf 91       	pop	r28
    147c:	1f 91       	pop	r17
    147e:	0f 91       	pop	r16
    1480:	ff 90       	pop	r15
    1482:	ef 90       	pop	r14
    1484:	df 90       	pop	r13
    1486:	cf 90       	pop	r12
    1488:	bf 90       	pop	r11
    148a:	af 90       	pop	r10
    148c:	9f 90       	pop	r9
    148e:	8f 90       	pop	r8
    1490:	08 95       	ret

00001492 <can_send>:
    1492:	cf 92       	push	r12
    1494:	df 92       	push	r13
    1496:	ef 92       	push	r14
    1498:	ff 92       	push	r15
    149a:	0f 93       	push	r16
    149c:	1f 93       	push	r17
    149e:	cf 93       	push	r28
    14a0:	df 93       	push	r29
    14a2:	cd b7       	in	r28, 0x3d	; 61
    14a4:	de b7       	in	r29, 0x3e	; 62
    14a6:	ed b6       	in	r14, 0x3d	; 61
    14a8:	fe b6       	in	r15, 0x3e	; 62
    14aa:	ed b7       	in	r30, 0x3d	; 61
    14ac:	fe b7       	in	r31, 0x3e	; 62
    14ae:	77 97       	sbiw	r30, 0x17	; 23
    14b0:	0f b6       	in	r0, 0x3f	; 63
    14b2:	f8 94       	cli
    14b4:	fe bf       	out	0x3e, r31	; 62
    14b6:	0f be       	out	0x3f, r0	; 63
    14b8:	ed bf       	out	0x3d, r30	; 61
    14ba:	0d b7       	in	r16, 0x3d	; 61
    14bc:	1e b7       	in	r17, 0x3e	; 62
    14be:	08 5f       	subi	r16, 0xF8	; 248
    14c0:	1f 4f       	sbci	r17, 0xFF	; 255
    14c2:	08 7f       	andi	r16, 0xF8	; 248
    14c4:	0f b6       	in	r0, 0x3f	; 63
    14c6:	f8 94       	cli
    14c8:	0f 92       	push	r0
    14ca:	dc 01       	movw	r26, r24
    14cc:	cb 01       	movw	r24, r22
    14ce:	b0 68       	ori	r27, 0x80	; 128
    14d0:	f8 01       	movw	r30, r16
    14d2:	80 83       	st	Z, r24
    14d4:	91 83       	std	Z+1, r25	; 0x01
    14d6:	a2 83       	std	Z+2, r26	; 0x02
    14d8:	b3 83       	std	Z+3, r27	; 0x03
    14da:	24 83       	std	Z+4, r18	; 0x04
    14dc:	d8 01       	movw	r26, r16
    14de:	18 96       	adiw	r26, 0x08	; 8
    14e0:	fa 01       	movw	r30, r20
    14e2:	30 e0       	ldi	r19, 0x00	; 0
    14e4:	cf 01       	movw	r24, r30
    14e6:	84 1b       	sub	r24, r20
    14e8:	95 0b       	sbc	r25, r21
    14ea:	82 17       	cp	r24, r18
    14ec:	93 07       	cpc	r25, r19
    14ee:	1c f4       	brge	.+6      	; 0x14f6 <can_send+0x64>
    14f0:	81 91       	ld	r24, Z+
    14f2:	8d 93       	st	X+, r24
    14f4:	f7 cf       	rjmp	.-18     	; 0x14e4 <can_send+0x52>
    14f6:	88 e0       	ldi	r24, 0x08	; 8
    14f8:	c8 2e       	mov	r12, r24
    14fa:	d1 2c       	mov	r13, r1
    14fc:	88 e0       	ldi	r24, 0x08	; 8
    14fe:	94 e0       	ldi	r25, 0x04	; 4
    1500:	0e 94 8c 2a 	call	0x5518	; 0x5518 <_ZN7MCP251510checktxavaEv>
    1504:	81 11       	cpse	r24, r1
    1506:	14 c0       	rjmp	.+40     	; 0x1530 <can_send+0x9e>
    1508:	f1 e2       	ldi	r31, 0x21	; 33
    150a:	fa 95       	dec	r31
    150c:	f1 f7       	brne	.-4      	; 0x150a <can_send+0x78>
    150e:	00 00       	nop
    1510:	a8 01       	movw	r20, r16
    1512:	60 e0       	ldi	r22, 0x00	; 0
    1514:	88 e0       	ldi	r24, 0x08	; 8
    1516:	94 e0       	ldi	r25, 0x04	; 4
    1518:	0e 94 5c 29 	call	0x52b8	; 0x52b8 <_ZN7MCP251511sendMessageENS_4TXBnEPK9can_frame>
    151c:	01 e0       	ldi	r16, 0x01	; 1
    151e:	10 e0       	ldi	r17, 0x00	; 0
    1520:	81 11       	cpse	r24, r1
    1522:	02 c0       	rjmp	.+4      	; 0x1528 <can_send+0x96>
    1524:	00 e0       	ldi	r16, 0x00	; 0
    1526:	10 e0       	ldi	r17, 0x00	; 0
    1528:	11 95       	neg	r17
    152a:	01 95       	neg	r16
    152c:	11 09       	sbc	r17, r1
    152e:	06 c0       	rjmp	.+12     	; 0x153c <can_send+0xaa>
    1530:	81 e0       	ldi	r24, 0x01	; 1
    1532:	c8 1a       	sub	r12, r24
    1534:	d1 08       	sbc	r13, r1
    1536:	11 f7       	brne	.-60     	; 0x14fc <can_send+0x6a>
    1538:	00 e0       	ldi	r16, 0x00	; 0
    153a:	10 e0       	ldi	r17, 0x00	; 0
    153c:	0f 90       	pop	r0
    153e:	0f be       	out	0x3f, r0	; 63
    1540:	01 15       	cp	r16, r1
    1542:	11 05       	cpc	r17, r1
    1544:	49 f0       	breq	.+18     	; 0x1558 <can_send+0xc6>
    1546:	88 e8       	ldi	r24, 0x88	; 136
    1548:	91 e0       	ldi	r25, 0x01	; 1
    154a:	9f 93       	push	r25
    154c:	8f 93       	push	r24
    154e:	1f 92       	push	r1
    1550:	55 d6       	rcall	.+3242   	; 0x21fc <do_csp_debug>
    1552:	0f 90       	pop	r0
    1554:	0f 90       	pop	r0
    1556:	0f 90       	pop	r0
    1558:	c8 01       	movw	r24, r16
    155a:	0f b6       	in	r0, 0x3f	; 63
    155c:	f8 94       	cli
    155e:	fe be       	out	0x3e, r15	; 62
    1560:	0f be       	out	0x3f, r0	; 63
    1562:	ed be       	out	0x3d, r14	; 61
    1564:	df 91       	pop	r29
    1566:	cf 91       	pop	r28
    1568:	1f 91       	pop	r17
    156a:	0f 91       	pop	r16
    156c:	ff 90       	pop	r15
    156e:	ef 90       	pop	r14
    1570:	df 90       	pop	r13
    1572:	cf 90       	pop	r12
    1574:	08 95       	ret

00001576 <CanRxFunc>:
    1576:	52 98       	cbi	0x0a, 2	; 10
    1578:	80 91 69 00 	lds	r24, 0x0069	; 0x800069 <__TEXT_REGION_LENGTH__+0x7c0069>
    157c:	80 62       	ori	r24, 0x20	; 32
    157e:	80 93 69 00 	sts	0x0069, r24	; 0x800069 <__TEXT_REGION_LENGTH__+0x7c0069>
    1582:	ea 9a       	sbi	0x1d, 2	; 29
    1584:	f4 e7       	ldi	r31, 0x74	; 116
    1586:	2f 2e       	mov	r2, r31
    1588:	f1 e0       	ldi	r31, 0x01	; 1
    158a:	3f 2e       	mov	r3, r31
    158c:	ae e5       	ldi	r26, 0x5E	; 94
    158e:	4a 2e       	mov	r4, r26
    1590:	a1 e0       	ldi	r26, 0x01	; 1
    1592:	5a 2e       	mov	r5, r26
    1594:	b9 e6       	ldi	r27, 0x69	; 105
    1596:	6b 2e       	mov	r6, r27
    1598:	b1 e0       	ldi	r27, 0x01	; 1
    159a:	7b 2e       	mov	r7, r27
    159c:	88 e0       	ldi	r24, 0x08	; 8
    159e:	94 e0       	ldi	r25, 0x04	; 4
    15a0:	0e 94 89 2a 	call	0x5512	; 0x5512 <_ZN7MCP251515clearInterruptsEv>
    15a4:	80 e0       	ldi	r24, 0x00	; 0
    15a6:	90 e0       	ldi	r25, 0x00	; 0
    15a8:	0e 94 54 36 	call	0x6ca8	; 0x6ca8 <uxTaskGetStackHighWaterMark2>
    15ac:	ec 01       	movw	r28, r24
    15ae:	80 e0       	ldi	r24, 0x00	; 0
    15b0:	90 e0       	ldi	r25, 0x00	; 0
    15b2:	0e 94 8e 32 	call	0x651c	; 0x651c <pcTaskGetName>
    15b6:	df 93       	push	r29
    15b8:	cf 93       	push	r28
    15ba:	9f 93       	push	r25
    15bc:	8f 93       	push	r24
    15be:	61 e8       	ldi	r22, 0x81	; 129
    15c0:	71 e0       	ldi	r23, 0x01	; 1
    15c2:	7f 93       	push	r23
    15c4:	6f 93       	push	r22
    15c6:	92 e0       	ldi	r25, 0x02	; 2
    15c8:	9f 93       	push	r25
    15ca:	18 d6       	rcall	.+3120   	; 0x21fc <do_csp_debug>
    15cc:	80 e0       	ldi	r24, 0x00	; 0
    15ce:	90 e0       	ldi	r25, 0x00	; 0
    15d0:	0e 94 36 34 	call	0x686c	; 0x686c <vTaskSuspend>
    15d4:	0f b6       	in	r0, 0x3f	; 63
    15d6:	f8 94       	cli
    15d8:	0f 92       	push	r0
    15da:	82 ea       	ldi	r24, 0xA2	; 162
    15dc:	90 e0       	ldi	r25, 0x00	; 0
    15de:	0e 94 9a 22 	call	0x4534	; 0x4534 <_Z12timeoutstarti>
    15e2:	ad b7       	in	r26, 0x3d	; 61
    15e4:	be b7       	in	r27, 0x3e	; 62
    15e6:	17 96       	adiw	r26, 0x07	; 7
    15e8:	0f b6       	in	r0, 0x3f	; 63
    15ea:	f8 94       	cli
    15ec:	be bf       	out	0x3e, r27	; 62
    15ee:	0f be       	out	0x3f, r0	; 63
    15f0:	ad bf       	out	0x3d, r26	; 61
    15f2:	d7 e0       	ldi	r29, 0x07	; 7
    15f4:	c0 e0       	ldi	r28, 0x00	; 0
    15f6:	0e 94 bc 22 	call	0x4578	; 0x4578 <_Z12timeoutcheckv>
    15fa:	89 2b       	or	r24, r25
    15fc:	61 f5       	brne	.+88     	; 0x1656 <CanRxFunc+0xe0>
    15fe:	b0 e1       	ldi	r27, 0x10	; 16
    1600:	cb 9f       	mul	r28, r27
    1602:	80 01       	movw	r16, r0
    1604:	11 24       	eor	r1, r1
    1606:	08 57       	subi	r16, 0x78	; 120
    1608:	1c 4f       	sbci	r17, 0xFC	; 252
    160a:	b8 01       	movw	r22, r16
    160c:	88 e0       	ldi	r24, 0x08	; 8
    160e:	94 e0       	ldi	r25, 0x04	; 4
    1610:	0e 94 6d 2a 	call	0x54da	; 0x54da <_ZN7MCP251511readMessageEP9can_frame>
    1614:	81 11       	cpse	r24, r1
    1616:	1d c0       	rjmp	.+58     	; 0x1652 <CanRxFunc+0xdc>
    1618:	f8 01       	movw	r30, r16
    161a:	80 81       	ld	r24, Z
    161c:	91 81       	ldd	r25, Z+1	; 0x01
    161e:	a2 81       	ldd	r26, Z+2	; 0x02
    1620:	b3 81       	ldd	r27, Z+3	; 0x03
    1622:	ac 01       	movw	r20, r24
    1624:	bd 01       	movw	r22, r26
    1626:	e2 e1       	ldi	r30, 0x12	; 18
    1628:	76 95       	lsr	r23
    162a:	67 95       	ror	r22
    162c:	57 95       	ror	r21
    162e:	47 95       	ror	r20
    1630:	ea 95       	dec	r30
    1632:	d1 f7       	brne	.-12     	; 0x1628 <CanRxFunc+0xb2>
    1634:	40 ff       	sbrs	r20, 0
    1636:	02 c0       	rjmp	.+4      	; 0x163c <CanRxFunc+0xc6>
    1638:	c1 11       	cpse	r28, r1
    163a:	08 c0       	rjmp	.+16     	; 0x164c <CanRxFunc+0xd6>
    163c:	3a e0       	ldi	r19, 0x0A	; 10
    163e:	b6 95       	lsr	r27
    1640:	a7 95       	ror	r26
    1642:	97 95       	ror	r25
    1644:	87 95       	ror	r24
    1646:	3a 95       	dec	r19
    1648:	d1 f7       	brne	.-12     	; 0x163e <CanRxFunc+0xc8>
    164a:	d8 2f       	mov	r29, r24
    164c:	cf 5f       	subi	r28, 0xFF	; 255
    164e:	0e 94 b7 22 	call	0x456e	; 0x456e <_Z12timeoutresetv>
    1652:	dc 17       	cp	r29, r28
    1654:	80 f6       	brcc	.-96     	; 0x15f6 <CanRxFunc+0x80>
    1656:	0f 90       	pop	r0
    1658:	0f be       	out	0x3f, r0	; 63
    165a:	8c 2e       	mov	r8, r28
    165c:	91 2c       	mov	r9, r1
    165e:	1f 92       	push	r1
    1660:	cf 93       	push	r28
    1662:	3f 92       	push	r3
    1664:	2f 92       	push	r2
    1666:	f2 e0       	ldi	r31, 0x02	; 2
    1668:	ff 93       	push	r31
    166a:	c8 d5       	rcall	.+2960   	; 0x21fc <do_csp_debug>
    166c:	08 e8       	ldi	r16, 0x88	; 136
    166e:	13 e0       	ldi	r17, 0x03	; 3
    1670:	0f 90       	pop	r0
    1672:	0f 90       	pop	r0
    1674:	0f 90       	pop	r0
    1676:	0f 90       	pop	r0
    1678:	0f 90       	pop	r0
    167a:	f8 01       	movw	r30, r16
    167c:	40 e0       	ldi	r20, 0x00	; 0
    167e:	50 e0       	ldi	r21, 0x00	; 0
    1680:	48 15       	cp	r20, r8
    1682:	59 05       	cpc	r21, r9
    1684:	e4 f5       	brge	.+120    	; 0x16fe <CanRxFunc+0x188>
    1686:	c0 80       	ld	r12, Z
    1688:	d1 80       	ldd	r13, Z+1	; 0x01
    168a:	e2 80       	ldd	r14, Z+2	; 0x02
    168c:	f3 80       	ldd	r15, Z+3	; 0x03
    168e:	d7 01       	movw	r26, r14
    1690:	c6 01       	movw	r24, r12
    1692:	2a e0       	ldi	r18, 0x0A	; 10
    1694:	b6 95       	lsr	r27
    1696:	a7 95       	ror	r26
    1698:	97 95       	ror	r25
    169a:	87 95       	ror	r24
    169c:	2a 95       	dec	r18
    169e:	d1 f7       	brne	.-12     	; 0x1694 <CanRxFunc+0x11e>
    16a0:	80 95       	com	r24
    16a2:	8c 0f       	add	r24, r28
    16a4:	2d e0       	ldi	r18, 0x0D	; 13
    16a6:	28 9f       	mul	r18, r24
    16a8:	d0 01       	movw	r26, r0
    16aa:	11 24       	eor	r1, r1
    16ac:	a0 5e       	subi	r26, 0xE0	; 224
    16ae:	bc 4f       	sbci	r27, 0xFC	; 252
    16b0:	cd 92       	st	X+, r12
    16b2:	dd 92       	st	X+, r13
    16b4:	ed 92       	st	X+, r14
    16b6:	fc 92       	st	X, r15
    16b8:	13 97       	sbiw	r26, 0x03	; 3
    16ba:	d4 81       	ldd	r29, Z+4	; 0x04
    16bc:	14 96       	adiw	r26, 0x04	; 4
    16be:	dc 93       	st	X, r29
    16c0:	6d e0       	ldi	r22, 0x0D	; 13
    16c2:	86 9f       	mul	r24, r22
    16c4:	c0 01       	movw	r24, r0
    16c6:	11 24       	eor	r1, r1
    16c8:	20 e0       	ldi	r18, 0x00	; 0
    16ca:	30 e0       	ldi	r19, 0x00	; 0
    16cc:	2d 17       	cp	r18, r29
    16ce:	98 f4       	brcc	.+38     	; 0x16f6 <CanRxFunc+0x180>
    16d0:	d9 01       	movw	r26, r18
    16d2:	a8 0f       	add	r26, r24
    16d4:	b9 1f       	adc	r27, r25
    16d6:	bd 01       	movw	r22, r26
    16d8:	60 5e       	subi	r22, 0xE0	; 224
    16da:	7c 4f       	sbci	r23, 0xFC	; 252
    16dc:	7b 01       	movw	r14, r22
    16de:	bf 01       	movw	r22, r30
    16e0:	62 0f       	add	r22, r18
    16e2:	73 1f       	adc	r23, r19
    16e4:	db 01       	movw	r26, r22
    16e6:	18 96       	adiw	r26, 0x08	; 8
    16e8:	6c 91       	ld	r22, X
    16ea:	d7 01       	movw	r26, r14
    16ec:	15 96       	adiw	r26, 0x05	; 5
    16ee:	6c 93       	st	X, r22
    16f0:	2f 5f       	subi	r18, 0xFF	; 255
    16f2:	3f 4f       	sbci	r19, 0xFF	; 255
    16f4:	eb cf       	rjmp	.-42     	; 0x16cc <CanRxFunc+0x156>
    16f6:	4f 5f       	subi	r20, 0xFF	; 255
    16f8:	5f 4f       	sbci	r21, 0xFF	; 255
    16fa:	70 96       	adiw	r30, 0x10	; 16
    16fc:	c1 cf       	rjmp	.-126    	; 0x1680 <CanRxFunc+0x10a>
    16fe:	0f b6       	in	r0, 0x3f	; 63
    1700:	f8 94       	cli
    1702:	0f 92       	push	r0
    1704:	c0 e2       	ldi	r28, 0x20	; 32
    1706:	d3 e0       	ldi	r29, 0x03	; 3
    1708:	7e 01       	movw	r14, r28
    170a:	c1 2c       	mov	r12, r1
    170c:	d1 2c       	mov	r13, r1
    170e:	54 01       	movw	r10, r8
    1710:	b1 e0       	ldi	r27, 0x01	; 1
    1712:	ab 1a       	sub	r10, r27
    1714:	b1 08       	sbc	r11, r1
    1716:	c8 14       	cp	r12, r8
    1718:	d9 04       	cpc	r13, r9
    171a:	14 f5       	brge	.+68     	; 0x1760 <CanRxFunc+0x1ea>
    171c:	ca 14       	cp	r12, r10
    171e:	db 04       	cpc	r13, r11
    1720:	51 f4       	brne	.+20     	; 0x1736 <CanRxFunc+0x1c0>
    1722:	65 e8       	ldi	r22, 0x85	; 133
    1724:	72 e0       	ldi	r23, 0x02	; 2
    1726:	c7 01       	movw	r24, r14
    1728:	0e 94 0a 16 	call	0x2c14	; 0x2c14 <csp_can_rx_frame>
    172c:	89 2b       	or	r24, r25
    172e:	89 f0       	breq	.+34     	; 0x1752 <CanRxFunc+0x1dc>
    1730:	7f 92       	push	r7
    1732:	6f 92       	push	r6
    1734:	09 c0       	rjmp	.+18     	; 0x1748 <CanRxFunc+0x1d2>
    1736:	60 e0       	ldi	r22, 0x00	; 0
    1738:	70 e0       	ldi	r23, 0x00	; 0
    173a:	c7 01       	movw	r24, r14
    173c:	0e 94 0a 16 	call	0x2c14	; 0x2c14 <csp_can_rx_frame>
    1740:	89 2b       	or	r24, r25
    1742:	39 f0       	breq	.+14     	; 0x1752 <CanRxFunc+0x1dc>
    1744:	5f 92       	push	r5
    1746:	4f 92       	push	r4
    1748:	1f 92       	push	r1
    174a:	58 d5       	rcall	.+2736   	; 0x21fc <do_csp_debug>
    174c:	0f 90       	pop	r0
    174e:	0f 90       	pop	r0
    1750:	0f 90       	pop	r0
    1752:	ef ef       	ldi	r30, 0xFF	; 255
    1754:	ce 1a       	sub	r12, r30
    1756:	de 0a       	sbc	r13, r30
    1758:	fd e0       	ldi	r31, 0x0D	; 13
    175a:	ef 0e       	add	r14, r31
    175c:	f1 1c       	adc	r15, r1
    175e:	db cf       	rjmp	.-74     	; 0x1716 <CanRxFunc+0x1a0>
    1760:	0f 90       	pop	r0
    1762:	0f be       	out	0x3f, r0	; 63
    1764:	18 82       	st	Y, r1
    1766:	19 82       	std	Y+1, r1	; 0x01
    1768:	1a 82       	std	Y+2, r1	; 0x02
    176a:	1b 82       	std	Y+3, r1	; 0x03
    176c:	d8 01       	movw	r26, r16
    176e:	1d 92       	st	X+, r1
    1770:	1d 92       	st	X+, r1
    1772:	1d 92       	st	X+, r1
    1774:	1c 92       	st	X, r1
    1776:	13 97       	sbiw	r26, 0x03	; 3
    1778:	1c 82       	std	Y+4, r1	; 0x04
    177a:	14 96       	adiw	r26, 0x04	; 4
    177c:	1c 92       	st	X, r1
    177e:	80 e0       	ldi	r24, 0x00	; 0
    1780:	90 e0       	ldi	r25, 0x00	; 0
    1782:	fe 01       	movw	r30, r28
    1784:	e8 0f       	add	r30, r24
    1786:	f9 1f       	adc	r31, r25
    1788:	15 82       	std	Z+5, r1	; 0x05
    178a:	f8 01       	movw	r30, r16
    178c:	e8 0f       	add	r30, r24
    178e:	f9 1f       	adc	r31, r25
    1790:	10 86       	std	Z+8, r1	; 0x08
    1792:	01 96       	adiw	r24, 0x01	; 1
    1794:	88 30       	cpi	r24, 0x08	; 8
    1796:	91 05       	cpc	r25, r1
    1798:	a1 f7       	brne	.-24     	; 0x1782 <CanRxFunc+0x20c>
    179a:	2d 96       	adiw	r28, 0x0d	; 13
    179c:	00 5f       	subi	r16, 0xF0	; 240
    179e:	1f 4f       	sbci	r17, 0xFF	; 255
    17a0:	b3 e0       	ldi	r27, 0x03	; 3
    17a2:	c8 38       	cpi	r28, 0x88	; 136
    17a4:	db 07       	cpc	r29, r27
    17a6:	f1 f6       	brne	.-68     	; 0x1764 <CanRxFunc+0x1ee>
    17a8:	f9 ce       	rjmp	.-526    	; 0x159c <CanRxFunc+0x26>

000017aa <_GLOBAL__sub_I_mcp2515>:
    17aa:	88 e0       	ldi	r24, 0x08	; 8
    17ac:	94 e0       	ldi	r25, 0x04	; 4
    17ae:	0c 94 a3 26 	jmp	0x4d46	; 0x4d46 <_ZN7MCP2515C1Ev>

000017b2 <csp_buffer_init>:
    17b2:	cf 92       	push	r12
    17b4:	df 92       	push	r13
    17b6:	ef 92       	push	r14
    17b8:	ff 92       	push	r15
    17ba:	0f 93       	push	r16
    17bc:	1f 93       	push	r17
    17be:	cf 93       	push	r28
    17c0:	df 93       	push	r29
    17c2:	1f 92       	push	r1
    17c4:	1f 92       	push	r1
    17c6:	cd b7       	in	r28, 0x3d	; 61
    17c8:	de b7       	in	r29, 0x3e	; 62
    17ca:	90 93 0c 04 	sts	0x040C, r25	; 0x80040c <count+0x1>
    17ce:	80 93 0b 04 	sts	0x040B, r24	; 0x80040b <count>
    17d2:	9b 01       	movw	r18, r22
    17d4:	22 5f       	subi	r18, 0xF2	; 242
    17d6:	3f 4f       	sbci	r19, 0xFF	; 255
    17d8:	30 93 0a 04 	sts	0x040A, r19	; 0x80040a <size+0x1>
    17dc:	20 93 09 04 	sts	0x0409, r18	; 0x800409 <size>
    17e0:	8b 01       	movw	r16, r22
    17e2:	0e 5e       	subi	r16, 0xEE	; 238
    17e4:	1f 4f       	sbci	r17, 0xFF	; 255
    17e6:	80 9f       	mul	r24, r16
    17e8:	70 01       	movw	r14, r0
    17ea:	81 9f       	mul	r24, r17
    17ec:	f0 0c       	add	r15, r0
    17ee:	90 9f       	mul	r25, r16
    17f0:	f0 0c       	add	r15, r0
    17f2:	11 24       	eor	r1, r1
    17f4:	c7 01       	movw	r24, r14
    17f6:	0e 94 fc 18 	call	0x31f8	; 0x31f8 <csp_malloc>
    17fa:	90 93 0e 04 	sts	0x040E, r25	; 0x80040e <csp_buffer_pool+0x1>
    17fe:	80 93 0d 04 	sts	0x040D, r24	; 0x80040d <csp_buffer_pool>
    1802:	89 2b       	or	r24, r25
    1804:	09 f4       	brne	.+2      	; 0x1808 <csp_buffer_init+0x56>
    1806:	48 c0       	rjmp	.+144    	; 0x1898 <csp_buffer_init+0xe6>
    1808:	62 e0       	ldi	r22, 0x02	; 2
    180a:	70 e0       	ldi	r23, 0x00	; 0
    180c:	80 91 0b 04 	lds	r24, 0x040B	; 0x80040b <count>
    1810:	90 91 0c 04 	lds	r25, 0x040C	; 0x80040c <count+0x1>
    1814:	0e 94 6c 1a 	call	0x34d8	; 0x34d8 <csp_queue_create>
    1818:	9c 01       	movw	r18, r24
    181a:	90 93 10 04 	sts	0x0410, r25	; 0x800410 <csp_buffers+0x1>
    181e:	80 93 0f 04 	sts	0x040F, r24	; 0x80040f <csp_buffers>
    1822:	80 91 0d 04 	lds	r24, 0x040D	; 0x80040d <csp_buffer_pool>
    1826:	90 91 0e 04 	lds	r25, 0x040E	; 0x80040e <csp_buffer_pool+0x1>
    182a:	23 2b       	or	r18, r19
    182c:	99 f1       	breq	.+102    	; 0x1894 <csp_buffer_init+0xe2>
    182e:	a7 01       	movw	r20, r14
    1830:	60 e0       	ldi	r22, 0x00	; 0
    1832:	70 e0       	ldi	r23, 0x00	; 0
    1834:	0e 94 ec 3b 	call	0x77d8	; 0x77d8 <memset>
    1838:	80 e0       	ldi	r24, 0x00	; 0
    183a:	90 e0       	ldi	r25, 0x00	; 0
    183c:	e1 2c       	mov	r14, r1
    183e:	f1 2c       	mov	r15, r1
    1840:	68 01       	movw	r12, r16
    1842:	c8 0e       	add	r12, r24
    1844:	d9 1e       	adc	r13, r25
    1846:	20 91 0b 04 	lds	r18, 0x040B	; 0x80040b <count>
    184a:	30 91 0c 04 	lds	r19, 0x040C	; 0x80040c <count+0x1>
    184e:	e2 16       	cp	r14, r18
    1850:	f3 06       	cpc	r15, r19
    1852:	e8 f4       	brcc	.+58     	; 0x188e <csp_buffer_init+0xdc>
    1854:	e0 91 0d 04 	lds	r30, 0x040D	; 0x80040d <csp_buffer_pool>
    1858:	f0 91 0e 04 	lds	r31, 0x040E	; 0x80040e <csp_buffer_pool+0x1>
    185c:	e8 0f       	add	r30, r24
    185e:	f9 1f       	adc	r31, r25
    1860:	fa 83       	std	Y+2, r31	; 0x02
    1862:	e9 83       	std	Y+1, r30	; 0x01
    1864:	11 82       	std	Z+1, r1	; 0x01
    1866:	10 82       	st	Z, r1
    1868:	f3 83       	std	Z+3, r31	; 0x03
    186a:	e2 83       	std	Z+2, r30	; 0x02
    186c:	20 e0       	ldi	r18, 0x00	; 0
    186e:	30 e0       	ldi	r19, 0x00	; 0
    1870:	a9 01       	movw	r20, r18
    1872:	be 01       	movw	r22, r28
    1874:	6f 5f       	subi	r22, 0xFF	; 255
    1876:	7f 4f       	sbci	r23, 0xFF	; 255
    1878:	80 91 0f 04 	lds	r24, 0x040F	; 0x80040f <csp_buffers>
    187c:	90 91 10 04 	lds	r25, 0x0410	; 0x800410 <csp_buffers+0x1>
    1880:	0e 94 6f 1a 	call	0x34de	; 0x34de <csp_queue_enqueue>
    1884:	8f ef       	ldi	r24, 0xFF	; 255
    1886:	e8 1a       	sub	r14, r24
    1888:	f8 0a       	sbc	r15, r24
    188a:	c6 01       	movw	r24, r12
    188c:	d9 cf       	rjmp	.-78     	; 0x1840 <csp_buffer_init+0x8e>
    188e:	80 e0       	ldi	r24, 0x00	; 0
    1890:	90 e0       	ldi	r25, 0x00	; 0
    1892:	04 c0       	rjmp	.+8      	; 0x189c <csp_buffer_init+0xea>
    1894:	0e 94 fe 18 	call	0x31fc	; 0x31fc <csp_free>
    1898:	8f ef       	ldi	r24, 0xFF	; 255
    189a:	9f ef       	ldi	r25, 0xFF	; 255
    189c:	0f 90       	pop	r0
    189e:	0f 90       	pop	r0
    18a0:	df 91       	pop	r29
    18a2:	cf 91       	pop	r28
    18a4:	1f 91       	pop	r17
    18a6:	0f 91       	pop	r16
    18a8:	ff 90       	pop	r15
    18aa:	ef 90       	pop	r14
    18ac:	df 90       	pop	r13
    18ae:	cf 90       	pop	r12
    18b0:	08 95       	ret

000018b2 <csp_buffer_get>:
    18b2:	cf 93       	push	r28
    18b4:	df 93       	push	r29
    18b6:	1f 92       	push	r1
    18b8:	1f 92       	push	r1
    18ba:	cd b7       	in	r28, 0x3d	; 61
    18bc:	de b7       	in	r29, 0x3e	; 62
    18be:	1a 82       	std	Y+2, r1	; 0x02
    18c0:	19 82       	std	Y+1, r1	; 0x01
    18c2:	ac 01       	movw	r20, r24
    18c4:	42 5f       	subi	r20, 0xF2	; 242
    18c6:	5f 4f       	sbci	r21, 0xFF	; 255
    18c8:	20 91 09 04 	lds	r18, 0x0409	; 0x800409 <size>
    18cc:	30 91 0a 04 	lds	r19, 0x040A	; 0x80040a <size+0x1>
    18d0:	24 17       	cp	r18, r20
    18d2:	35 07       	cpc	r19, r21
    18d4:	70 f4       	brcc	.+28     	; 0x18f2 <csp_buffer_get+0x40>
    18d6:	9f 93       	push	r25
    18d8:	8f 93       	push	r24
    18da:	8c e4       	ldi	r24, 0x4C	; 76
    18dc:	92 e0       	ldi	r25, 0x02	; 2
    18de:	9f 93       	push	r25
    18e0:	8f 93       	push	r24
    18e2:	1f 92       	push	r1
    18e4:	8b d4       	rcall	.+2326   	; 0x21fc <do_csp_debug>
    18e6:	0f 90       	pop	r0
    18e8:	0f 90       	pop	r0
    18ea:	0f 90       	pop	r0
    18ec:	0f 90       	pop	r0
    18ee:	0f 90       	pop	r0
    18f0:	19 c0       	rjmp	.+50     	; 0x1924 <csp_buffer_get+0x72>
    18f2:	20 e0       	ldi	r18, 0x00	; 0
    18f4:	30 e0       	ldi	r19, 0x00	; 0
    18f6:	a9 01       	movw	r20, r18
    18f8:	be 01       	movw	r22, r28
    18fa:	6f 5f       	subi	r22, 0xFF	; 255
    18fc:	7f 4f       	sbci	r23, 0xFF	; 255
    18fe:	80 91 0f 04 	lds	r24, 0x040F	; 0x80040f <csp_buffers>
    1902:	90 91 10 04 	lds	r25, 0x0410	; 0x800410 <csp_buffers+0x1>
    1906:	0e 94 9a 1a 	call	0x3534	; 0x3534 <csp_queue_dequeue>
    190a:	e9 81       	ldd	r30, Y+1	; 0x01
    190c:	fa 81       	ldd	r31, Y+2	; 0x02
    190e:	30 97       	sbiw	r30, 0x00	; 0
    1910:	61 f4       	brne	.+24     	; 0x192a <csp_buffer_get+0x78>
    1912:	8d e3       	ldi	r24, 0x3D	; 61
    1914:	92 e0       	ldi	r25, 0x02	; 2
    1916:	9f 93       	push	r25
    1918:	8f 93       	push	r24
    191a:	1f 92       	push	r1
    191c:	6f d4       	rcall	.+2270   	; 0x21fc <do_csp_debug>
    191e:	0f 90       	pop	r0
    1920:	0f 90       	pop	r0
    1922:	0f 90       	pop	r0
    1924:	80 e0       	ldi	r24, 0x00	; 0
    1926:	90 e0       	ldi	r25, 0x00	; 0
    1928:	23 c0       	rjmp	.+70     	; 0x1970 <csp_buffer_get+0xbe>
    192a:	83 81       	ldd	r24, Z+3	; 0x03
    192c:	8f 93       	push	r24
    192e:	82 81       	ldd	r24, Z+2	; 0x02
    1930:	8f 93       	push	r24
    1932:	ff 93       	push	r31
    1934:	ef 93       	push	r30
    1936:	82 e3       	ldi	r24, 0x32	; 50
    1938:	92 e0       	ldi	r25, 0x02	; 2
    193a:	9f 93       	push	r25
    193c:	8f 93       	push	r24
    193e:	83 e0       	ldi	r24, 0x03	; 3
    1940:	8f 93       	push	r24
    1942:	5c d4       	rcall	.+2232   	; 0x21fc <do_csp_debug>
    1944:	e9 81       	ldd	r30, Y+1	; 0x01
    1946:	fa 81       	ldd	r31, Y+2	; 0x02
    1948:	0f b6       	in	r0, 0x3f	; 63
    194a:	f8 94       	cli
    194c:	de bf       	out	0x3e, r29	; 62
    194e:	0f be       	out	0x3f, r0	; 63
    1950:	cd bf       	out	0x3d, r28	; 61
    1952:	82 81       	ldd	r24, Z+2	; 0x02
    1954:	93 81       	ldd	r25, Z+3	; 0x03
    1956:	e8 17       	cp	r30, r24
    1958:	f9 07       	cpc	r31, r25
    195a:	19 f0       	breq	.+6      	; 0x1962 <csp_buffer_get+0xb0>
    195c:	8f e1       	ldi	r24, 0x1F	; 31
    195e:	92 e0       	ldi	r25, 0x02	; 2
    1960:	da cf       	rjmp	.-76     	; 0x1916 <csp_buffer_get+0x64>
    1962:	80 81       	ld	r24, Z
    1964:	91 81       	ldd	r25, Z+1	; 0x01
    1966:	01 96       	adiw	r24, 0x01	; 1
    1968:	91 83       	std	Z+1, r25	; 0x01
    196a:	80 83       	st	Z, r24
    196c:	cf 01       	movw	r24, r30
    196e:	04 96       	adiw	r24, 0x04	; 4
    1970:	0f 90       	pop	r0
    1972:	0f 90       	pop	r0
    1974:	df 91       	pop	r29
    1976:	cf 91       	pop	r28
    1978:	08 95       	ret

0000197a <csp_buffer_free_isr>:
    197a:	cf 93       	push	r28
    197c:	df 93       	push	r29
    197e:	00 d0       	rcall	.+0      	; 0x1980 <csp_buffer_free_isr+0x6>
    1980:	cd b7       	in	r28, 0x3d	; 61
    1982:	de b7       	in	r29, 0x3e	; 62
    1984:	1b 82       	std	Y+3, r1	; 0x03
    1986:	00 97       	sbiw	r24, 0x00	; 0
    1988:	11 f1       	breq	.+68     	; 0x19ce <csp_buffer_free_isr+0x54>
    198a:	fc 01       	movw	r30, r24
    198c:	34 97       	sbiw	r30, 0x04	; 4
    198e:	fa 83       	std	Y+2, r31	; 0x02
    1990:	e9 83       	std	Y+1, r30	; 0x01
    1992:	82 81       	ldd	r24, Z+2	; 0x02
    1994:	93 81       	ldd	r25, Z+3	; 0x03
    1996:	e8 17       	cp	r30, r24
    1998:	f9 07       	cpc	r31, r25
    199a:	c9 f4       	brne	.+50     	; 0x19ce <csp_buffer_free_isr+0x54>
    199c:	80 81       	ld	r24, Z
    199e:	91 81       	ldd	r25, Z+1	; 0x01
    19a0:	00 97       	sbiw	r24, 0x00	; 0
    19a2:	a9 f0       	breq	.+42     	; 0x19ce <csp_buffer_free_isr+0x54>
    19a4:	82 30       	cpi	r24, 0x02	; 2
    19a6:	91 05       	cpc	r25, r1
    19a8:	20 f0       	brcs	.+8      	; 0x19b2 <csp_buffer_free_isr+0x38>
    19aa:	01 97       	sbiw	r24, 0x01	; 1
    19ac:	91 83       	std	Z+1, r25	; 0x01
    19ae:	80 83       	st	Z, r24
    19b0:	0e c0       	rjmp	.+28     	; 0x19ce <csp_buffer_free_isr+0x54>
    19b2:	11 82       	std	Z+1, r1	; 0x01
    19b4:	10 82       	st	Z, r1
    19b6:	ae 01       	movw	r20, r28
    19b8:	4d 5f       	subi	r20, 0xFD	; 253
    19ba:	5f 4f       	sbci	r21, 0xFF	; 255
    19bc:	be 01       	movw	r22, r28
    19be:	6f 5f       	subi	r22, 0xFF	; 255
    19c0:	7f 4f       	sbci	r23, 0xFF	; 255
    19c2:	80 91 0f 04 	lds	r24, 0x040F	; 0x80040f <csp_buffers>
    19c6:	90 91 10 04 	lds	r25, 0x0410	; 0x800410 <csp_buffers+0x1>
    19ca:	0e 94 93 1a 	call	0x3526	; 0x3526 <csp_queue_enqueue_isr>
    19ce:	0f 90       	pop	r0
    19d0:	0f 90       	pop	r0
    19d2:	0f 90       	pop	r0
    19d4:	df 91       	pop	r29
    19d6:	cf 91       	pop	r28
    19d8:	08 95       	ret

000019da <csp_buffer_free>:
    19da:	cf 93       	push	r28
    19dc:	df 93       	push	r29
    19de:	1f 92       	push	r1
    19e0:	1f 92       	push	r1
    19e2:	cd b7       	in	r28, 0x3d	; 61
    19e4:	de b7       	in	r29, 0x3e	; 62
    19e6:	00 97       	sbiw	r24, 0x00	; 0
    19e8:	51 f4       	brne	.+20     	; 0x19fe <csp_buffer_free+0x24>
    19ea:	82 e0       	ldi	r24, 0x02	; 2
    19ec:	92 e0       	ldi	r25, 0x02	; 2
    19ee:	9f 93       	push	r25
    19f0:	8f 93       	push	r24
    19f2:	1f 92       	push	r1
    19f4:	03 d4       	rcall	.+2054   	; 0x21fc <do_csp_debug>
    19f6:	0f 90       	pop	r0
    19f8:	0f 90       	pop	r0
    19fa:	0f 90       	pop	r0
    19fc:	4d c0       	rjmp	.+154    	; 0x1a98 <csp_buffer_free+0xbe>
    19fe:	fc 01       	movw	r30, r24
    1a00:	34 97       	sbiw	r30, 0x04	; 4
    1a02:	fa 83       	std	Y+2, r31	; 0x02
    1a04:	e9 83       	std	Y+1, r30	; 0x01
    1a06:	22 81       	ldd	r18, Z+2	; 0x02
    1a08:	33 81       	ldd	r19, Z+3	; 0x03
    1a0a:	e2 17       	cp	r30, r18
    1a0c:	f3 07       	cpc	r31, r19
    1a0e:	29 f0       	breq	.+10     	; 0x1a1a <csp_buffer_free+0x40>
    1a10:	9f 93       	push	r25
    1a12:	8f 93       	push	r24
    1a14:	8e ed       	ldi	r24, 0xDE	; 222
    1a16:	91 e0       	ldi	r25, 0x01	; 1
    1a18:	08 c0       	rjmp	.+16     	; 0x1a2a <csp_buffer_free+0x50>
    1a1a:	80 81       	ld	r24, Z
    1a1c:	91 81       	ldd	r25, Z+1	; 0x01
    1a1e:	00 97       	sbiw	r24, 0x00	; 0
    1a20:	49 f4       	brne	.+18     	; 0x1a34 <csp_buffer_free+0x5a>
    1a22:	ff 93       	push	r31
    1a24:	ef 93       	push	r30
    1a26:	81 ec       	ldi	r24, 0xC1	; 193
    1a28:	91 e0       	ldi	r25, 0x01	; 1
    1a2a:	9f 93       	push	r25
    1a2c:	8f 93       	push	r24
    1a2e:	1f 92       	push	r1
    1a30:	e5 d3       	rcall	.+1994   	; 0x21fc <do_csp_debug>
    1a32:	2d c0       	rjmp	.+90     	; 0x1a8e <csp_buffer_free+0xb4>
    1a34:	82 30       	cpi	r24, 0x02	; 2
    1a36:	91 05       	cpc	r25, r1
    1a38:	98 f0       	brcs	.+38     	; 0x1a60 <csp_buffer_free+0x86>
    1a3a:	01 97       	sbiw	r24, 0x01	; 1
    1a3c:	91 83       	std	Z+1, r25	; 0x01
    1a3e:	80 83       	st	Z, r24
    1a40:	9f 93       	push	r25
    1a42:	8f 93       	push	r24
    1a44:	ff 93       	push	r31
    1a46:	ef 93       	push	r30
    1a48:	8e e9       	ldi	r24, 0x9E	; 158
    1a4a:	91 e0       	ldi	r25, 0x01	; 1
    1a4c:	9f 93       	push	r25
    1a4e:	8f 93       	push	r24
    1a50:	1f 92       	push	r1
    1a52:	d4 d3       	rcall	.+1960   	; 0x21fc <do_csp_debug>
    1a54:	0f b6       	in	r0, 0x3f	; 63
    1a56:	f8 94       	cli
    1a58:	de bf       	out	0x3e, r29	; 62
    1a5a:	0f be       	out	0x3f, r0	; 63
    1a5c:	cd bf       	out	0x3d, r28	; 61
    1a5e:	1c c0       	rjmp	.+56     	; 0x1a98 <csp_buffer_free+0xbe>
    1a60:	11 82       	std	Z+1, r1	; 0x01
    1a62:	10 82       	st	Z, r1
    1a64:	ff 93       	push	r31
    1a66:	ef 93       	push	r30
    1a68:	85 e9       	ldi	r24, 0x95	; 149
    1a6a:	91 e0       	ldi	r25, 0x01	; 1
    1a6c:	9f 93       	push	r25
    1a6e:	8f 93       	push	r24
    1a70:	83 e0       	ldi	r24, 0x03	; 3
    1a72:	8f 93       	push	r24
    1a74:	c3 d3       	rcall	.+1926   	; 0x21fc <do_csp_debug>
    1a76:	20 e0       	ldi	r18, 0x00	; 0
    1a78:	30 e0       	ldi	r19, 0x00	; 0
    1a7a:	a9 01       	movw	r20, r18
    1a7c:	be 01       	movw	r22, r28
    1a7e:	6f 5f       	subi	r22, 0xFF	; 255
    1a80:	7f 4f       	sbci	r23, 0xFF	; 255
    1a82:	80 91 0f 04 	lds	r24, 0x040F	; 0x80040f <csp_buffers>
    1a86:	90 91 10 04 	lds	r25, 0x0410	; 0x800410 <csp_buffers+0x1>
    1a8a:	0e 94 6f 1a 	call	0x34de	; 0x34de <csp_queue_enqueue>
    1a8e:	0f 90       	pop	r0
    1a90:	0f 90       	pop	r0
    1a92:	0f 90       	pop	r0
    1a94:	0f 90       	pop	r0
    1a96:	0f 90       	pop	r0
    1a98:	0f 90       	pop	r0
    1a9a:	0f 90       	pop	r0
    1a9c:	df 91       	pop	r29
    1a9e:	cf 91       	pop	r28
    1aa0:	08 95       	ret

00001aa2 <csp_buffer_remaining>:
    1aa2:	80 91 0f 04 	lds	r24, 0x040F	; 0x80040f <csp_buffers>
    1aa6:	90 91 10 04 	lds	r25, 0x0410	; 0x800410 <csp_buffers+0x1>
    1aaa:	0c 94 bb 1a 	jmp	0x3576	; 0x3576 <csp_queue_size>

00001aae <csp_conn_flush_rx_queue.isra.0>:
    1aae:	0f 93       	push	r16
    1ab0:	1f 93       	push	r17
    1ab2:	cf 93       	push	r28
    1ab4:	df 93       	push	r29
    1ab6:	1f 92       	push	r1
    1ab8:	1f 92       	push	r1
    1aba:	cd b7       	in	r28, 0x3d	; 61
    1abc:	de b7       	in	r29, 0x3e	; 62
    1abe:	8c 01       	movw	r16, r24
    1ac0:	20 e0       	ldi	r18, 0x00	; 0
    1ac2:	30 e0       	ldi	r19, 0x00	; 0
    1ac4:	a9 01       	movw	r20, r18
    1ac6:	be 01       	movw	r22, r28
    1ac8:	6f 5f       	subi	r22, 0xFF	; 255
    1aca:	7f 4f       	sbci	r23, 0xFF	; 255
    1acc:	f8 01       	movw	r30, r16
    1ace:	80 81       	ld	r24, Z
    1ad0:	91 81       	ldd	r25, Z+1	; 0x01
    1ad2:	0e 94 9a 1a 	call	0x3534	; 0x3534 <csp_queue_dequeue>
    1ad6:	01 97       	sbiw	r24, 0x01	; 1
    1ad8:	31 f4       	brne	.+12     	; 0x1ae6 <csp_conn_flush_rx_queue.isra.0+0x38>
    1ada:	89 81       	ldd	r24, Y+1	; 0x01
    1adc:	9a 81       	ldd	r25, Y+2	; 0x02
    1ade:	00 97       	sbiw	r24, 0x00	; 0
    1ae0:	79 f3       	breq	.-34     	; 0x1ac0 <csp_conn_flush_rx_queue.isra.0+0x12>
    1ae2:	7b df       	rcall	.-266    	; 0x19da <csp_buffer_free>
    1ae4:	ed cf       	rjmp	.-38     	; 0x1ac0 <csp_conn_flush_rx_queue.isra.0+0x12>
    1ae6:	80 e0       	ldi	r24, 0x00	; 0
    1ae8:	90 e0       	ldi	r25, 0x00	; 0
    1aea:	0f 90       	pop	r0
    1aec:	0f 90       	pop	r0
    1aee:	df 91       	pop	r29
    1af0:	cf 91       	pop	r28
    1af2:	1f 91       	pop	r17
    1af4:	0f 91       	pop	r16
    1af6:	08 95       	ret

00001af8 <csp_conn_enqueue_packet>:
    1af8:	0f 93       	push	r16
    1afa:	1f 93       	push	r17
    1afc:	cf 93       	push	r28
    1afe:	df 93       	push	r29
    1b00:	1f 92       	push	r1
    1b02:	1f 92       	push	r1
    1b04:	cd b7       	in	r28, 0x3d	; 61
    1b06:	de b7       	in	r29, 0x3e	; 62
    1b08:	7a 83       	std	Y+2, r23	; 0x02
    1b0a:	69 83       	std	Y+1, r22	; 0x01
    1b0c:	00 97       	sbiw	r24, 0x00	; 0
    1b0e:	41 f1       	breq	.+80     	; 0x1b60 <csp_conn_enqueue_packet+0x68>
    1b10:	8c 01       	movw	r16, r24
    1b12:	20 e0       	ldi	r18, 0x00	; 0
    1b14:	30 e0       	ldi	r19, 0x00	; 0
    1b16:	a9 01       	movw	r20, r18
    1b18:	be 01       	movw	r22, r28
    1b1a:	6f 5f       	subi	r22, 0xFF	; 255
    1b1c:	7f 4f       	sbci	r23, 0xFF	; 255
    1b1e:	fc 01       	movw	r30, r24
    1b20:	84 85       	ldd	r24, Z+12	; 0x0c
    1b22:	95 85       	ldd	r25, Z+13	; 0x0d
    1b24:	0e 94 6f 1a 	call	0x34de	; 0x34de <csp_queue_enqueue>
    1b28:	01 97       	sbiw	r24, 0x01	; 1
    1b2a:	e9 f0       	breq	.+58     	; 0x1b66 <csp_conn_enqueue_packet+0x6e>
    1b2c:	f8 01       	movw	r30, r16
    1b2e:	84 85       	ldd	r24, Z+12	; 0x0c
    1b30:	95 85       	ldd	r25, Z+13	; 0x0d
    1b32:	0e 94 bb 1a 	call	0x3576	; 0x3576 <csp_queue_size>
    1b36:	9f 93       	push	r25
    1b38:	8f 93       	push	r24
    1b3a:	f8 01       	movw	r30, r16
    1b3c:	85 85       	ldd	r24, Z+13	; 0x0d
    1b3e:	8f 93       	push	r24
    1b40:	84 85       	ldd	r24, Z+12	; 0x0c
    1b42:	8f 93       	push	r24
    1b44:	85 e8       	ldi	r24, 0x85	; 133
    1b46:	94 e0       	ldi	r25, 0x04	; 4
    1b48:	9f 93       	push	r25
    1b4a:	8f 93       	push	r24
    1b4c:	1f 92       	push	r1
    1b4e:	56 d3       	rcall	.+1708   	; 0x21fc <do_csp_debug>
    1b50:	0f b6       	in	r0, 0x3f	; 63
    1b52:	f8 94       	cli
    1b54:	de bf       	out	0x3e, r29	; 62
    1b56:	0f be       	out	0x3f, r0	; 63
    1b58:	cd bf       	out	0x3d, r28	; 61
    1b5a:	8f ef       	ldi	r24, 0xFF	; 255
    1b5c:	9f ef       	ldi	r25, 0xFF	; 255
    1b5e:	05 c0       	rjmp	.+10     	; 0x1b6a <csp_conn_enqueue_packet+0x72>
    1b60:	8e ef       	ldi	r24, 0xFE	; 254
    1b62:	9f ef       	ldi	r25, 0xFF	; 255
    1b64:	02 c0       	rjmp	.+4      	; 0x1b6a <csp_conn_enqueue_packet+0x72>
    1b66:	80 e0       	ldi	r24, 0x00	; 0
    1b68:	90 e0       	ldi	r25, 0x00	; 0
    1b6a:	0f 90       	pop	r0
    1b6c:	0f 90       	pop	r0
    1b6e:	df 91       	pop	r29
    1b70:	cf 91       	pop	r28
    1b72:	1f 91       	pop	r17
    1b74:	0f 91       	pop	r16
    1b76:	08 95       	ret

00001b78 <csp_conn_init>:
    1b78:	cf 93       	push	r28
    1b7a:	df 93       	push	r29
    1b7c:	0e 94 0e 22 	call	0x441c	; 0x441c <csp_get_ms>
    1b80:	cb 01       	movw	r24, r22
    1b82:	0e 94 cb 3b 	call	0x7796	; 0x7796 <srand>
    1b86:	0e 94 c8 3b 	call	0x7790	; 0x7790 <rand>
    1b8a:	60 e2       	ldi	r22, 0x20	; 32
    1b8c:	70 e0       	ldi	r23, 0x00	; 0
    1b8e:	0e 94 02 3b 	call	0x7604	; 0x7604 <__divmodhi4>
    1b92:	80 5e       	subi	r24, 0xE0	; 224
    1b94:	80 93 14 04 	sts	0x0414, r24	; 0x800414 <sport>
    1b98:	82 e1       	ldi	r24, 0x12	; 18
    1b9a:	94 e0       	ldi	r25, 0x04	; 4
    1b9c:	0e 94 d9 1d 	call	0x3bb2	; 0x3bb2 <csp_bin_sem_create>
    1ba0:	01 97       	sbiw	r24, 0x01	; 1
    1ba2:	19 f4       	brne	.+6      	; 0x1baa <csp_conn_init+0x32>
    1ba4:	c7 e1       	ldi	r28, 0x17	; 23
    1ba6:	d4 e0       	ldi	r29, 0x04	; 4
    1ba8:	08 c0       	rjmp	.+16     	; 0x1bba <csp_conn_init+0x42>
    1baa:	82 e6       	ldi	r24, 0x62	; 98
    1bac:	94 e0       	ldi	r25, 0x04	; 4
    1bae:	1f c0       	rjmp	.+62     	; 0x1bee <csp_conn_init+0x76>
    1bb0:	68 96       	adiw	r28, 0x18	; 24
    1bb2:	85 e0       	ldi	r24, 0x05	; 5
    1bb4:	c7 30       	cpi	r28, 0x07	; 7
    1bb6:	d8 07       	cpc	r29, r24
    1bb8:	91 f0       	breq	.+36     	; 0x1bde <csp_conn_init+0x66>
    1bba:	62 e0       	ldi	r22, 0x02	; 2
    1bbc:	70 e0       	ldi	r23, 0x00	; 0
    1bbe:	84 e6       	ldi	r24, 0x64	; 100
    1bc0:	90 e0       	ldi	r25, 0x00	; 0
    1bc2:	0e 94 6c 1a 	call	0x34d8	; 0x34d8 <csp_queue_create>
    1bc6:	9d 87       	std	Y+13, r25	; 0x0d
    1bc8:	8c 87       	std	Y+12, r24	; 0x0c
    1bca:	19 82       	std	Y+1, r1	; 0x01
    1bcc:	ce 01       	movw	r24, r28
    1bce:	02 96       	adiw	r24, 0x02	; 2
    1bd0:	0e 94 c7 1d 	call	0x3b8e	; 0x3b8e <csp_mutex_create>
    1bd4:	01 97       	sbiw	r24, 0x01	; 1
    1bd6:	61 f3       	breq	.-40     	; 0x1bb0 <csp_conn_init+0x38>
    1bd8:	81 e4       	ldi	r24, 0x41	; 65
    1bda:	94 e0       	ldi	r25, 0x04	; 4
    1bdc:	08 c0       	rjmp	.+16     	; 0x1bee <csp_conn_init+0x76>
    1bde:	85 e1       	ldi	r24, 0x15	; 21
    1be0:	94 e0       	ldi	r25, 0x04	; 4
    1be2:	0e 94 d9 1d 	call	0x3bb2	; 0x3bb2 <csp_bin_sem_create>
    1be6:	01 97       	sbiw	r24, 0x01	; 1
    1be8:	61 f0       	breq	.+24     	; 0x1c02 <csp_conn_init+0x8a>
    1bea:	8f e1       	ldi	r24, 0x1F	; 31
    1bec:	94 e0       	ldi	r25, 0x04	; 4
    1bee:	9f 93       	push	r25
    1bf0:	8f 93       	push	r24
    1bf2:	1f 92       	push	r1
    1bf4:	03 d3       	rcall	.+1542   	; 0x21fc <do_csp_debug>
    1bf6:	0f 90       	pop	r0
    1bf8:	0f 90       	pop	r0
    1bfa:	0f 90       	pop	r0
    1bfc:	8f ef       	ldi	r24, 0xFF	; 255
    1bfe:	9f ef       	ldi	r25, 0xFF	; 255
    1c00:	02 c0       	rjmp	.+4      	; 0x1c06 <csp_conn_init+0x8e>
    1c02:	80 e0       	ldi	r24, 0x00	; 0
    1c04:	90 e0       	ldi	r25, 0x00	; 0
    1c06:	df 91       	pop	r29
    1c08:	cf 91       	pop	r28
    1c0a:	08 95       	ret

00001c0c <csp_conn_find>:
    1c0c:	cf 92       	push	r12
    1c0e:	df 92       	push	r13
    1c10:	ef 92       	push	r14
    1c12:	ff 92       	push	r15
    1c14:	0f 93       	push	r16
    1c16:	1f 93       	push	r17
    1c18:	e7 e1       	ldi	r30, 0x17	; 23
    1c1a:	f4 e0       	ldi	r31, 0x04	; 4
    1c1c:	00 e0       	ldi	r16, 0x00	; 0
    1c1e:	10 e0       	ldi	r17, 0x00	; 0
    1c20:	a1 81       	ldd	r26, Z+1	; 0x01
    1c22:	aa 23       	and	r26, r26
    1c24:	e1 f0       	breq	.+56     	; 0x1c5e <csp_conn_find+0x52>
    1c26:	a0 81       	ld	r26, Z
    1c28:	a1 11       	cpse	r26, r1
    1c2a:	19 c0       	rjmp	.+50     	; 0x1c5e <csp_conn_find+0x52>
    1c2c:	c4 80       	ldd	r12, Z+4	; 0x04
    1c2e:	d5 80       	ldd	r13, Z+5	; 0x05
    1c30:	e6 80       	ldd	r14, Z+6	; 0x06
    1c32:	f7 80       	ldd	r15, Z+7	; 0x07
    1c34:	c6 26       	eor	r12, r22
    1c36:	d7 26       	eor	r13, r23
    1c38:	e8 26       	eor	r14, r24
    1c3a:	f9 26       	eor	r15, r25
    1c3c:	c2 22       	and	r12, r18
    1c3e:	d3 22       	and	r13, r19
    1c40:	e4 22       	and	r14, r20
    1c42:	f5 22       	and	r15, r21
    1c44:	cd 28       	or	r12, r13
    1c46:	ce 28       	or	r12, r14
    1c48:	cf 28       	or	r12, r15
    1c4a:	49 f4       	brne	.+18     	; 0x1c5e <csp_conn_find+0x52>
    1c4c:	28 e1       	ldi	r18, 0x18	; 24
    1c4e:	20 9f       	mul	r18, r16
    1c50:	c0 01       	movw	r24, r0
    1c52:	21 9f       	mul	r18, r17
    1c54:	90 0d       	add	r25, r0
    1c56:	11 24       	eor	r1, r1
    1c58:	89 5e       	subi	r24, 0xE9	; 233
    1c5a:	9b 4f       	sbci	r25, 0xFB	; 251
    1c5c:	08 c0       	rjmp	.+16     	; 0x1c6e <csp_conn_find+0x62>
    1c5e:	0f 5f       	subi	r16, 0xFF	; 255
    1c60:	1f 4f       	sbci	r17, 0xFF	; 255
    1c62:	78 96       	adiw	r30, 0x18	; 24
    1c64:	0a 30       	cpi	r16, 0x0A	; 10
    1c66:	11 05       	cpc	r17, r1
    1c68:	d9 f6       	brne	.-74     	; 0x1c20 <csp_conn_find+0x14>
    1c6a:	80 e0       	ldi	r24, 0x00	; 0
    1c6c:	90 e0       	ldi	r25, 0x00	; 0
    1c6e:	1f 91       	pop	r17
    1c70:	0f 91       	pop	r16
    1c72:	ff 90       	pop	r15
    1c74:	ef 90       	pop	r14
    1c76:	df 90       	pop	r13
    1c78:	cf 90       	pop	r12
    1c7a:	08 95       	ret

00001c7c <csp_conn_allocate>:
    1c7c:	ef 92       	push	r14
    1c7e:	ff 92       	push	r15
    1c80:	1f 93       	push	r17
    1c82:	cf 93       	push	r28
    1c84:	df 93       	push	r29
    1c86:	18 2f       	mov	r17, r24
    1c88:	44 e6       	ldi	r20, 0x64	; 100
    1c8a:	50 e0       	ldi	r21, 0x00	; 0
    1c8c:	60 e0       	ldi	r22, 0x00	; 0
    1c8e:	70 e0       	ldi	r23, 0x00	; 0
    1c90:	85 e1       	ldi	r24, 0x15	; 21
    1c92:	94 e0       	ldi	r25, 0x04	; 4
    1c94:	0e 94 f1 1d 	call	0x3be2	; 0x3be2 <csp_bin_sem_wait>
    1c98:	01 97       	sbiw	r24, 0x01	; 1
    1c9a:	39 f0       	breq	.+14     	; 0x1caa <csp_conn_allocate+0x2e>
    1c9c:	85 e0       	ldi	r24, 0x05	; 5
    1c9e:	94 e0       	ldi	r25, 0x04	; 4
    1ca0:	9f 93       	push	r25
    1ca2:	8f 93       	push	r24
    1ca4:	1f 92       	push	r1
    1ca6:	aa d2       	rcall	.+1364   	; 0x21fc <do_csp_debug>
    1ca8:	30 c0       	rjmp	.+96     	; 0x1d0a <csp_conn_allocate+0x8e>
    1caa:	80 91 11 04 	lds	r24, 0x0411	; 0x800411 <csp_conn_last_given.3262>
    1cae:	90 e0       	ldi	r25, 0x00	; 0
    1cb0:	01 96       	adiw	r24, 0x01	; 1
    1cb2:	6a e0       	ldi	r22, 0x0A	; 10
    1cb4:	70 e0       	ldi	r23, 0x00	; 0
    1cb6:	0e 94 02 3b 	call	0x7604	; 0x7604 <__divmodhi4>
    1cba:	9c 01       	movw	r18, r24
    1cbc:	ea e0       	ldi	r30, 0x0A	; 10
    1cbe:	f0 e0       	ldi	r31, 0x00	; 0
    1cc0:	d8 e1       	ldi	r29, 0x18	; 24
    1cc2:	8a e0       	ldi	r24, 0x0A	; 10
    1cc4:	e8 2e       	mov	r14, r24
    1cc6:	f1 2c       	mov	r15, r1
    1cc8:	d2 9f       	mul	r29, r18
    1cca:	d0 01       	movw	r26, r0
    1ccc:	d3 9f       	mul	r29, r19
    1cce:	b0 0d       	add	r27, r0
    1cd0:	11 24       	eor	r1, r1
    1cd2:	a9 5e       	subi	r26, 0xE9	; 233
    1cd4:	bb 4f       	sbci	r27, 0xFB	; 251
    1cd6:	11 96       	adiw	r26, 0x01	; 1
    1cd8:	cc 91       	ld	r28, X
    1cda:	cc 23       	and	r28, r28
    1cdc:	e1 f0       	breq	.+56     	; 0x1d16 <csp_conn_allocate+0x9a>
    1cde:	c9 01       	movw	r24, r18
    1ce0:	01 96       	adiw	r24, 0x01	; 1
    1ce2:	b7 01       	movw	r22, r14
    1ce4:	0e 94 02 3b 	call	0x7604	; 0x7604 <__divmodhi4>
    1ce8:	48 2f       	mov	r20, r24
    1cea:	31 97       	sbiw	r30, 0x01	; 1
    1cec:	11 f0       	breq	.+4      	; 0x1cf2 <csp_conn_allocate+0x76>
    1cee:	9c 01       	movw	r18, r24
    1cf0:	eb cf       	rjmp	.-42     	; 0x1cc8 <csp_conn_allocate+0x4c>
    1cf2:	c1 30       	cpi	r28, 0x01	; 1
    1cf4:	89 f4       	brne	.+34     	; 0x1d18 <csp_conn_allocate+0x9c>
    1cf6:	8c ee       	ldi	r24, 0xEC	; 236
    1cf8:	93 e0       	ldi	r25, 0x03	; 3
    1cfa:	9f 93       	push	r25
    1cfc:	8f 93       	push	r24
    1cfe:	1f 92       	push	r1
    1d00:	7d d2       	rcall	.+1274   	; 0x21fc <do_csp_debug>
    1d02:	85 e1       	ldi	r24, 0x15	; 21
    1d04:	94 e0       	ldi	r25, 0x04	; 4
    1d06:	0e 94 2c 1e 	call	0x3c58	; 0x3c58 <csp_bin_sem_post>
    1d0a:	0f 90       	pop	r0
    1d0c:	0f 90       	pop	r0
    1d0e:	0f 90       	pop	r0
    1d10:	80 e0       	ldi	r24, 0x00	; 0
    1d12:	90 e0       	ldi	r25, 0x00	; 0
    1d14:	15 c0       	rjmp	.+42     	; 0x1d40 <csp_conn_allocate+0xc4>
    1d16:	42 2f       	mov	r20, r18
    1d18:	88 e1       	ldi	r24, 0x18	; 24
    1d1a:	82 9f       	mul	r24, r18
    1d1c:	e0 01       	movw	r28, r0
    1d1e:	83 9f       	mul	r24, r19
    1d20:	d0 0d       	add	r29, r0
    1d22:	11 24       	eor	r1, r1
    1d24:	c9 5e       	subi	r28, 0xE9	; 233
    1d26:	db 4f       	sbci	r29, 0xFB	; 251
    1d28:	81 e0       	ldi	r24, 0x01	; 1
    1d2a:	89 83       	std	Y+1, r24	; 0x01
    1d2c:	1f 86       	std	Y+15, r1	; 0x0f
    1d2e:	1e 86       	std	Y+14, r1	; 0x0e
    1d30:	18 83       	st	Y, r17
    1d32:	40 93 11 04 	sts	0x0411, r20	; 0x800411 <csp_conn_last_given.3262>
    1d36:	85 e1       	ldi	r24, 0x15	; 21
    1d38:	94 e0       	ldi	r25, 0x04	; 4
    1d3a:	0e 94 2c 1e 	call	0x3c58	; 0x3c58 <csp_bin_sem_post>
    1d3e:	ce 01       	movw	r24, r28
    1d40:	df 91       	pop	r29
    1d42:	cf 91       	pop	r28
    1d44:	1f 91       	pop	r17
    1d46:	ff 90       	pop	r15
    1d48:	ef 90       	pop	r14
    1d4a:	08 95       	ret

00001d4c <csp_conn_new>:
    1d4c:	8f 92       	push	r8
    1d4e:	9f 92       	push	r9
    1d50:	af 92       	push	r10
    1d52:	bf 92       	push	r11
    1d54:	cf 92       	push	r12
    1d56:	df 92       	push	r13
    1d58:	ef 92       	push	r14
    1d5a:	ff 92       	push	r15
    1d5c:	cf 93       	push	r28
    1d5e:	df 93       	push	r29
    1d60:	4b 01       	movw	r8, r22
    1d62:	5c 01       	movw	r10, r24
    1d64:	69 01       	movw	r12, r18
    1d66:	7a 01       	movw	r14, r20
    1d68:	80 e0       	ldi	r24, 0x00	; 0
    1d6a:	88 df       	rcall	.-240    	; 0x1c7c <csp_conn_allocate>
    1d6c:	ec 01       	movw	r28, r24
    1d6e:	89 2b       	or	r24, r25
    1d70:	89 f0       	breq	.+34     	; 0x1d94 <csp_conn_new+0x48>
    1d72:	8c 82       	std	Y+4, r8	; 0x04
    1d74:	9d 82       	std	Y+5, r9	; 0x05
    1d76:	ae 82       	std	Y+6, r10	; 0x06
    1d78:	bf 82       	std	Y+7, r11	; 0x07
    1d7a:	c8 86       	std	Y+8, r12	; 0x08
    1d7c:	d9 86       	std	Y+9, r13	; 0x09
    1d7e:	ea 86       	std	Y+10, r14	; 0x0a
    1d80:	fb 86       	std	Y+11, r15	; 0x0b
    1d82:	0e 94 0e 22 	call	0x441c	; 0x441c <csp_get_ms>
    1d86:	68 8b       	std	Y+16, r22	; 0x10
    1d88:	79 8b       	std	Y+17, r23	; 0x11
    1d8a:	8a 8b       	std	Y+18, r24	; 0x12
    1d8c:	9b 8b       	std	Y+19, r25	; 0x13
    1d8e:	ce 01       	movw	r24, r28
    1d90:	0c 96       	adiw	r24, 0x0c	; 12
    1d92:	8d de       	rcall	.-742    	; 0x1aae <csp_conn_flush_rx_queue.isra.0>
    1d94:	ce 01       	movw	r24, r28
    1d96:	df 91       	pop	r29
    1d98:	cf 91       	pop	r28
    1d9a:	ff 90       	pop	r15
    1d9c:	ef 90       	pop	r14
    1d9e:	df 90       	pop	r13
    1da0:	cf 90       	pop	r12
    1da2:	bf 90       	pop	r11
    1da4:	af 90       	pop	r10
    1da6:	9f 90       	pop	r9
    1da8:	8f 90       	pop	r8
    1daa:	08 95       	ret

00001dac <csp_close>:
    1dac:	cf 93       	push	r28
    1dae:	df 93       	push	r29
    1db0:	ec 01       	movw	r28, r24
    1db2:	89 2b       	or	r24, r25
    1db4:	61 f4       	brne	.+24     	; 0x1dce <csp_close+0x22>
    1db6:	8c ec       	ldi	r24, 0xCC	; 204
    1db8:	93 e0       	ldi	r25, 0x03	; 3
    1dba:	9f 93       	push	r25
    1dbc:	8f 93       	push	r24
    1dbe:	1f 92       	push	r1
    1dc0:	1d d2       	rcall	.+1082   	; 0x21fc <do_csp_debug>
    1dc2:	0f 90       	pop	r0
    1dc4:	0f 90       	pop	r0
    1dc6:	0f 90       	pop	r0
    1dc8:	8e ef       	ldi	r24, 0xFE	; 254
    1dca:	9f ef       	ldi	r25, 0xFF	; 255
    1dcc:	2e c0       	rjmp	.+92     	; 0x1e2a <csp_close+0x7e>
    1dce:	89 81       	ldd	r24, Y+1	; 0x01
    1dd0:	81 11       	cpse	r24, r1
    1dd2:	0b c0       	rjmp	.+22     	; 0x1dea <csp_close+0x3e>
    1dd4:	88 eb       	ldi	r24, 0xB8	; 184
    1dd6:	93 e0       	ldi	r25, 0x03	; 3
    1dd8:	9f 93       	push	r25
    1dda:	8f 93       	push	r24
    1ddc:	85 e0       	ldi	r24, 0x05	; 5
    1dde:	8f 93       	push	r24
    1de0:	0d d2       	rcall	.+1050   	; 0x21fc <do_csp_debug>
    1de2:	0f 90       	pop	r0
    1de4:	0f 90       	pop	r0
    1de6:	0f 90       	pop	r0
    1de8:	1e c0       	rjmp	.+60     	; 0x1e26 <csp_close+0x7a>
    1dea:	44 e6       	ldi	r20, 0x64	; 100
    1dec:	50 e0       	ldi	r21, 0x00	; 0
    1dee:	60 e0       	ldi	r22, 0x00	; 0
    1df0:	70 e0       	ldi	r23, 0x00	; 0
    1df2:	85 e1       	ldi	r24, 0x15	; 21
    1df4:	94 e0       	ldi	r25, 0x04	; 4
    1df6:	0e 94 f1 1d 	call	0x3be2	; 0x3be2 <csp_bin_sem_wait>
    1dfa:	01 97       	sbiw	r24, 0x01	; 1
    1dfc:	61 f0       	breq	.+24     	; 0x1e16 <csp_close+0x6a>
    1dfe:	8e e9       	ldi	r24, 0x9E	; 158
    1e00:	93 e0       	ldi	r25, 0x03	; 3
    1e02:	9f 93       	push	r25
    1e04:	8f 93       	push	r24
    1e06:	1f 92       	push	r1
    1e08:	f9 d1       	rcall	.+1010   	; 0x21fc <do_csp_debug>
    1e0a:	0f 90       	pop	r0
    1e0c:	0f 90       	pop	r0
    1e0e:	0f 90       	pop	r0
    1e10:	8d ef       	ldi	r24, 0xFD	; 253
    1e12:	9f ef       	ldi	r25, 0xFF	; 255
    1e14:	0a c0       	rjmp	.+20     	; 0x1e2a <csp_close+0x7e>
    1e16:	19 82       	std	Y+1, r1	; 0x01
    1e18:	ce 01       	movw	r24, r28
    1e1a:	0c 96       	adiw	r24, 0x0c	; 12
    1e1c:	48 de       	rcall	.-880    	; 0x1aae <csp_conn_flush_rx_queue.isra.0>
    1e1e:	85 e1       	ldi	r24, 0x15	; 21
    1e20:	94 e0       	ldi	r25, 0x04	; 4
    1e22:	0e 94 2c 1e 	call	0x3c58	; 0x3c58 <csp_bin_sem_post>
    1e26:	80 e0       	ldi	r24, 0x00	; 0
    1e28:	90 e0       	ldi	r25, 0x00	; 0
    1e2a:	df 91       	pop	r29
    1e2c:	cf 91       	pop	r28
    1e2e:	08 95       	ret

00001e30 <csp_connect>:
    1e30:	6f 92       	push	r6
    1e32:	7f 92       	push	r7
    1e34:	8f 92       	push	r8
    1e36:	9f 92       	push	r9
    1e38:	af 92       	push	r10
    1e3a:	bf 92       	push	r11
    1e3c:	cf 92       	push	r12
    1e3e:	df 92       	push	r13
    1e40:	ef 92       	push	r14
    1e42:	ff 92       	push	r15
    1e44:	0f 93       	push	r16
    1e46:	1f 93       	push	r17
    1e48:	cf 93       	push	r28
    1e4a:	df 93       	push	r29
    1e4c:	a6 2e       	mov	r10, r22
    1e4e:	14 2f       	mov	r17, r20
    1e50:	d8 2f       	mov	r29, r24
    1e52:	d2 95       	swap	r29
    1e54:	dd 0f       	add	r29, r29
    1e56:	dd 0f       	add	r29, r29
    1e58:	d0 7c       	andi	r29, 0xC0	; 192
    1e5a:	0d 2f       	mov	r16, r29
    1e5c:	d1 d7       	rcall	.+4002   	; 0x2e00 <csp_get_address>
    1e5e:	b8 2e       	mov	r11, r24
    1e60:	b2 94       	swap	r11
    1e62:	90 ef       	ldi	r25, 0xF0	; 240
    1e64:	b9 22       	and	r11, r25
    1e66:	82 95       	swap	r24
    1e68:	81 70       	andi	r24, 0x01	; 1
    1e6a:	08 2b       	or	r16, r24
    1e6c:	8a 2d       	mov	r24, r10
    1e6e:	8f 71       	andi	r24, 0x1F	; 31
    1e70:	98 2f       	mov	r25, r24
    1e72:	99 0f       	add	r25, r25
    1e74:	09 2b       	or	r16, r25
    1e76:	c1 2f       	mov	r28, r17
    1e78:	cf 73       	andi	r28, 0x3F	; 63
    1e7a:	91 2c       	mov	r9, r1
    1e7c:	a2 94       	swap	r10
    1e7e:	20 ef       	ldi	r18, 0xF0	; 240
    1e80:	a2 22       	and	r10, r18
    1e82:	82 95       	swap	r24
    1e84:	8f 70       	andi	r24, 0x0F	; 15
    1e86:	d8 2b       	or	r29, r24
    1e88:	bb d7       	rcall	.+3958   	; 0x2e00 <csp_get_address>
    1e8a:	8f 71       	andi	r24, 0x1F	; 31
    1e8c:	88 0f       	add	r24, r24
    1e8e:	d8 2b       	or	r29, r24
    1e90:	12 95       	swap	r17
    1e92:	11 0f       	add	r17, r17
    1e94:	11 0f       	add	r17, r17
    1e96:	10 7c       	andi	r17, 0xC0	; 192
    1e98:	8c 2f       	mov	r24, r28
    1e9a:	86 95       	lsr	r24
    1e9c:	86 95       	lsr	r24
    1e9e:	a8 2a       	or	r10, r24
    1ea0:	c0 fe       	sbrs	r12, 0
    1ea2:	03 c0       	rjmp	.+6      	; 0x1eaa <csp_connect+0x7a>
    1ea4:	83 e5       	ldi	r24, 0x53	; 83
    1ea6:	93 e0       	ldi	r25, 0x03	; 3
    1ea8:	04 c0       	rjmp	.+8      	; 0x1eb2 <csp_connect+0x82>
    1eaa:	c2 fe       	sbrs	r12, 2
    1eac:	0a c0       	rjmp	.+20     	; 0x1ec2 <csp_connect+0x92>
    1eae:	88 ef       	ldi	r24, 0xF8	; 248
    1eb0:	92 e0       	ldi	r25, 0x02	; 2
    1eb2:	9f 93       	push	r25
    1eb4:	8f 93       	push	r24
    1eb6:	1f 92       	push	r1
    1eb8:	a1 d1       	rcall	.+834    	; 0x21fc <do_csp_debug>
    1eba:	0f 90       	pop	r0
    1ebc:	0f 90       	pop	r0
    1ebe:	0f 90       	pop	r0
    1ec0:	5d c0       	rjmp	.+186    	; 0x1f7c <csp_connect+0x14c>
    1ec2:	c4 fe       	sbrs	r12, 4
    1ec4:	03 c0       	rjmp	.+6      	; 0x1ecc <csp_connect+0x9c>
    1ec6:	81 ea       	ldi	r24, 0xA1	; 161
    1ec8:	92 e0       	ldi	r25, 0x02	; 2
    1eca:	f3 cf       	rjmp	.-26     	; 0x1eb2 <csp_connect+0x82>
    1ecc:	c6 fe       	sbrs	r12, 6
    1ece:	05 c0       	rjmp	.+10     	; 0x1eda <csp_connect+0xaa>
    1ed0:	99 24       	eor	r9, r9
    1ed2:	93 94       	inc	r9
    1ed4:	88 24       	eor	r8, r8
    1ed6:	83 94       	inc	r8
    1ed8:	01 c0       	rjmp	.+2      	; 0x1edc <csp_connect+0xac>
    1eda:	81 2c       	mov	r8, r1
    1edc:	48 ee       	ldi	r20, 0xE8	; 232
    1ede:	53 e0       	ldi	r21, 0x03	; 3
    1ee0:	60 e0       	ldi	r22, 0x00	; 0
    1ee2:	70 e0       	ldi	r23, 0x00	; 0
    1ee4:	82 e1       	ldi	r24, 0x12	; 18
    1ee6:	94 e0       	ldi	r25, 0x04	; 4
    1ee8:	0e 94 f1 1d 	call	0x3be2	; 0x3be2 <csp_bin_sem_wait>
    1eec:	01 97       	sbiw	r24, 0x01	; 1
    1eee:	09 f0       	breq	.+2      	; 0x1ef2 <csp_connect+0xc2>
    1ef0:	45 c0       	rjmp	.+138    	; 0x1f7c <csp_connect+0x14c>
    1ef2:	70 90 14 04 	lds	r7, 0x0414	; 0x800414 <sport>
    1ef6:	80 e2       	ldi	r24, 0x20	; 32
    1ef8:	68 2e       	mov	r6, r24
    1efa:	80 91 14 04 	lds	r24, 0x0414	; 0x800414 <sport>
    1efe:	8f 5f       	subi	r24, 0xFF	; 255
    1f00:	80 93 14 04 	sts	0x0414, r24	; 0x800414 <sport>
    1f04:	78 16       	cp	r7, r24
    1f06:	09 f1       	breq	.+66     	; 0x1f4a <csp_connect+0x11a>
    1f08:	80 34       	cpi	r24, 0x40	; 64
    1f0a:	10 f0       	brcs	.+4      	; 0x1f10 <csp_connect+0xe0>
    1f0c:	60 92 14 04 	sts	0x0414, r6	; 0x800414 <sport>
    1f10:	90 91 14 04 	lds	r25, 0x0414	; 0x800414 <sport>
    1f14:	89 2f       	mov	r24, r25
    1f16:	8f 73       	andi	r24, 0x3F	; 63
    1f18:	10 7c       	andi	r17, 0xC0	; 192
    1f1a:	18 2b       	or	r17, r24
    1f1c:	92 95       	swap	r25
    1f1e:	99 0f       	add	r25, r25
    1f20:	99 0f       	add	r25, r25
    1f22:	90 7c       	andi	r25, 0xC0	; 192
    1f24:	cf 73       	andi	r28, 0x3F	; 63
    1f26:	c9 2b       	or	r28, r25
    1f28:	86 95       	lsr	r24
    1f2a:	86 95       	lsr	r24
    1f2c:	9b 2d       	mov	r25, r11
    1f2e:	90 7f       	andi	r25, 0xF0	; 240
    1f30:	b9 2e       	mov	r11, r25
    1f32:	b8 2a       	or	r11, r24
    1f34:	20 e0       	ldi	r18, 0x00	; 0
    1f36:	30 ec       	ldi	r19, 0xC0	; 192
    1f38:	4f e0       	ldi	r20, 0x0F	; 15
    1f3a:	50 e0       	ldi	r21, 0x00	; 0
    1f3c:	69 2d       	mov	r22, r9
    1f3e:	7c 2f       	mov	r23, r28
    1f40:	8b 2d       	mov	r24, r11
    1f42:	90 2f       	mov	r25, r16
    1f44:	63 de       	rcall	.-826    	; 0x1c0c <csp_conn_find>
    1f46:	89 2b       	or	r24, r25
    1f48:	c1 f6       	brne	.-80     	; 0x1efa <csp_connect+0xca>
    1f4a:	82 e1       	ldi	r24, 0x12	; 18
    1f4c:	94 e0       	ldi	r25, 0x04	; 4
    1f4e:	0e 94 2c 1e 	call	0x3c58	; 0x3c58 <csp_bin_sem_post>
    1f52:	80 91 14 04 	lds	r24, 0x0414	; 0x800414 <sport>
    1f56:	78 16       	cp	r7, r24
    1f58:	89 f0       	breq	.+34     	; 0x1f7c <csp_connect+0x14c>
    1f5a:	28 2d       	mov	r18, r8
    1f5c:	31 2f       	mov	r19, r17
    1f5e:	4a 2d       	mov	r20, r10
    1f60:	5d 2f       	mov	r21, r29
    1f62:	69 2d       	mov	r22, r9
    1f64:	7c 2f       	mov	r23, r28
    1f66:	8b 2d       	mov	r24, r11
    1f68:	90 2f       	mov	r25, r16
    1f6a:	f0 de       	rcall	.-544    	; 0x1d4c <csp_conn_new>
    1f6c:	fc 01       	movw	r30, r24
    1f6e:	00 97       	sbiw	r24, 0x00	; 0
    1f70:	29 f0       	breq	.+10     	; 0x1f7c <csp_connect+0x14c>
    1f72:	c4 8a       	std	Z+20, r12	; 0x14
    1f74:	d5 8a       	std	Z+21, r13	; 0x15
    1f76:	e6 8a       	std	Z+22, r14	; 0x16
    1f78:	f7 8a       	std	Z+23, r15	; 0x17
    1f7a:	02 c0       	rjmp	.+4      	; 0x1f80 <csp_connect+0x150>
    1f7c:	80 e0       	ldi	r24, 0x00	; 0
    1f7e:	90 e0       	ldi	r25, 0x00	; 0
    1f80:	df 91       	pop	r29
    1f82:	cf 91       	pop	r28
    1f84:	1f 91       	pop	r17
    1f86:	0f 91       	pop	r16
    1f88:	ff 90       	pop	r15
    1f8a:	ef 90       	pop	r14
    1f8c:	df 90       	pop	r13
    1f8e:	cf 90       	pop	r12
    1f90:	bf 90       	pop	r11
    1f92:	af 90       	pop	r10
    1f94:	9f 90       	pop	r9
    1f96:	8f 90       	pop	r8
    1f98:	7f 90       	pop	r7
    1f9a:	6f 90       	pop	r6
    1f9c:	08 95       	ret

00001f9e <csp_conn_dport>:
    1f9e:	fc 01       	movw	r30, r24
    1fa0:	95 81       	ldd	r25, Z+5	; 0x05
    1fa2:	92 95       	swap	r25
    1fa4:	96 95       	lsr	r25
    1fa6:	96 95       	lsr	r25
    1fa8:	93 70       	andi	r25, 0x03	; 3
    1faa:	86 81       	ldd	r24, Z+6	; 0x06
    1fac:	8f 70       	andi	r24, 0x0F	; 15
    1fae:	88 0f       	add	r24, r24
    1fb0:	88 0f       	add	r24, r24
    1fb2:	89 2b       	or	r24, r25
    1fb4:	90 e0       	ldi	r25, 0x00	; 0
    1fb6:	08 95       	ret

00001fb8 <csp_conn_print_table>:
    1fb8:	df 92       	push	r13
    1fba:	ef 92       	push	r14
    1fbc:	ff 92       	push	r15
    1fbe:	0f 93       	push	r16
    1fc0:	1f 93       	push	r17
    1fc2:	cf 93       	push	r28
    1fc4:	df 93       	push	r29
    1fc6:	c7 e1       	ldi	r28, 0x17	; 23
    1fc8:	d4 e0       	ldi	r29, 0x04	; 4
    1fca:	00 e0       	ldi	r16, 0x00	; 0
    1fcc:	10 e0       	ldi	r17, 0x00	; 0
    1fce:	88 e1       	ldi	r24, 0x18	; 24
    1fd0:	d8 2e       	mov	r13, r24
    1fd2:	93 e7       	ldi	r25, 0x73	; 115
    1fd4:	e9 2e       	mov	r14, r25
    1fd6:	92 e0       	ldi	r25, 0x02	; 2
    1fd8:	f9 2e       	mov	r15, r25
    1fda:	8f 85       	ldd	r24, Y+15	; 0x0f
    1fdc:	8f 93       	push	r24
    1fde:	8e 85       	ldd	r24, Y+14	; 0x0e
    1fe0:	8f 93       	push	r24
    1fe2:	d0 9e       	mul	r13, r16
    1fe4:	c0 01       	movw	r24, r0
    1fe6:	d1 9e       	mul	r13, r17
    1fe8:	90 0d       	add	r25, r0
    1fea:	11 24       	eor	r1, r1
    1fec:	fc 01       	movw	r30, r24
    1fee:	e4 5e       	subi	r30, 0xE4	; 228
    1ff0:	fb 4f       	sbci	r31, 0xFB	; 251
    1ff2:	20 81       	ld	r18, Z
    1ff4:	2f 73       	andi	r18, 0x3F	; 63
    1ff6:	1f 92       	push	r1
    1ff8:	2f 93       	push	r18
    1ffa:	20 81       	ld	r18, Z
    1ffc:	32 2f       	mov	r19, r18
    1ffe:	32 95       	swap	r19
    2000:	36 95       	lsr	r19
    2002:	36 95       	lsr	r19
    2004:	33 70       	andi	r19, 0x03	; 3
    2006:	21 81       	ldd	r18, Z+1	; 0x01
    2008:	2f 70       	andi	r18, 0x0F	; 15
    200a:	22 0f       	add	r18, r18
    200c:	22 0f       	add	r18, r18
    200e:	23 2b       	or	r18, r19
    2010:	1f 92       	push	r1
    2012:	2f 93       	push	r18
    2014:	fc 01       	movw	r30, r24
    2016:	e3 5e       	subi	r30, 0xE3	; 227
    2018:	fb 4f       	sbci	r31, 0xFB	; 251
    201a:	20 81       	ld	r18, Z
    201c:	32 2f       	mov	r19, r18
    201e:	32 95       	swap	r19
    2020:	3f 70       	andi	r19, 0x0F	; 15
    2022:	21 81       	ldd	r18, Z+1	; 0x01
    2024:	21 70       	andi	r18, 0x01	; 1
    2026:	22 95       	swap	r18
    2028:	20 7f       	andi	r18, 0xF0	; 240
    202a:	23 2b       	or	r18, r19
    202c:	1f 92       	push	r1
    202e:	2f 93       	push	r18
    2030:	fc 01       	movw	r30, r24
    2032:	e2 5e       	subi	r30, 0xE2	; 226
    2034:	fb 4f       	sbci	r31, 0xFB	; 251
    2036:	80 81       	ld	r24, Z
    2038:	86 95       	lsr	r24
    203a:	8f 71       	andi	r24, 0x1F	; 31
    203c:	1f 92       	push	r1
    203e:	8f 93       	push	r24
    2040:	89 81       	ldd	r24, Y+1	; 0x01
    2042:	1f 92       	push	r1
    2044:	8f 93       	push	r24
    2046:	df 93       	push	r29
    2048:	cf 93       	push	r28
    204a:	1f 93       	push	r17
    204c:	0f 93       	push	r16
    204e:	ff 92       	push	r15
    2050:	ef 92       	push	r14
    2052:	0e 94 7f 3c 	call	0x78fe	; 0x78fe <printf_P>
    2056:	0f 5f       	subi	r16, 0xFF	; 255
    2058:	1f 4f       	sbci	r17, 0xFF	; 255
    205a:	68 96       	adiw	r28, 0x18	; 24
    205c:	8d b7       	in	r24, 0x3d	; 61
    205e:	9e b7       	in	r25, 0x3e	; 62
    2060:	42 96       	adiw	r24, 0x12	; 18
    2062:	0f b6       	in	r0, 0x3f	; 63
    2064:	f8 94       	cli
    2066:	9e bf       	out	0x3e, r25	; 62
    2068:	0f be       	out	0x3f, r0	; 63
    206a:	8d bf       	out	0x3d, r24	; 61
    206c:	0a 30       	cpi	r16, 0x0A	; 10
    206e:	11 05       	cpc	r17, r1
    2070:	09 f0       	breq	.+2      	; 0x2074 <__DATA_REGION_LENGTH__+0x74>
    2072:	b3 cf       	rjmp	.-154    	; 0x1fda <csp_conn_print_table+0x22>
    2074:	df 91       	pop	r29
    2076:	cf 91       	pop	r28
    2078:	1f 91       	pop	r17
    207a:	0f 91       	pop	r16
    207c:	ff 90       	pop	r15
    207e:	ef 90       	pop	r14
    2080:	df 90       	pop	r13
    2082:	08 95       	ret

00002084 <csp_crc32_memory>:
    2084:	8f 92       	push	r8
    2086:	9f 92       	push	r9
    2088:	af 92       	push	r10
    208a:	bf 92       	push	r11
    208c:	cf 92       	push	r12
    208e:	df 92       	push	r13
    2090:	ef 92       	push	r14
    2092:	ff 92       	push	r15
    2094:	0f 93       	push	r16
    2096:	1f 93       	push	r17
    2098:	cc 24       	eor	r12, r12
    209a:	ca 94       	dec	r12
    209c:	dc 2c       	mov	r13, r12
    209e:	76 01       	movw	r14, r12
    20a0:	41 50       	subi	r20, 0x01	; 1
    20a2:	51 09       	sbc	r21, r1
    20a4:	61 09       	sbc	r22, r1
    20a6:	71 09       	sbc	r23, r1
    20a8:	f8 f0       	brcs	.+62     	; 0x20e8 <csp_crc32_memory+0x64>
    20aa:	fc 01       	movw	r30, r24
    20ac:	21 91       	ld	r18, Z+
    20ae:	cf 01       	movw	r24, r30
    20b0:	46 01       	movw	r8, r12
    20b2:	57 01       	movw	r10, r14
    20b4:	82 26       	eor	r8, r18
    20b6:	95 01       	movw	r18, r10
    20b8:	84 01       	movw	r16, r8
    20ba:	11 27       	eor	r17, r17
    20bc:	22 27       	eor	r18, r18
    20be:	33 27       	eor	r19, r19
    20c0:	f8 01       	movw	r30, r16
    20c2:	ee 0f       	add	r30, r30
    20c4:	ff 1f       	adc	r31, r31
    20c6:	ee 0f       	add	r30, r30
    20c8:	ff 1f       	adc	r31, r31
    20ca:	ec 55       	subi	r30, 0x5C	; 92
    20cc:	fb 4f       	sbci	r31, 0xFB	; 251
    20ce:	05 91       	lpm	r16, Z+
    20d0:	15 91       	lpm	r17, Z+
    20d2:	25 91       	lpm	r18, Z+
    20d4:	34 91       	lpm	r19, Z
    20d6:	cd 2c       	mov	r12, r13
    20d8:	de 2c       	mov	r13, r14
    20da:	ef 2c       	mov	r14, r15
    20dc:	ff 24       	eor	r15, r15
    20de:	c0 26       	eor	r12, r16
    20e0:	d1 26       	eor	r13, r17
    20e2:	e2 26       	eor	r14, r18
    20e4:	f3 26       	eor	r15, r19
    20e6:	dc cf       	rjmp	.-72     	; 0x20a0 <csp_crc32_memory+0x1c>
    20e8:	c7 01       	movw	r24, r14
    20ea:	b6 01       	movw	r22, r12
    20ec:	60 95       	com	r22
    20ee:	70 95       	com	r23
    20f0:	80 95       	com	r24
    20f2:	90 95       	com	r25
    20f4:	1f 91       	pop	r17
    20f6:	0f 91       	pop	r16
    20f8:	ff 90       	pop	r15
    20fa:	ef 90       	pop	r14
    20fc:	df 90       	pop	r13
    20fe:	cf 90       	pop	r12
    2100:	bf 90       	pop	r11
    2102:	af 90       	pop	r10
    2104:	9f 90       	pop	r9
    2106:	8f 90       	pop	r8
    2108:	08 95       	ret

0000210a <csp_crc32_append>:
    210a:	cf 93       	push	r28
    210c:	df 93       	push	r29
    210e:	00 97       	sbiw	r24, 0x00	; 0
    2110:	01 f1       	breq	.+64     	; 0x2152 <csp_crc32_append+0x48>
    2112:	ec 01       	movw	r28, r24
    2114:	48 85       	ldd	r20, Y+8	; 0x08
    2116:	59 85       	ldd	r21, Y+9	; 0x09
    2118:	66 23       	and	r22, r22
    211a:	31 f0       	breq	.+12     	; 0x2128 <csp_crc32_append+0x1e>
    211c:	4c 5f       	subi	r20, 0xFC	; 252
    211e:	5f 4f       	sbci	r21, 0xFF	; 255
    2120:	60 e0       	ldi	r22, 0x00	; 0
    2122:	70 e0       	ldi	r23, 0x00	; 0
    2124:	0a 96       	adiw	r24, 0x0a	; 10
    2126:	03 c0       	rjmp	.+6      	; 0x212e <csp_crc32_append+0x24>
    2128:	60 e0       	ldi	r22, 0x00	; 0
    212a:	70 e0       	ldi	r23, 0x00	; 0
    212c:	0e 96       	adiw	r24, 0x0e	; 14
    212e:	aa df       	rcall	.-172    	; 0x2084 <csp_crc32_memory>
    2130:	c0 d0       	rcall	.+384    	; 0x22b2 <csp_hton32>
    2132:	e8 85       	ldd	r30, Y+8	; 0x08
    2134:	f9 85       	ldd	r31, Y+9	; 0x09
    2136:	ec 0f       	add	r30, r28
    2138:	fd 1f       	adc	r31, r29
    213a:	66 87       	std	Z+14, r22	; 0x0e
    213c:	77 87       	std	Z+15, r23	; 0x0f
    213e:	80 8b       	std	Z+16, r24	; 0x10
    2140:	91 8b       	std	Z+17, r25	; 0x11
    2142:	88 85       	ldd	r24, Y+8	; 0x08
    2144:	99 85       	ldd	r25, Y+9	; 0x09
    2146:	04 96       	adiw	r24, 0x04	; 4
    2148:	99 87       	std	Y+9, r25	; 0x09
    214a:	88 87       	std	Y+8, r24	; 0x08
    214c:	80 e0       	ldi	r24, 0x00	; 0
    214e:	90 e0       	ldi	r25, 0x00	; 0
    2150:	02 c0       	rjmp	.+4      	; 0x2156 <csp_crc32_append+0x4c>
    2152:	8e ef       	ldi	r24, 0xFE	; 254
    2154:	9f ef       	ldi	r25, 0xFF	; 255
    2156:	df 91       	pop	r29
    2158:	cf 91       	pop	r28
    215a:	08 95       	ret

0000215c <csp_crc32_verify>:
    215c:	ef 92       	push	r14
    215e:	ff 92       	push	r15
    2160:	0f 93       	push	r16
    2162:	1f 93       	push	r17
    2164:	cf 93       	push	r28
    2166:	df 93       	push	r29
    2168:	00 d0       	rcall	.+0      	; 0x216a <csp_crc32_verify+0xe>
    216a:	1f 92       	push	r1
    216c:	cd b7       	in	r28, 0x3d	; 61
    216e:	de b7       	in	r29, 0x3e	; 62
    2170:	00 97       	sbiw	r24, 0x00	; 0
    2172:	19 f4       	brne	.+6      	; 0x217a <csp_crc32_verify+0x1e>
    2174:	8e ef       	ldi	r24, 0xFE	; 254
    2176:	9f ef       	ldi	r25, 0xFF	; 255
    2178:	36 c0       	rjmp	.+108    	; 0x21e6 <csp_crc32_verify+0x8a>
    217a:	fc 01       	movw	r30, r24
    217c:	40 85       	ldd	r20, Z+8	; 0x08
    217e:	51 85       	ldd	r21, Z+9	; 0x09
    2180:	44 30       	cpi	r20, 0x04	; 4
    2182:	51 05       	cpc	r21, r1
    2184:	b8 f3       	brcs	.-18     	; 0x2174 <csp_crc32_verify+0x18>
    2186:	8c 01       	movw	r16, r24
    2188:	66 23       	and	r22, r22
    218a:	21 f0       	breq	.+8      	; 0x2194 <csp_crc32_verify+0x38>
    218c:	60 e0       	ldi	r22, 0x00	; 0
    218e:	70 e0       	ldi	r23, 0x00	; 0
    2190:	0a 96       	adiw	r24, 0x0a	; 10
    2192:	05 c0       	rjmp	.+10     	; 0x219e <csp_crc32_verify+0x42>
    2194:	44 50       	subi	r20, 0x04	; 4
    2196:	51 09       	sbc	r21, r1
    2198:	60 e0       	ldi	r22, 0x00	; 0
    219a:	70 e0       	ldi	r23, 0x00	; 0
    219c:	0e 96       	adiw	r24, 0x0e	; 14
    219e:	72 df       	rcall	.-284    	; 0x2084 <csp_crc32_memory>
    21a0:	69 83       	std	Y+1, r22	; 0x01
    21a2:	7a 83       	std	Y+2, r23	; 0x02
    21a4:	8b 83       	std	Y+3, r24	; 0x03
    21a6:	9c 83       	std	Y+4, r25	; 0x04
    21a8:	69 81       	ldd	r22, Y+1	; 0x01
    21aa:	7a 81       	ldd	r23, Y+2	; 0x02
    21ac:	8b 81       	ldd	r24, Y+3	; 0x03
    21ae:	9c 81       	ldd	r25, Y+4	; 0x04
    21b0:	80 d0       	rcall	.+256    	; 0x22b2 <csp_hton32>
    21b2:	69 83       	std	Y+1, r22	; 0x01
    21b4:	7a 83       	std	Y+2, r23	; 0x02
    21b6:	8b 83       	std	Y+3, r24	; 0x03
    21b8:	9c 83       	std	Y+4, r25	; 0x04
    21ba:	f8 01       	movw	r30, r16
    21bc:	e0 84       	ldd	r14, Z+8	; 0x08
    21be:	f1 84       	ldd	r15, Z+9	; 0x09
    21c0:	c8 01       	movw	r24, r16
    21c2:	8e 0d       	add	r24, r14
    21c4:	9f 1d       	adc	r25, r15
    21c6:	44 e0       	ldi	r20, 0x04	; 4
    21c8:	50 e0       	ldi	r21, 0x00	; 0
    21ca:	be 01       	movw	r22, r28
    21cc:	6f 5f       	subi	r22, 0xFF	; 255
    21ce:	7f 4f       	sbci	r23, 0xFF	; 255
    21d0:	0a 96       	adiw	r24, 0x0a	; 10
    21d2:	0e 94 d6 3b 	call	0x77ac	; 0x77ac <memcmp>
    21d6:	00 97       	sbiw	r24, 0x00	; 0
    21d8:	69 f6       	brne	.-102    	; 0x2174 <csp_crc32_verify+0x18>
    21da:	f4 e0       	ldi	r31, 0x04	; 4
    21dc:	ef 1a       	sub	r14, r31
    21de:	f1 08       	sbc	r15, r1
    21e0:	f8 01       	movw	r30, r16
    21e2:	f1 86       	std	Z+9, r15	; 0x09
    21e4:	e0 86       	std	Z+8, r14	; 0x08
    21e6:	0f 90       	pop	r0
    21e8:	0f 90       	pop	r0
    21ea:	0f 90       	pop	r0
    21ec:	0f 90       	pop	r0
    21ee:	df 91       	pop	r29
    21f0:	cf 91       	pop	r28
    21f2:	1f 91       	pop	r17
    21f4:	0f 91       	pop	r16
    21f6:	ff 90       	pop	r15
    21f8:	ef 90       	pop	r14
    21fa:	08 95       	ret

000021fc <do_csp_debug>:
    21fc:	cf 93       	push	r28
    21fe:	df 93       	push	r29
    2200:	cd b7       	in	r28, 0x3d	; 61
    2202:	de b7       	in	r29, 0x3e	; 62
    2204:	8e 81       	ldd	r24, Y+6	; 0x06
    2206:	87 30       	cpi	r24, 0x07	; 7
    2208:	08 f0       	brcs	.+2      	; 0x220c <__stack+0xd>
    220a:	48 c0       	rjmp	.+144    	; 0x229c <__stack+0x9d>
    220c:	e8 2f       	mov	r30, r24
    220e:	f0 e0       	ldi	r31, 0x00	; 0
    2210:	e6 5f       	subi	r30, 0xF6	; 246
    2212:	fd 4f       	sbci	r31, 0xFD	; 253
    2214:	90 81       	ld	r25, Z
    2216:	99 23       	and	r25, r25
    2218:	09 f4       	brne	.+2      	; 0x221c <__stack+0x1d>
    221a:	40 c0       	rjmp	.+128    	; 0x229c <__stack+0x9d>
    221c:	83 30       	cpi	r24, 0x03	; 3
    221e:	79 f0       	breq	.+30     	; 0x223e <__stack+0x3f>
    2220:	28 f4       	brcc	.+10     	; 0x222c <__stack+0x2d>
    2222:	81 30       	cpi	r24, 0x01	; 1
    2224:	51 f0       	breq	.+20     	; 0x223a <__stack+0x3b>
    2226:	82 30       	cpi	r24, 0x02	; 2
    2228:	91 f0       	breq	.+36     	; 0x224e <__stack+0x4f>
    222a:	05 c0       	rjmp	.+10     	; 0x2236 <__stack+0x37>
    222c:	85 30       	cpi	r24, 0x05	; 5
    222e:	59 f0       	breq	.+22     	; 0x2246 <__stack+0x47>
    2230:	40 f0       	brcs	.+16     	; 0x2242 <__stack+0x43>
    2232:	86 30       	cpi	r24, 0x06	; 6
    2234:	51 f0       	breq	.+20     	; 0x224a <__stack+0x4b>
    2236:	92 e1       	ldi	r25, 0x12	; 18
    2238:	0b c0       	rjmp	.+22     	; 0x2250 <__stack+0x51>
    223a:	94 e1       	ldi	r25, 0x14	; 20
    223c:	09 c0       	rjmp	.+18     	; 0x2250 <__stack+0x51>
    223e:	96 e0       	ldi	r25, 0x06	; 6
    2240:	07 c0       	rjmp	.+14     	; 0x2250 <__stack+0x51>
    2242:	93 e0       	ldi	r25, 0x03	; 3
    2244:	05 c0       	rjmp	.+10     	; 0x2250 <__stack+0x51>
    2246:	95 e0       	ldi	r25, 0x05	; 5
    2248:	03 c0       	rjmp	.+6      	; 0x2250 <__stack+0x51>
    224a:	97 e0       	ldi	r25, 0x07	; 7
    224c:	01 c0       	rjmp	.+2      	; 0x2250 <__stack+0x51>
    224e:	93 e1       	ldi	r25, 0x13	; 19
    2250:	e0 91 07 05 	lds	r30, 0x0507	; 0x800507 <csp_debug_hook_func>
    2254:	f0 91 08 05 	lds	r31, 0x0508	; 0x800508 <csp_debug_hook_func+0x1>
    2258:	30 97       	sbiw	r30, 0x00	; 0
    225a:	39 f0       	breq	.+14     	; 0x226a <__stack+0x6b>
    225c:	ae 01       	movw	r20, r28
    225e:	47 5f       	subi	r20, 0xF7	; 247
    2260:	5f 4f       	sbci	r21, 0xFF	; 255
    2262:	6f 81       	ldd	r22, Y+7	; 0x07
    2264:	78 85       	ldd	r23, Y+8	; 0x08
    2266:	19 95       	eicall
    2268:	19 c0       	rjmp	.+50     	; 0x229c <__stack+0x9d>
    226a:	89 2f       	mov	r24, r25
    226c:	0e 94 c9 21 	call	0x4392	; 0x4392 <csp_sys_set_color>
    2270:	ae 01       	movw	r20, r28
    2272:	47 5f       	subi	r20, 0xF7	; 247
    2274:	5f 4f       	sbci	r21, 0xFF	; 255
    2276:	6f 81       	ldd	r22, Y+7	; 0x07
    2278:	78 85       	ldd	r23, Y+8	; 0x08
    227a:	80 91 8d 20 	lds	r24, 0x208D	; 0x80208d <__iob+0x2>
    227e:	90 91 8e 20 	lds	r25, 0x208E	; 0x80208e <__iob+0x3>
    2282:	0e 94 10 3d 	call	0x7a20	; 0x7a20 <vfprintf_P>
    2286:	84 ea       	ldi	r24, 0xA4	; 164
    2288:	98 e0       	ldi	r25, 0x08	; 8
    228a:	9f 93       	push	r25
    228c:	8f 93       	push	r24
    228e:	0e 94 7f 3c 	call	0x78fe	; 0x78fe <printf_P>
    2292:	80 ef       	ldi	r24, 0xF0	; 240
    2294:	0e 94 c9 21 	call	0x4392	; 0x4392 <csp_sys_set_color>
    2298:	0f 90       	pop	r0
    229a:	0f 90       	pop	r0
    229c:	df 91       	pop	r29
    229e:	cf 91       	pop	r28
    22a0:	08 95       	ret

000022a2 <csp_hton16>:
    22a2:	98 27       	eor	r25, r24
    22a4:	89 27       	eor	r24, r25
    22a6:	98 27       	eor	r25, r24
    22a8:	08 95       	ret

000022aa <csp_ntoh16>:
    22aa:	98 27       	eor	r25, r24
    22ac:	89 27       	eor	r24, r25
    22ae:	98 27       	eor	r25, r24
    22b0:	08 95       	ret

000022b2 <csp_hton32>:
    22b2:	0c 94 5b 3b 	jmp	0x76b6	; 0x76b6 <__bswapsi2>
    22b6:	08 95       	ret

000022b8 <csp_ntoh32>:
    22b8:	fc cf       	rjmp	.-8      	; 0x22b2 <csp_hton32>

000022ba <csp_bytesize.constprop.0>:
    22ba:	cf 93       	push	r28
    22bc:	df 93       	push	r29
    22be:	ec 01       	movw	r28, r24
    22c0:	cb 01       	movw	r24, r22
    22c2:	ba 01       	movw	r22, r20
    22c4:	61 15       	cp	r22, r1
    22c6:	71 05       	cpc	r23, r1
    22c8:	20 e1       	ldi	r18, 0x10	; 16
    22ca:	82 07       	cpc	r24, r18
    22cc:	91 05       	cpc	r25, r1
    22ce:	50 f0       	brcs	.+20     	; 0x22e4 <csp_bytesize.constprop.0+0x2a>
    22d0:	0e 94 fd 39 	call	0x73fa	; 0x73fa <__floatunsisf>
    22d4:	20 e0       	ldi	r18, 0x00	; 0
    22d6:	30 e0       	ldi	r19, 0x00	; 0
    22d8:	40 e8       	ldi	r20, 0x80	; 128
    22da:	55 e3       	ldi	r21, 0x35	; 53
    22dc:	0e 94 3a 3a 	call	0x7474	; 0x7474 <__mulsf3>
    22e0:	2d e4       	ldi	r18, 0x4D	; 77
    22e2:	13 c0       	rjmp	.+38     	; 0x230a <csp_bytesize.constprop.0+0x50>
    22e4:	61 15       	cp	r22, r1
    22e6:	34 e0       	ldi	r19, 0x04	; 4
    22e8:	73 07       	cpc	r23, r19
    22ea:	81 05       	cpc	r24, r1
    22ec:	91 05       	cpc	r25, r1
    22ee:	50 f0       	brcs	.+20     	; 0x2304 <csp_bytesize.constprop.0+0x4a>
    22f0:	0e 94 fd 39 	call	0x73fa	; 0x73fa <__floatunsisf>
    22f4:	20 e0       	ldi	r18, 0x00	; 0
    22f6:	30 e0       	ldi	r19, 0x00	; 0
    22f8:	40 e8       	ldi	r20, 0x80	; 128
    22fa:	5a e3       	ldi	r21, 0x3A	; 58
    22fc:	0e 94 3a 3a 	call	0x7474	; 0x7474 <__mulsf3>
    2300:	2b e4       	ldi	r18, 0x4B	; 75
    2302:	03 c0       	rjmp	.+6      	; 0x230a <csp_bytesize.constprop.0+0x50>
    2304:	0e 94 fd 39 	call	0x73fa	; 0x73fa <__floatunsisf>
    2308:	22 e4       	ldi	r18, 0x42	; 66
    230a:	1f 92       	push	r1
    230c:	2f 93       	push	r18
    230e:	9f 93       	push	r25
    2310:	8f 93       	push	r24
    2312:	7f 93       	push	r23
    2314:	6f 93       	push	r22
    2316:	87 ea       	ldi	r24, 0xA7	; 167
    2318:	98 e0       	ldi	r25, 0x08	; 8
    231a:	9f 93       	push	r25
    231c:	8f 93       	push	r24
    231e:	1f 92       	push	r1
    2320:	89 e1       	ldi	r24, 0x19	; 25
    2322:	8f 93       	push	r24
    2324:	df 93       	push	r29
    2326:	cf 93       	push	r28
    2328:	0e 94 a6 3c 	call	0x794c	; 0x794c <snprintf_P>
    232c:	2d b7       	in	r18, 0x3d	; 61
    232e:	3e b7       	in	r19, 0x3e	; 62
    2330:	24 5f       	subi	r18, 0xF4	; 244
    2332:	3f 4f       	sbci	r19, 0xFF	; 255
    2334:	0f b6       	in	r0, 0x3f	; 63
    2336:	f8 94       	cli
    2338:	3e bf       	out	0x3e, r19	; 62
    233a:	0f be       	out	0x3f, r0	; 63
    233c:	2d bf       	out	0x3d, r18	; 61
    233e:	df 91       	pop	r29
    2340:	cf 91       	pop	r28
    2342:	08 95       	ret

00002344 <csp_iflist_get_by_name>:
    2344:	0f 93       	push	r16
    2346:	1f 93       	push	r17
    2348:	cf 93       	push	r28
    234a:	df 93       	push	r29
    234c:	8c 01       	movw	r16, r24
    234e:	c0 91 09 05 	lds	r28, 0x0509	; 0x800509 <interfaces>
    2352:	d0 91 0a 05 	lds	r29, 0x050A	; 0x80050a <interfaces+0x1>
    2356:	20 97       	sbiw	r28, 0x00	; 0
    2358:	69 f0       	breq	.+26     	; 0x2374 <csp_iflist_get_by_name+0x30>
    235a:	4a e0       	ldi	r20, 0x0A	; 10
    235c:	50 e0       	ldi	r21, 0x00	; 0
    235e:	b8 01       	movw	r22, r16
    2360:	88 81       	ld	r24, Y
    2362:	99 81       	ldd	r25, Y+1	; 0x01
    2364:	0e 94 fa 3b 	call	0x77f4	; 0x77f4 <strncmp>
    2368:	89 2b       	or	r24, r25
    236a:	21 f0       	breq	.+8      	; 0x2374 <csp_iflist_get_by_name+0x30>
    236c:	09 a8       	ldd	r0, Y+49	; 0x31
    236e:	da a9       	ldd	r29, Y+50	; 0x32
    2370:	c0 2d       	mov	r28, r0
    2372:	f1 cf       	rjmp	.-30     	; 0x2356 <csp_iflist_get_by_name+0x12>
    2374:	ce 01       	movw	r24, r28
    2376:	df 91       	pop	r29
    2378:	cf 91       	pop	r28
    237a:	1f 91       	pop	r17
    237c:	0f 91       	pop	r16
    237e:	08 95       	ret

00002380 <csp_iflist_add>:
    2380:	e0 91 09 05 	lds	r30, 0x0509	; 0x800509 <interfaces>
    2384:	f0 91 0a 05 	lds	r31, 0x050A	; 0x80050a <interfaces+0x1>
    2388:	30 97       	sbiw	r30, 0x00	; 0
    238a:	59 f4       	brne	.+22     	; 0x23a2 <csp_iflist_add+0x22>
    238c:	90 93 0a 05 	sts	0x050A, r25	; 0x80050a <interfaces+0x1>
    2390:	80 93 09 05 	sts	0x0509, r24	; 0x800509 <interfaces>
    2394:	0c c0       	rjmp	.+24     	; 0x23ae <csp_iflist_add+0x2e>
    2396:	21 a9       	ldd	r18, Z+49	; 0x31
    2398:	32 a9       	ldd	r19, Z+50	; 0x32
    239a:	21 15       	cp	r18, r1
    239c:	31 05       	cpc	r19, r1
    239e:	29 f0       	breq	.+10     	; 0x23aa <csp_iflist_add+0x2a>
    23a0:	f9 01       	movw	r30, r18
    23a2:	e8 17       	cp	r30, r24
    23a4:	f9 07       	cpc	r31, r25
    23a6:	b9 f7       	brne	.-18     	; 0x2396 <csp_iflist_add+0x16>
    23a8:	05 c0       	rjmp	.+10     	; 0x23b4 <csp_iflist_add+0x34>
    23aa:	92 ab       	std	Z+50, r25	; 0x32
    23ac:	81 ab       	std	Z+49, r24	; 0x31
    23ae:	fc 01       	movw	r30, r24
    23b0:	12 aa       	std	Z+50, r1	; 0x32
    23b2:	11 aa       	std	Z+49, r1	; 0x31
    23b4:	08 95       	ret

000023b6 <csp_iflist_print>:
    23b6:	af 92       	push	r10
    23b8:	bf 92       	push	r11
    23ba:	cf 92       	push	r12
    23bc:	df 92       	push	r13
    23be:	ef 92       	push	r14
    23c0:	ff 92       	push	r15
    23c2:	0f 93       	push	r16
    23c4:	1f 93       	push	r17
    23c6:	cf 93       	push	r28
    23c8:	df 93       	push	r29
    23ca:	cd b7       	in	r28, 0x3d	; 61
    23cc:	de b7       	in	r29, 0x3e	; 62
    23ce:	e2 97       	sbiw	r28, 0x32	; 50
    23d0:	0f b6       	in	r0, 0x3f	; 63
    23d2:	f8 94       	cli
    23d4:	de bf       	out	0x3e, r29	; 62
    23d6:	0f be       	out	0x3f, r0	; 63
    23d8:	cd bf       	out	0x3d, r28	; 61
    23da:	00 91 09 05 	lds	r16, 0x0509	; 0x800509 <interfaces>
    23de:	10 91 0a 05 	lds	r17, 0x050A	; 0x80050a <interfaces+0x1>
    23e2:	7e 01       	movw	r14, r28
    23e4:	8a e1       	ldi	r24, 0x1A	; 26
    23e6:	e8 0e       	add	r14, r24
    23e8:	f1 1c       	adc	r15, r1
    23ea:	fe 01       	movw	r30, r28
    23ec:	31 96       	adiw	r30, 0x01	; 1
    23ee:	6f 01       	movw	r12, r30
    23f0:	8e ea       	ldi	r24, 0xAE	; 174
    23f2:	a8 2e       	mov	r10, r24
    23f4:	88 e0       	ldi	r24, 0x08	; 8
    23f6:	b8 2e       	mov	r11, r24
    23f8:	01 15       	cp	r16, r1
    23fa:	11 05       	cpc	r17, r1
    23fc:	09 f4       	brne	.+2      	; 0x2400 <csp_iflist_print+0x4a>
    23fe:	6c c0       	rjmp	.+216    	; 0x24d8 <csp_iflist_print+0x122>
    2400:	f8 01       	movw	r30, r16
    2402:	45 a1       	ldd	r20, Z+37	; 0x25
    2404:	56 a1       	ldd	r21, Z+38	; 0x26
    2406:	67 a1       	ldd	r22, Z+39	; 0x27
    2408:	70 a5       	ldd	r23, Z+40	; 0x28
    240a:	c7 01       	movw	r24, r14
    240c:	56 df       	rcall	.-340    	; 0x22ba <csp_bytesize.constprop.0>
    240e:	f8 01       	movw	r30, r16
    2410:	41 a5       	ldd	r20, Z+41	; 0x29
    2412:	52 a5       	ldd	r21, Z+42	; 0x2a
    2414:	63 a5       	ldd	r22, Z+43	; 0x2b
    2416:	74 a5       	ldd	r23, Z+44	; 0x2c
    2418:	c6 01       	movw	r24, r12
    241a:	4f df       	rcall	.-354    	; 0x22ba <csp_bytesize.constprop.0>
    241c:	df 92       	push	r13
    241e:	cf 92       	push	r12
    2420:	f8 01       	movw	r30, r16
    2422:	84 a5       	ldd	r24, Z+44	; 0x2c
    2424:	8f 93       	push	r24
    2426:	83 a5       	ldd	r24, Z+43	; 0x2b
    2428:	8f 93       	push	r24
    242a:	82 a5       	ldd	r24, Z+42	; 0x2a
    242c:	8f 93       	push	r24
    242e:	81 a5       	ldd	r24, Z+41	; 0x29
    2430:	8f 93       	push	r24
    2432:	ff 92       	push	r15
    2434:	ef 92       	push	r14
    2436:	80 a5       	ldd	r24, Z+40	; 0x28
    2438:	8f 93       	push	r24
    243a:	87 a1       	ldd	r24, Z+39	; 0x27
    243c:	8f 93       	push	r24
    243e:	86 a1       	ldd	r24, Z+38	; 0x26
    2440:	8f 93       	push	r24
    2442:	85 a1       	ldd	r24, Z+37	; 0x25
    2444:	8f 93       	push	r24
    2446:	84 a1       	ldd	r24, Z+36	; 0x24
    2448:	8f 93       	push	r24
    244a:	83 a1       	ldd	r24, Z+35	; 0x23
    244c:	8f 93       	push	r24
    244e:	82 a1       	ldd	r24, Z+34	; 0x22
    2450:	8f 93       	push	r24
    2452:	81 a1       	ldd	r24, Z+33	; 0x21
    2454:	8f 93       	push	r24
    2456:	80 a1       	ldd	r24, Z+32	; 0x20
    2458:	8f 93       	push	r24
    245a:	87 8d       	ldd	r24, Z+31	; 0x1f
    245c:	8f 93       	push	r24
    245e:	86 8d       	ldd	r24, Z+30	; 0x1e
    2460:	8f 93       	push	r24
    2462:	85 8d       	ldd	r24, Z+29	; 0x1d
    2464:	8f 93       	push	r24
    2466:	84 8d       	ldd	r24, Z+28	; 0x1c
    2468:	8f 93       	push	r24
    246a:	83 8d       	ldd	r24, Z+27	; 0x1b
    246c:	8f 93       	push	r24
    246e:	82 8d       	ldd	r24, Z+26	; 0x1a
    2470:	8f 93       	push	r24
    2472:	81 8d       	ldd	r24, Z+25	; 0x19
    2474:	8f 93       	push	r24
    2476:	80 8d       	ldd	r24, Z+24	; 0x18
    2478:	8f 93       	push	r24
    247a:	87 89       	ldd	r24, Z+23	; 0x17
    247c:	8f 93       	push	r24
    247e:	86 89       	ldd	r24, Z+22	; 0x16
    2480:	8f 93       	push	r24
    2482:	85 89       	ldd	r24, Z+21	; 0x15
    2484:	8f 93       	push	r24
    2486:	84 89       	ldd	r24, Z+20	; 0x14
    2488:	8f 93       	push	r24
    248a:	83 89       	ldd	r24, Z+19	; 0x13
    248c:	8f 93       	push	r24
    248e:	82 89       	ldd	r24, Z+18	; 0x12
    2490:	8f 93       	push	r24
    2492:	81 89       	ldd	r24, Z+17	; 0x11
    2494:	8f 93       	push	r24
    2496:	80 89       	ldd	r24, Z+16	; 0x10
    2498:	8f 93       	push	r24
    249a:	87 85       	ldd	r24, Z+15	; 0x0f
    249c:	8f 93       	push	r24
    249e:	86 85       	ldd	r24, Z+14	; 0x0e
    24a0:	8f 93       	push	r24
    24a2:	85 85       	ldd	r24, Z+13	; 0x0d
    24a4:	8f 93       	push	r24
    24a6:	84 85       	ldd	r24, Z+12	; 0x0c
    24a8:	8f 93       	push	r24
    24aa:	83 85       	ldd	r24, Z+11	; 0x0b
    24ac:	8f 93       	push	r24
    24ae:	82 85       	ldd	r24, Z+10	; 0x0a
    24b0:	8f 93       	push	r24
    24b2:	81 85       	ldd	r24, Z+9	; 0x09
    24b4:	8f 93       	push	r24
    24b6:	81 81       	ldd	r24, Z+1	; 0x01
    24b8:	8f 93       	push	r24
    24ba:	80 81       	ld	r24, Z
    24bc:	8f 93       	push	r24
    24be:	bf 92       	push	r11
    24c0:	af 92       	push	r10
    24c2:	0e 94 7f 3c 	call	0x78fe	; 0x78fe <printf_P>
    24c6:	f8 01       	movw	r30, r16
    24c8:	01 a9       	ldd	r16, Z+49	; 0x31
    24ca:	12 a9       	ldd	r17, Z+50	; 0x32
    24cc:	0f b6       	in	r0, 0x3f	; 63
    24ce:	f8 94       	cli
    24d0:	de bf       	out	0x3e, r29	; 62
    24d2:	0f be       	out	0x3f, r0	; 63
    24d4:	cd bf       	out	0x3d, r28	; 61
    24d6:	90 cf       	rjmp	.-224    	; 0x23f8 <csp_iflist_print+0x42>
    24d8:	e2 96       	adiw	r28, 0x32	; 50
    24da:	0f b6       	in	r0, 0x3f	; 63
    24dc:	f8 94       	cli
    24de:	de bf       	out	0x3e, r29	; 62
    24e0:	0f be       	out	0x3f, r0	; 63
    24e2:	cd bf       	out	0x3d, r28	; 61
    24e4:	df 91       	pop	r29
    24e6:	cf 91       	pop	r28
    24e8:	1f 91       	pop	r17
    24ea:	0f 91       	pop	r16
    24ec:	ff 90       	pop	r15
    24ee:	ef 90       	pop	r14
    24f0:	df 90       	pop	r13
    24f2:	cf 90       	pop	r12
    24f4:	bf 90       	pop	r11
    24f6:	af 90       	pop	r10
    24f8:	08 95       	ret

000024fa <csp_can_pbuf_free>:
    24fa:	cf 93       	push	r28
    24fc:	df 93       	push	r29
    24fe:	ec 01       	movw	r28, r24
    2500:	8a 85       	ldd	r24, Y+10	; 0x0a
    2502:	9b 85       	ldd	r25, Y+11	; 0x0b
    2504:	00 97       	sbiw	r24, 0x00	; 0
    2506:	09 f0       	breq	.+2      	; 0x250a <csp_can_pbuf_free+0x10>
    2508:	68 da       	rcall	.-2864   	; 0x19da <csp_buffer_free>
    250a:	1b 86       	std	Y+11, r1	; 0x0b
    250c:	1a 86       	std	Y+10, r1	; 0x0a
    250e:	1c 86       	std	Y+12, r1	; 0x0c
    2510:	19 82       	std	Y+1, r1	; 0x01
    2512:	18 82       	st	Y, r1
    2514:	1e 82       	std	Y+6, r1	; 0x06
    2516:	1f 82       	std	Y+7, r1	; 0x07
    2518:	18 86       	std	Y+8, r1	; 0x08
    251a:	19 86       	std	Y+9, r1	; 0x09
    251c:	1d 86       	std	Y+13, r1	; 0x0d
    251e:	1e 86       	std	Y+14, r1	; 0x0e
    2520:	1f 86       	std	Y+15, r1	; 0x0f
    2522:	18 8a       	std	Y+16, r1	; 0x10
    2524:	1a 82       	std	Y+2, r1	; 0x02
    2526:	1b 82       	std	Y+3, r1	; 0x03
    2528:	1c 82       	std	Y+4, r1	; 0x04
    252a:	1d 82       	std	Y+5, r1	; 0x05
    252c:	80 e0       	ldi	r24, 0x00	; 0
    252e:	90 e0       	ldi	r25, 0x00	; 0
    2530:	df 91       	pop	r29
    2532:	cf 91       	pop	r28
    2534:	08 95       	ret

00002536 <csp_can_tx>:
    2536:	4f 92       	push	r4
    2538:	5f 92       	push	r5
    253a:	6f 92       	push	r6
    253c:	7f 92       	push	r7
    253e:	8f 92       	push	r8
    2540:	9f 92       	push	r9
    2542:	af 92       	push	r10
    2544:	bf 92       	push	r11
    2546:	cf 92       	push	r12
    2548:	df 92       	push	r13
    254a:	ef 92       	push	r14
    254c:	ff 92       	push	r15
    254e:	0f 93       	push	r16
    2550:	1f 93       	push	r17
    2552:	cf 93       	push	r28
    2554:	df 93       	push	r29
    2556:	cd b7       	in	r28, 0x3d	; 61
    2558:	de b7       	in	r29, 0x3e	; 62
    255a:	60 97       	sbiw	r28, 0x10	; 16
    255c:	0f b6       	in	r0, 0x3f	; 63
    255e:	f8 94       	cli
    2560:	de bf       	out	0x3e, r29	; 62
    2562:	0f be       	out	0x3f, r0	; 63
    2564:	cd bf       	out	0x3d, r28	; 61
    2566:	7b 01       	movw	r14, r22
    2568:	48 ee       	ldi	r20, 0xE8	; 232
    256a:	53 e0       	ldi	r21, 0x03	; 3
    256c:	60 e0       	ldi	r22, 0x00	; 0
    256e:	70 e0       	ldi	r23, 0x00	; 0
    2570:	89 eb       	ldi	r24, 0xB9	; 185
    2572:	95 e0       	ldi	r25, 0x05	; 5
    2574:	0e 94 f1 1d 	call	0x3be2	; 0x3be2 <csp_bin_sem_wait>
    2578:	01 97       	sbiw	r24, 0x01	; 1
    257a:	79 f0       	breq	.+30     	; 0x259a <csp_can_tx+0x64>
    257c:	88 e8       	ldi	r24, 0x88	; 136
    257e:	99 e0       	ldi	r25, 0x09	; 9
    2580:	9f 93       	push	r25
    2582:	8f 93       	push	r24
    2584:	81 e0       	ldi	r24, 0x01	; 1
    2586:	8f 93       	push	r24
    2588:	39 de       	rcall	.-910    	; 0x21fc <do_csp_debug>
    258a:	0f 90       	pop	r0
    258c:	0f 90       	pop	r0
    258e:	0f 90       	pop	r0
    2590:	be ef       	ldi	r27, 0xFE	; 254
    2592:	ab 2e       	mov	r10, r27
    2594:	bb 24       	eor	r11, r11
    2596:	ba 94       	dec	r11
    2598:	15 c1       	rjmp	.+554    	; 0x27c4 <csp_can_tx+0x28e>
    259a:	00 91 bb 05 	lds	r16, 0x05BB	; 0x8005bb <csp_can_id>
    259e:	10 91 bc 05 	lds	r17, 0x05BC	; 0x8005bc <csp_can_id+0x1>
    25a2:	c8 01       	movw	r24, r16
    25a4:	01 96       	adiw	r24, 0x01	; 1
    25a6:	93 70       	andi	r25, 0x03	; 3
    25a8:	90 93 bc 05 	sts	0x05BC, r25	; 0x8005bc <csp_can_id+0x1>
    25ac:	80 93 bb 05 	sts	0x05BB, r24	; 0x8005bb <csp_can_id>
    25b0:	89 eb       	ldi	r24, 0xB9	; 185
    25b2:	95 e0       	ldi	r25, 0x05	; 5
    25b4:	0e 94 2c 1e 	call	0x3c58	; 0x3c58 <csp_bin_sem_post>
    25b8:	17 fd       	sbrc	r17, 7
    25ba:	e0 cf       	rjmp	.-64     	; 0x257c <csp_can_tx+0x46>
    25bc:	d7 01       	movw	r26, r14
    25be:	1c 96       	adiw	r26, 0x0c	; 12
    25c0:	9c 91       	ld	r25, X
    25c2:	1c 97       	sbiw	r26, 0x0c	; 12
    25c4:	92 95       	swap	r25
    25c6:	9f 70       	andi	r25, 0x0F	; 15
    25c8:	1d 96       	adiw	r26, 0x0d	; 13
    25ca:	8c 91       	ld	r24, X
    25cc:	81 70       	andi	r24, 0x01	; 1
    25ce:	82 95       	swap	r24
    25d0:	80 7f       	andi	r24, 0xF0	; 240
    25d2:	89 2b       	or	r24, r25
    25d4:	0e 94 20 1d 	call	0x3a40	; 0x3a40 <csp_rtable_find_mac>
    25d8:	f7 01       	movw	r30, r14
    25da:	25 85       	ldd	r18, Z+13	; 0x0d
    25dc:	8f 3f       	cpi	r24, 0xFF	; 255
    25de:	49 f4       	brne	.+18     	; 0x25f2 <csp_can_tx+0xbc>
    25e0:	84 85       	ldd	r24, Z+12	; 0x0c
    25e2:	98 2f       	mov	r25, r24
    25e4:	92 95       	swap	r25
    25e6:	9f 70       	andi	r25, 0x0F	; 15
    25e8:	82 2f       	mov	r24, r18
    25ea:	81 70       	andi	r24, 0x01	; 1
    25ec:	82 95       	swap	r24
    25ee:	80 7f       	andi	r24, 0xF0	; 240
    25f0:	89 2b       	or	r24, r25
    25f2:	8f 71       	andi	r24, 0x1F	; 31
    25f4:	90 e0       	ldi	r25, 0x00	; 0
    25f6:	a0 e0       	ldi	r26, 0x00	; 0
    25f8:	b0 e0       	ldi	r27, 0x00	; 0
    25fa:	ac 01       	movw	r20, r24
    25fc:	bd 01       	movw	r22, r26
    25fe:	e3 e1       	ldi	r30, 0x13	; 19
    2600:	44 0f       	add	r20, r20
    2602:	55 1f       	adc	r21, r21
    2604:	66 1f       	adc	r22, r22
    2606:	77 1f       	adc	r23, r23
    2608:	ea 95       	dec	r30
    260a:	d1 f7       	brne	.-12     	; 0x2600 <csp_can_tx+0xca>
    260c:	49 87       	std	Y+9, r20	; 0x09
    260e:	5a 87       	std	Y+10, r21	; 0x0a
    2610:	6b 87       	std	Y+11, r22	; 0x0b
    2612:	7c 87       	std	Y+12, r23	; 0x0c
    2614:	13 70       	andi	r17, 0x03	; 3
    2616:	b8 01       	movw	r22, r16
    2618:	11 0f       	add	r17, r17
    261a:	88 0b       	sbc	r24, r24
    261c:	99 0b       	sbc	r25, r25
    261e:	6d 87       	std	Y+13, r22	; 0x0d
    2620:	7e 87       	std	Y+14, r23	; 0x0e
    2622:	8f 87       	std	Y+15, r24	; 0x0f
    2624:	98 8b       	std	Y+16, r25	; 0x10
    2626:	d7 01       	movw	r26, r14
    2628:	18 96       	adiw	r26, 0x08	; 8
    262a:	0d 91       	ld	r16, X+
    262c:	1c 91       	ld	r17, X
    262e:	19 97       	sbiw	r26, 0x09	; 9
    2630:	48 01       	movw	r8, r16
    2632:	b5 e0       	ldi	r27, 0x05	; 5
    2634:	8b 0e       	add	r8, r27
    2636:	91 1c       	adc	r9, r1
    2638:	f3 e0       	ldi	r31, 0x03	; 3
    263a:	96 94       	lsr	r9
    263c:	87 94       	ror	r8
    263e:	fa 95       	dec	r31
    2640:	e1 f7       	brne	.-8      	; 0x263a <csp_can_tx+0x104>
    2642:	91 2c       	mov	r9, r1
    2644:	a1 2c       	mov	r10, r1
    2646:	b1 2c       	mov	r11, r1
    2648:	aa e0       	ldi	r26, 0x0A	; 10
    264a:	88 0c       	add	r8, r8
    264c:	99 1c       	adc	r9, r9
    264e:	aa 1c       	adc	r10, r10
    2650:	bb 1c       	adc	r11, r11
    2652:	aa 95       	dec	r26
    2654:	d1 f7       	brne	.-12     	; 0x264a <csp_can_tx+0x114>
    2656:	26 95       	lsr	r18
    2658:	2f 71       	andi	r18, 0x1F	; 31
    265a:	dc 01       	movw	r26, r24
    265c:	cb 01       	movw	r24, r22
    265e:	b2 2b       	or	r27, r18
    2660:	88 2a       	or	r8, r24
    2662:	99 2a       	or	r9, r25
    2664:	aa 2a       	or	r10, r26
    2666:	bb 2a       	or	r11, r27
    2668:	49 85       	ldd	r20, Y+9	; 0x09
    266a:	5a 85       	ldd	r21, Y+10	; 0x0a
    266c:	6b 85       	ldd	r22, Y+11	; 0x0b
    266e:	7c 85       	ldd	r23, Y+12	; 0x0c
    2670:	84 2a       	or	r8, r20
    2672:	95 2a       	or	r9, r21
    2674:	a6 2a       	or	r10, r22
    2676:	b7 2a       	or	r11, r23
    2678:	03 30       	cpi	r16, 0x03	; 3
    267a:	11 05       	cpc	r17, r1
    267c:	10 f0       	brcs	.+4      	; 0x2682 <csp_can_tx+0x14c>
    267e:	02 e0       	ldi	r16, 0x02	; 2
    2680:	10 e0       	ldi	r17, 0x00	; 0
    2682:	d7 01       	movw	r26, r14
    2684:	1a 96       	adiw	r26, 0x0a	; 10
    2686:	6d 91       	ld	r22, X+
    2688:	7d 91       	ld	r23, X+
    268a:	8d 91       	ld	r24, X+
    268c:	9c 91       	ld	r25, X
    268e:	1d 97       	sbiw	r26, 0x0d	; 13
    2690:	10 de       	rcall	.-992    	; 0x22b2 <csp_hton32>
    2692:	2b 01       	movw	r4, r22
    2694:	3c 01       	movw	r6, r24
    2696:	f7 01       	movw	r30, r14
    2698:	80 85       	ldd	r24, Z+8	; 0x08
    269a:	91 85       	ldd	r25, Z+9	; 0x09
    269c:	02 de       	rcall	.-1020   	; 0x22a2 <csp_hton16>
    269e:	49 82       	std	Y+1, r4	; 0x01
    26a0:	5a 82       	std	Y+2, r5	; 0x02
    26a2:	6b 82       	std	Y+3, r6	; 0x03
    26a4:	7c 82       	std	Y+4, r7	; 0x04
    26a6:	9e 83       	std	Y+6, r25	; 0x06
    26a8:	8d 83       	std	Y+5, r24	; 0x05
    26aa:	67 01       	movw	r12, r14
    26ac:	fe e0       	ldi	r31, 0x0E	; 14
    26ae:	cf 0e       	add	r12, r31
    26b0:	d1 1c       	adc	r13, r1
    26b2:	a8 01       	movw	r20, r16
    26b4:	b6 01       	movw	r22, r12
    26b6:	ce 01       	movw	r24, r28
    26b8:	07 96       	adiw	r24, 0x07	; 7
    26ba:	0e 94 e3 3b 	call	0x77c6	; 0x77c6 <memcpy>
    26be:	26 e0       	ldi	r18, 0x06	; 6
    26c0:	20 0f       	add	r18, r16
    26c2:	ae 01       	movw	r20, r28
    26c4:	4f 5f       	subi	r20, 0xFF	; 255
    26c6:	5f 4f       	sbci	r21, 0xFF	; 255
    26c8:	c5 01       	movw	r24, r10
    26ca:	b4 01       	movw	r22, r8
    26cc:	0e 94 49 0a 	call	0x1492	; 0x1492 <can_send>
    26d0:	5c 01       	movw	r10, r24
    26d2:	89 2b       	or	r24, r25
    26d4:	49 f0       	breq	.+18     	; 0x26e8 <csp_can_tx+0x1b2>
    26d6:	81 e6       	ldi	r24, 0x61	; 97
    26d8:	99 e0       	ldi	r25, 0x09	; 9
    26da:	9f 93       	push	r25
    26dc:	8f 93       	push	r24
    26de:	81 e0       	ldi	r24, 0x01	; 1
    26e0:	8f 93       	push	r24
    26e2:	8c dd       	rcall	.-1256   	; 0x21fc <do_csp_debug>
    26e4:	65 c0       	rjmp	.+202    	; 0x27b0 <csp_can_tx+0x27a>
    26e6:	84 01       	movw	r16, r8
    26e8:	d7 01       	movw	r26, r14
    26ea:	18 96       	adiw	r26, 0x08	; 8
    26ec:	4d 91       	ld	r20, X+
    26ee:	5c 91       	ld	r21, X
    26f0:	19 97       	sbiw	r26, 0x09	; 9
    26f2:	04 17       	cp	r16, r20
    26f4:	15 07       	cpc	r17, r21
    26f6:	08 f0       	brcs	.+2      	; 0x26fa <csp_can_tx+0x1c4>
    26f8:	63 c0       	rjmp	.+198    	; 0x27c0 <csp_can_tx+0x28a>
    26fa:	40 1b       	sub	r20, r16
    26fc:	51 0b       	sbc	r21, r17
    26fe:	9a 01       	movw	r18, r20
    2700:	49 30       	cpi	r20, 0x09	; 9
    2702:	51 05       	cpc	r21, r1
    2704:	10 f0       	brcs	.+4      	; 0x270a <csp_can_tx+0x1d4>
    2706:	28 e0       	ldi	r18, 0x08	; 8
    2708:	30 e0       	ldi	r19, 0x00	; 0
    270a:	d7 01       	movw	r26, r14
    270c:	1d 96       	adiw	r26, 0x0d	; 13
    270e:	8c 91       	ld	r24, X
    2710:	86 95       	lsr	r24
    2712:	8f 71       	andi	r24, 0x1F	; 31
    2714:	4d 84       	ldd	r4, Y+13	; 0x0d
    2716:	5e 84       	ldd	r5, Y+14	; 0x0e
    2718:	6f 84       	ldd	r6, Y+15	; 0x0f
    271a:	78 88       	ldd	r7, Y+16	; 0x10
    271c:	78 2a       	or	r7, r24
    271e:	68 94       	set
    2720:	62 f8       	bld	r6, 2
    2722:	69 85       	ldd	r22, Y+9	; 0x09
    2724:	7a 85       	ldd	r23, Y+10	; 0x0a
    2726:	8b 85       	ldd	r24, Y+11	; 0x0b
    2728:	9c 85       	ldd	r25, Y+12	; 0x0c
    272a:	46 2a       	or	r4, r22
    272c:	57 2a       	or	r5, r23
    272e:	68 2a       	or	r6, r24
    2730:	79 2a       	or	r7, r25
    2732:	48 01       	movw	r8, r16
    2734:	82 0e       	add	r8, r18
    2736:	93 1e       	adc	r9, r19
    2738:	0c 0d       	add	r16, r12
    273a:	1d 1d       	adc	r17, r13
    273c:	49 5f       	subi	r20, 0xF9	; 249
    273e:	5f 4f       	sbci	r21, 0xFF	; 255
    2740:	42 1b       	sub	r20, r18
    2742:	53 0b       	sbc	r21, r19
    2744:	ca 01       	movw	r24, r20
    2746:	33 e0       	ldi	r19, 0x03	; 3
    2748:	96 95       	lsr	r25
    274a:	87 95       	ror	r24
    274c:	3a 95       	dec	r19
    274e:	e1 f7       	brne	.-8      	; 0x2748 <csp_can_tx+0x212>
    2750:	90 e0       	ldi	r25, 0x00	; 0
    2752:	a0 e0       	ldi	r26, 0x00	; 0
    2754:	b0 e0       	ldi	r27, 0x00	; 0
    2756:	4a e0       	ldi	r20, 0x0A	; 10
    2758:	88 0f       	add	r24, r24
    275a:	99 1f       	adc	r25, r25
    275c:	aa 1f       	adc	r26, r26
    275e:	bb 1f       	adc	r27, r27
    2760:	4a 95       	dec	r20
    2762:	d1 f7       	brne	.-12     	; 0x2758 <csp_can_tx+0x222>
    2764:	bc 01       	movw	r22, r24
    2766:	cd 01       	movw	r24, r26
    2768:	64 29       	or	r22, r4
    276a:	75 29       	or	r23, r5
    276c:	86 29       	or	r24, r6
    276e:	97 29       	or	r25, r7
    2770:	a8 01       	movw	r20, r16
    2772:	0e 94 49 0a 	call	0x1492	; 0x1492 <can_send>
    2776:	89 2b       	or	r24, r25
    2778:	09 f4       	brne	.+2      	; 0x277c <csp_can_tx+0x246>
    277a:	b5 cf       	rjmp	.-150    	; 0x26e6 <csp_can_tx+0x1b0>
    277c:	89 e3       	ldi	r24, 0x39	; 57
    277e:	99 e0       	ldi	r25, 0x09	; 9
    2780:	9f 93       	push	r25
    2782:	8f 93       	push	r24
    2784:	81 e0       	ldi	r24, 0x01	; 1
    2786:	8f 93       	push	r24
    2788:	39 dd       	rcall	.-1422   	; 0x21fc <do_csp_debug>
    278a:	80 91 22 02 	lds	r24, 0x0222	; 0x800222 <csp_if_can+0x11>
    278e:	90 91 23 02 	lds	r25, 0x0223	; 0x800223 <csp_if_can+0x12>
    2792:	a0 91 24 02 	lds	r26, 0x0224	; 0x800224 <csp_if_can+0x13>
    2796:	b0 91 25 02 	lds	r27, 0x0225	; 0x800225 <csp_if_can+0x14>
    279a:	01 96       	adiw	r24, 0x01	; 1
    279c:	a1 1d       	adc	r26, r1
    279e:	b1 1d       	adc	r27, r1
    27a0:	80 93 22 02 	sts	0x0222, r24	; 0x800222 <csp_if_can+0x11>
    27a4:	90 93 23 02 	sts	0x0223, r25	; 0x800223 <csp_if_can+0x12>
    27a8:	a0 93 24 02 	sts	0x0224, r26	; 0x800224 <csp_if_can+0x13>
    27ac:	b0 93 25 02 	sts	0x0225, r27	; 0x800225 <csp_if_can+0x14>
    27b0:	0f 90       	pop	r0
    27b2:	0f 90       	pop	r0
    27b4:	0f 90       	pop	r0
    27b6:	85 ef       	ldi	r24, 0xF5	; 245
    27b8:	a8 2e       	mov	r10, r24
    27ba:	bb 24       	eor	r11, r11
    27bc:	ba 94       	dec	r11
    27be:	02 c0       	rjmp	.+4      	; 0x27c4 <csp_can_tx+0x28e>
    27c0:	c7 01       	movw	r24, r14
    27c2:	0b d9       	rcall	.-3562   	; 0x19da <csp_buffer_free>
    27c4:	c5 01       	movw	r24, r10
    27c6:	60 96       	adiw	r28, 0x10	; 16
    27c8:	0f b6       	in	r0, 0x3f	; 63
    27ca:	f8 94       	cli
    27cc:	de bf       	out	0x3e, r29	; 62
    27ce:	0f be       	out	0x3f, r0	; 63
    27d0:	cd bf       	out	0x3d, r28	; 61
    27d2:	df 91       	pop	r29
    27d4:	cf 91       	pop	r28
    27d6:	1f 91       	pop	r17
    27d8:	0f 91       	pop	r16
    27da:	ff 90       	pop	r15
    27dc:	ef 90       	pop	r14
    27de:	df 90       	pop	r13
    27e0:	cf 90       	pop	r12
    27e2:	bf 90       	pop	r11
    27e4:	af 90       	pop	r10
    27e6:	9f 90       	pop	r9
    27e8:	8f 90       	pop	r8
    27ea:	7f 90       	pop	r7
    27ec:	6f 90       	pop	r6
    27ee:	5f 90       	pop	r5
    27f0:	4f 90       	pop	r4
    27f2:	08 95       	ret

000027f4 <csp_can_rx_task>:
    27f4:	cf 93       	push	r28
    27f6:	df 93       	push	r29
    27f8:	cd b7       	in	r28, 0x3d	; 61
    27fa:	de b7       	in	r29, 0x3e	; 62
    27fc:	2d 97       	sbiw	r28, 0x0d	; 13
    27fe:	0f b6       	in	r0, 0x3f	; 63
    2800:	f8 94       	cli
    2802:	de bf       	out	0x3e, r29	; 62
    2804:	0f be       	out	0x3f, r0	; 63
    2806:	cd bf       	out	0x3d, r28	; 61
    2808:	50 e3       	ldi	r21, 0x30	; 48
    280a:	25 2e       	mov	r2, r21
    280c:	5a e0       	ldi	r21, 0x0A	; 10
    280e:	35 2e       	mov	r3, r21
    2810:	61 e4       	ldi	r22, 0x41	; 65
    2812:	46 2e       	mov	r4, r22
    2814:	6a e0       	ldi	r22, 0x0A	; 10
    2816:	56 2e       	mov	r5, r22
    2818:	7c e5       	ldi	r23, 0x5C	; 92
    281a:	67 2e       	mov	r6, r23
    281c:	7a e0       	ldi	r23, 0x0A	; 10
    281e:	77 2e       	mov	r7, r23
    2820:	e0 ea       	ldi	r30, 0xA0	; 160
    2822:	ee 2e       	mov	r14, r30
    2824:	ea e0       	ldi	r30, 0x0A	; 10
    2826:	fe 2e       	mov	r15, r30
    2828:	80 e0       	ldi	r24, 0x00	; 0
    282a:	90 e0       	ldi	r25, 0x00	; 0
    282c:	0e 94 54 36 	call	0x6ca8	; 0x6ca8 <uxTaskGetStackHighWaterMark2>
    2830:	18 2f       	mov	r17, r24
    2832:	09 2f       	mov	r16, r25
    2834:	80 e0       	ldi	r24, 0x00	; 0
    2836:	90 e0       	ldi	r25, 0x00	; 0
    2838:	0e 94 8e 32 	call	0x651c	; 0x651c <pcTaskGetName>
    283c:	0f 93       	push	r16
    283e:	1f 93       	push	r17
    2840:	9f 93       	push	r25
    2842:	8f 93       	push	r24
    2844:	2d eb       	ldi	r18, 0xBD	; 189
    2846:	3a e0       	ldi	r19, 0x0A	; 10
    2848:	3f 93       	push	r19
    284a:	2f 93       	push	r18
    284c:	82 e0       	ldi	r24, 0x02	; 2
    284e:	8f 93       	push	r24
    2850:	d5 dc       	rcall	.-1622   	; 0x21fc <do_csp_debug>
    2852:	28 ee       	ldi	r18, 0xE8	; 232
    2854:	33 e0       	ldi	r19, 0x03	; 3
    2856:	40 e0       	ldi	r20, 0x00	; 0
    2858:	50 e0       	ldi	r21, 0x00	; 0
    285a:	be 01       	movw	r22, r28
    285c:	6f 5f       	subi	r22, 0xFF	; 255
    285e:	7f 4f       	sbci	r23, 0xFF	; 255
    2860:	80 91 b5 05 	lds	r24, 0x05B5	; 0x8005b5 <csp_can_rx_queue>
    2864:	90 91 b6 05 	lds	r25, 0x05B6	; 0x8005b6 <csp_can_rx_queue+0x1>
    2868:	65 d6       	rcall	.+3274   	; 0x3534 <csp_queue_dequeue>
    286a:	0f b6       	in	r0, 0x3f	; 63
    286c:	f8 94       	cli
    286e:	de bf       	out	0x3e, r29	; 62
    2870:	0f be       	out	0x3f, r0	; 63
    2872:	cd bf       	out	0x3d, r28	; 61
    2874:	01 97       	sbiw	r24, 0x01	; 1
    2876:	71 f1       	breq	.+92     	; 0x28d4 <csp_can_rx_task+0xe0>
    2878:	0b e0       	ldi	r16, 0x0B	; 11
    287a:	15 e0       	ldi	r17, 0x05	; 5
    287c:	45 eb       	ldi	r20, 0xB5	; 181
    287e:	c4 2e       	mov	r12, r20
    2880:	45 e0       	ldi	r20, 0x05	; 5
    2882:	d4 2e       	mov	r13, r20
    2884:	f8 01       	movw	r30, r16
    2886:	b4 84       	ldd	r11, Z+12	; 0x0c
    2888:	f1 e0       	ldi	r31, 0x01	; 1
    288a:	bf 12       	cpse	r11, r31
    288c:	1d c0       	rjmp	.+58     	; 0x28c8 <csp_can_rx_task+0xd4>
    288e:	0e 94 0e 22 	call	0x441c	; 0x441c <csp_get_ms>
    2892:	d8 01       	movw	r26, r16
    2894:	1d 96       	adiw	r26, 0x0d	; 13
    2896:	2d 91       	ld	r18, X+
    2898:	3d 91       	ld	r19, X+
    289a:	4d 91       	ld	r20, X+
    289c:	5c 91       	ld	r21, X
    289e:	50 97       	sbiw	r26, 0x10	; 16
    28a0:	dc 01       	movw	r26, r24
    28a2:	cb 01       	movw	r24, r22
    28a4:	82 1b       	sub	r24, r18
    28a6:	93 0b       	sbc	r25, r19
    28a8:	a4 0b       	sbc	r26, r20
    28aa:	b5 0b       	sbc	r27, r21
    28ac:	81 3d       	cpi	r24, 0xD1	; 209
    28ae:	97 40       	sbci	r25, 0x07	; 7
    28b0:	a1 05       	cpc	r26, r1
    28b2:	b1 05       	cpc	r27, r1
    28b4:	48 f0       	brcs	.+18     	; 0x28c8 <csp_can_rx_task+0xd4>
    28b6:	ff 92       	push	r15
    28b8:	ef 92       	push	r14
    28ba:	bf 92       	push	r11
    28bc:	9f dc       	rcall	.-1730   	; 0x21fc <do_csp_debug>
    28be:	c8 01       	movw	r24, r16
    28c0:	1c de       	rcall	.-968    	; 0x24fa <csp_can_pbuf_free>
    28c2:	0f 90       	pop	r0
    28c4:	0f 90       	pop	r0
    28c6:	0f 90       	pop	r0
    28c8:	0f 5e       	subi	r16, 0xEF	; 239
    28ca:	1f 4f       	sbci	r17, 0xFF	; 255
    28cc:	c0 16       	cp	r12, r16
    28ce:	d1 06       	cpc	r13, r17
    28d0:	c9 f6       	brne	.-78     	; 0x2884 <csp_can_rx_task+0x90>
    28d2:	aa cf       	rjmp	.-172    	; 0x2828 <csp_can_rx_task+0x34>
    28d4:	89 80       	ldd	r8, Y+1	; 0x01
    28d6:	9a 80       	ldd	r9, Y+2	; 0x02
    28d8:	ab 80       	ldd	r10, Y+3	; 0x03
    28da:	bc 80       	ldd	r11, Y+4	; 0x04
    28dc:	ab e0       	ldi	r26, 0x0B	; 11
    28de:	b5 e0       	ldi	r27, 0x05	; 5
    28e0:	fd 01       	movw	r30, r26
    28e2:	80 e0       	ldi	r24, 0x00	; 0
    28e4:	90 e0       	ldi	r25, 0x00	; 0
    28e6:	24 85       	ldd	r18, Z+12	; 0x0c
    28e8:	21 30       	cpi	r18, 0x01	; 1
    28ea:	c1 f4       	brne	.+48     	; 0x291c <csp_can_rx_task+0x128>
    28ec:	46 81       	ldd	r20, Z+6	; 0x06
    28ee:	57 81       	ldd	r21, Z+7	; 0x07
    28f0:	60 85       	ldd	r22, Z+8	; 0x08
    28f2:	71 85       	ldd	r23, Z+9	; 0x09
    28f4:	48 25       	eor	r20, r8
    28f6:	59 25       	eor	r21, r9
    28f8:	6a 25       	eor	r22, r10
    28fa:	7b 25       	eor	r23, r11
    28fc:	53 70       	andi	r21, 0x03	; 3
    28fe:	68 7f       	andi	r22, 0xF8	; 248
    2900:	7f 71       	andi	r23, 0x1F	; 31
    2902:	45 2b       	or	r20, r21
    2904:	46 2b       	or	r20, r22
    2906:	47 2b       	or	r20, r23
    2908:	49 f4       	brne	.+18     	; 0x291c <csp_can_rx_task+0x128>
    290a:	21 e1       	ldi	r18, 0x11	; 17
    290c:	28 9f       	mul	r18, r24
    290e:	80 01       	movw	r16, r0
    2910:	29 9f       	mul	r18, r25
    2912:	10 0d       	add	r17, r0
    2914:	11 24       	eor	r1, r1
    2916:	05 5f       	subi	r16, 0xF5	; 245
    2918:	1a 4f       	sbci	r17, 0xFA	; 250
    291a:	21 c0       	rjmp	.+66     	; 0x295e <csp_can_rx_task+0x16a>
    291c:	01 96       	adiw	r24, 0x01	; 1
    291e:	71 96       	adiw	r30, 0x11	; 17
    2920:	8a 30       	cpi	r24, 0x0A	; 10
    2922:	91 05       	cpc	r25, r1
    2924:	01 f7       	brne	.-64     	; 0x28e6 <csp_can_rx_task+0xf2>
    2926:	a2 fc       	sbrc	r10, 2
    2928:	6b c1       	rjmp	.+726    	; 0x2c00 <csp_can_rx_task+0x40c>
    292a:	80 e0       	ldi	r24, 0x00	; 0
    292c:	90 e0       	ldi	r25, 0x00	; 0
    292e:	1c 96       	adiw	r26, 0x0c	; 12
    2930:	2c 91       	ld	r18, X
    2932:	1c 97       	sbiw	r26, 0x0c	; 12
    2934:	21 11       	cpse	r18, r1
    2936:	43 c1       	rjmp	.+646    	; 0x2bbe <csp_can_rx_task+0x3ca>
    2938:	21 e1       	ldi	r18, 0x11	; 17
    293a:	28 9f       	mul	r18, r24
    293c:	80 01       	movw	r16, r0
    293e:	29 9f       	mul	r18, r25
    2940:	10 0d       	add	r17, r0
    2942:	11 24       	eor	r1, r1
    2944:	05 5f       	subi	r16, 0xF5	; 245
    2946:	1a 4f       	sbci	r17, 0xFA	; 250
    2948:	81 e0       	ldi	r24, 0x01	; 1
    294a:	f8 01       	movw	r30, r16
    294c:	84 87       	std	Z+12, r24	; 0x0c
    294e:	86 82       	std	Z+6, r8	; 0x06
    2950:	97 82       	std	Z+7, r9	; 0x07
    2952:	a0 86       	std	Z+8, r10	; 0x08
    2954:	b1 86       	std	Z+9, r11	; 0x09
    2956:	12 82       	std	Z+2, r1	; 0x02
    2958:	13 82       	std	Z+3, r1	; 0x03
    295a:	14 82       	std	Z+4, r1	; 0x04
    295c:	15 82       	std	Z+5, r1	; 0x05
    295e:	0e 94 0e 22 	call	0x441c	; 0x441c <csp_get_ms>
    2962:	d8 01       	movw	r26, r16
    2964:	1d 96       	adiw	r26, 0x0d	; 13
    2966:	6d 93       	st	X+, r22
    2968:	7d 93       	st	X+, r23
    296a:	8d 93       	st	X+, r24
    296c:	9c 93       	st	X, r25
    296e:	50 97       	sbiw	r26, 0x10	; 16
    2970:	d5 01       	movw	r26, r10
    2972:	c4 01       	movw	r24, r8
    2974:	32 e1       	ldi	r19, 0x12	; 18
    2976:	b6 95       	lsr	r27
    2978:	a7 95       	ror	r26
    297a:	97 95       	ror	r25
    297c:	87 95       	ror	r24
    297e:	3a 95       	dec	r19
    2980:	d1 f7       	brne	.-12     	; 0x2976 <csp_can_rx_task+0x182>
    2982:	80 fd       	sbrc	r24, 0
    2984:	82 c0       	rjmp	.+260    	; 0x2a8a <csp_can_rx_task+0x296>
    2986:	8d 81       	ldd	r24, Y+5	; 0x05
    2988:	86 30       	cpi	r24, 0x06	; 6
    298a:	28 f4       	brcc	.+10     	; 0x2996 <csp_can_rx_task+0x1a2>
    298c:	5f 92       	push	r5
    298e:	4f 92       	push	r4
    2990:	81 e0       	ldi	r24, 0x01	; 1
    2992:	8f 93       	push	r24
    2994:	ca c0       	rjmp	.+404    	; 0x2b2a <csp_can_rx_task+0x336>
    2996:	f8 01       	movw	r30, r16
    2998:	82 85       	ldd	r24, Z+10	; 0x0a
    299a:	93 85       	ldd	r25, Z+11	; 0x0b
    299c:	89 2b       	or	r24, r25
    299e:	e1 f0       	breq	.+56     	; 0x29d8 <csp_can_rx_task+0x1e4>
    29a0:	3f 92       	push	r3
    29a2:	2f 92       	push	r2
    29a4:	81 e0       	ldi	r24, 0x01	; 1
    29a6:	8f 93       	push	r24
    29a8:	29 dc       	rcall	.-1966   	; 0x21fc <do_csp_debug>
    29aa:	80 91 32 02 	lds	r24, 0x0232	; 0x800232 <csp_if_can+0x21>
    29ae:	90 91 33 02 	lds	r25, 0x0233	; 0x800233 <csp_if_can+0x22>
    29b2:	a0 91 34 02 	lds	r26, 0x0234	; 0x800234 <csp_if_can+0x23>
    29b6:	b0 91 35 02 	lds	r27, 0x0235	; 0x800235 <csp_if_can+0x24>
    29ba:	01 96       	adiw	r24, 0x01	; 1
    29bc:	a1 1d       	adc	r26, r1
    29be:	b1 1d       	adc	r27, r1
    29c0:	80 93 32 02 	sts	0x0232, r24	; 0x800232 <csp_if_can+0x21>
    29c4:	90 93 33 02 	sts	0x0233, r25	; 0x800233 <csp_if_can+0x22>
    29c8:	a0 93 34 02 	sts	0x0234, r26	; 0x800234 <csp_if_can+0x23>
    29cc:	b0 93 35 02 	sts	0x0235, r27	; 0x800235 <csp_if_can+0x24>
    29d0:	0f 90       	pop	r0
    29d2:	0f 90       	pop	r0
    29d4:	0f 90       	pop	r0
    29d6:	0e c0       	rjmp	.+28     	; 0x29f4 <csp_can_rx_task+0x200>
    29d8:	82 e3       	ldi	r24, 0x32	; 50
    29da:	90 e0       	ldi	r25, 0x00	; 0
    29dc:	0e 94 59 0c 	call	0x18b2	; 0x18b2 <csp_buffer_get>
    29e0:	d8 01       	movw	r26, r16
    29e2:	1b 96       	adiw	r26, 0x0b	; 11
    29e4:	9c 93       	st	X, r25
    29e6:	8e 93       	st	-X, r24
    29e8:	1a 97       	sbiw	r26, 0x0a	; 10
    29ea:	89 2b       	or	r24, r25
    29ec:	19 f4       	brne	.+6      	; 0x29f4 <csp_can_rx_task+0x200>
    29ee:	e6 e0       	ldi	r30, 0x06	; 6
    29f0:	fa e0       	ldi	r31, 0x0A	; 10
    29f2:	98 c0       	rjmp	.+304    	; 0x2b24 <csp_can_rx_task+0x330>
    29f4:	f8 01       	movw	r30, r16
    29f6:	a2 85       	ldd	r26, Z+10	; 0x0a
    29f8:	b3 85       	ldd	r27, Z+11	; 0x0b
    29fa:	1a 96       	adiw	r26, 0x0a	; 10
    29fc:	84 e0       	ldi	r24, 0x04	; 4
    29fe:	fe 01       	movw	r30, r28
    2a00:	36 96       	adiw	r30, 0x06	; 6
    2a02:	01 90       	ld	r0, Z+
    2a04:	0d 92       	st	X+, r0
    2a06:	8a 95       	dec	r24
    2a08:	e1 f7       	brne	.-8      	; 0x2a02 <csp_can_rx_task+0x20e>
    2a0a:	d8 01       	movw	r26, r16
    2a0c:	1a 96       	adiw	r26, 0x0a	; 10
    2a0e:	cd 90       	ld	r12, X+
    2a10:	dc 90       	ld	r13, X
    2a12:	1b 97       	sbiw	r26, 0x0b	; 11
    2a14:	f6 01       	movw	r30, r12
    2a16:	62 85       	ldd	r22, Z+10	; 0x0a
    2a18:	73 85       	ldd	r23, Z+11	; 0x0b
    2a1a:	84 85       	ldd	r24, Z+12	; 0x0c
    2a1c:	95 85       	ldd	r25, Z+13	; 0x0d
    2a1e:	4c dc       	rcall	.-1896   	; 0x22b8 <csp_ntoh32>
    2a20:	d6 01       	movw	r26, r12
    2a22:	1a 96       	adiw	r26, 0x0a	; 10
    2a24:	6d 93       	st	X+, r22
    2a26:	7d 93       	st	X+, r23
    2a28:	8d 93       	st	X+, r24
    2a2a:	9c 93       	st	X, r25
    2a2c:	1d 97       	sbiw	r26, 0x0d	; 13
    2a2e:	d8 01       	movw	r26, r16
    2a30:	1a 96       	adiw	r26, 0x0a	; 10
    2a32:	ed 91       	ld	r30, X+
    2a34:	fc 91       	ld	r31, X
    2a36:	1b 97       	sbiw	r26, 0x0b	; 11
    2a38:	8a 85       	ldd	r24, Y+10	; 0x0a
    2a3a:	9b 85       	ldd	r25, Y+11	; 0x0b
    2a3c:	91 87       	std	Z+9, r25	; 0x09
    2a3e:	80 87       	std	Z+8, r24	; 0x08
    2a40:	1a 96       	adiw	r26, 0x0a	; 10
    2a42:	cd 90       	ld	r12, X+
    2a44:	dc 90       	ld	r13, X
    2a46:	1b 97       	sbiw	r26, 0x0b	; 11
    2a48:	f6 01       	movw	r30, r12
    2a4a:	80 85       	ldd	r24, Z+8	; 0x08
    2a4c:	91 85       	ldd	r25, Z+9	; 0x09
    2a4e:	2d dc       	rcall	.-1958   	; 0x22aa <csp_ntoh16>
    2a50:	d6 01       	movw	r26, r12
    2a52:	19 96       	adiw	r26, 0x09	; 9
    2a54:	9c 93       	st	X, r25
    2a56:	8e 93       	st	-X, r24
    2a58:	18 97       	sbiw	r26, 0x08	; 8
    2a5a:	f8 01       	movw	r30, r16
    2a5c:	11 82       	std	Z+1, r1	; 0x01
    2a5e:	10 82       	st	Z, r1
    2a60:	d5 01       	movw	r26, r10
    2a62:	c4 01       	movw	r24, r8
    2a64:	2a e0       	ldi	r18, 0x0A	; 10
    2a66:	b6 95       	lsr	r27
    2a68:	a7 95       	ror	r26
    2a6a:	97 95       	ror	r25
    2a6c:	87 95       	ror	r24
    2a6e:	2a 95       	dec	r18
    2a70:	d1 f7       	brne	.-12     	; 0x2a66 <csp_can_rx_task+0x272>
    2a72:	99 27       	eor	r25, r25
    2a74:	aa 27       	eor	r26, r26
    2a76:	bb 27       	eor	r27, r27
    2a78:	01 96       	adiw	r24, 0x01	; 1
    2a7a:	a1 1d       	adc	r26, r1
    2a7c:	b1 1d       	adc	r27, r1
    2a7e:	82 83       	std	Z+2, r24	; 0x02
    2a80:	93 83       	std	Z+3, r25	; 0x03
    2a82:	a4 83       	std	Z+4, r26	; 0x04
    2a84:	b5 83       	std	Z+5, r27	; 0x05
    2a86:	56 e0       	ldi	r21, 0x06	; 6
    2a88:	01 c0       	rjmp	.+2      	; 0x2a8c <csp_can_rx_task+0x298>
    2a8a:	50 e0       	ldi	r21, 0x00	; 0
    2a8c:	8a e0       	ldi	r24, 0x0A	; 10
    2a8e:	b6 94       	lsr	r11
    2a90:	a7 94       	ror	r10
    2a92:	97 94       	ror	r9
    2a94:	87 94       	ror	r8
    2a96:	8a 95       	dec	r24
    2a98:	d1 f7       	brne	.-12     	; 0x2a8e <csp_can_rx_task+0x29a>
    2a9a:	99 24       	eor	r9, r9
    2a9c:	aa 24       	eor	r10, r10
    2a9e:	bb 24       	eor	r11, r11
    2aa0:	f8 01       	movw	r30, r16
    2aa2:	82 81       	ldd	r24, Z+2	; 0x02
    2aa4:	93 81       	ldd	r25, Z+3	; 0x03
    2aa6:	a4 81       	ldd	r26, Z+4	; 0x04
    2aa8:	b5 81       	ldd	r27, Z+5	; 0x05
    2aaa:	01 97       	sbiw	r24, 0x01	; 1
    2aac:	a1 09       	sbc	r26, r1
    2aae:	b1 09       	sbc	r27, r1
    2ab0:	88 16       	cp	r8, r24
    2ab2:	99 06       	cpc	r9, r25
    2ab4:	aa 06       	cpc	r10, r26
    2ab6:	bb 06       	cpc	r11, r27
    2ab8:	e1 f0       	breq	.+56     	; 0x2af2 <csp_can_rx_task+0x2fe>
    2aba:	29 ee       	ldi	r18, 0xE9	; 233
    2abc:	39 e0       	ldi	r19, 0x09	; 9
    2abe:	3f 93       	push	r19
    2ac0:	2f 93       	push	r18
    2ac2:	1f 92       	push	r1
    2ac4:	9b db       	rcall	.-2250   	; 0x21fc <do_csp_debug>
    2ac6:	c8 01       	movw	r24, r16
    2ac8:	18 dd       	rcall	.-1488   	; 0x24fa <csp_can_pbuf_free>
    2aca:	80 91 32 02 	lds	r24, 0x0232	; 0x800232 <csp_if_can+0x21>
    2ace:	90 91 33 02 	lds	r25, 0x0233	; 0x800233 <csp_if_can+0x22>
    2ad2:	a0 91 34 02 	lds	r26, 0x0234	; 0x800234 <csp_if_can+0x23>
    2ad6:	b0 91 35 02 	lds	r27, 0x0235	; 0x800235 <csp_if_can+0x24>
    2ada:	01 96       	adiw	r24, 0x01	; 1
    2adc:	a1 1d       	adc	r26, r1
    2ade:	b1 1d       	adc	r27, r1
    2ae0:	80 93 32 02 	sts	0x0232, r24	; 0x800232 <csp_if_can+0x21>
    2ae4:	90 93 33 02 	sts	0x0233, r25	; 0x800233 <csp_if_can+0x22>
    2ae8:	a0 93 34 02 	sts	0x0234, r26	; 0x800234 <csp_if_can+0x23>
    2aec:	b0 93 35 02 	sts	0x0235, r27	; 0x800235 <csp_if_can+0x24>
    2af0:	8d c0       	rjmp	.+282    	; 0x2c0c <csp_can_rx_task+0x418>
    2af2:	82 82       	std	Z+2, r8	; 0x02
    2af4:	93 82       	std	Z+3, r9	; 0x03
    2af6:	a4 82       	std	Z+4, r10	; 0x04
    2af8:	b5 82       	std	Z+5, r11	; 0x05
    2afa:	20 81       	ld	r18, Z
    2afc:	31 81       	ldd	r19, Z+1	; 0x01
    2afe:	4d 81       	ldd	r20, Y+5	; 0x05
    2b00:	c5 2e       	mov	r12, r21
    2b02:	d1 2c       	mov	r13, r1
    2b04:	02 84       	ldd	r0, Z+10	; 0x0a
    2b06:	f3 85       	ldd	r31, Z+11	; 0x0b
    2b08:	e0 2d       	mov	r30, r0
    2b0a:	50 e0       	ldi	r21, 0x00	; 0
    2b0c:	ba 01       	movw	r22, r20
    2b0e:	62 0f       	add	r22, r18
    2b10:	73 1f       	adc	r23, r19
    2b12:	6c 19       	sub	r22, r12
    2b14:	7d 09       	sbc	r23, r13
    2b16:	80 85       	ldd	r24, Z+8	; 0x08
    2b18:	91 85       	ldd	r25, Z+9	; 0x09
    2b1a:	86 17       	cp	r24, r22
    2b1c:	97 07       	cpc	r25, r23
    2b1e:	e0 f4       	brcc	.+56     	; 0x2b58 <csp_can_rx_task+0x364>
    2b20:	e6 ed       	ldi	r30, 0xD6	; 214
    2b22:	f9 e0       	ldi	r31, 0x09	; 9
    2b24:	ff 93       	push	r31
    2b26:	ef 93       	push	r30
    2b28:	1f 92       	push	r1
    2b2a:	68 db       	rcall	.-2352   	; 0x21fc <do_csp_debug>
    2b2c:	80 91 32 02 	lds	r24, 0x0232	; 0x800232 <csp_if_can+0x21>
    2b30:	90 91 33 02 	lds	r25, 0x0233	; 0x800233 <csp_if_can+0x22>
    2b34:	a0 91 34 02 	lds	r26, 0x0234	; 0x800234 <csp_if_can+0x23>
    2b38:	b0 91 35 02 	lds	r27, 0x0235	; 0x800235 <csp_if_can+0x24>
    2b3c:	01 96       	adiw	r24, 0x01	; 1
    2b3e:	a1 1d       	adc	r26, r1
    2b40:	b1 1d       	adc	r27, r1
    2b42:	80 93 32 02 	sts	0x0232, r24	; 0x800232 <csp_if_can+0x21>
    2b46:	90 93 33 02 	sts	0x0233, r25	; 0x800233 <csp_if_can+0x22>
    2b4a:	a0 93 34 02 	sts	0x0234, r26	; 0x800234 <csp_if_can+0x23>
    2b4e:	b0 93 35 02 	sts	0x0235, r27	; 0x800235 <csp_if_can+0x24>
    2b52:	c8 01       	movw	r24, r16
    2b54:	d2 dc       	rcall	.-1628   	; 0x24fa <csp_can_pbuf_free>
    2b56:	5a c0       	rjmp	.+180    	; 0x2c0c <csp_can_rx_task+0x418>
    2b58:	c9 01       	movw	r24, r18
    2b5a:	0e 96       	adiw	r24, 0x0e	; 14
    2b5c:	4c 19       	sub	r20, r12
    2b5e:	5d 09       	sbc	r21, r13
    2b60:	66 e0       	ldi	r22, 0x06	; 6
    2b62:	70 e0       	ldi	r23, 0x00	; 0
    2b64:	6c 0f       	add	r22, r28
    2b66:	7d 1f       	adc	r23, r29
    2b68:	6c 0d       	add	r22, r12
    2b6a:	7d 1d       	adc	r23, r13
    2b6c:	8e 0f       	add	r24, r30
    2b6e:	9f 1f       	adc	r25, r31
    2b70:	0e 94 e3 3b 	call	0x77c6	; 0x77c6 <memcpy>
    2b74:	8d 81       	ldd	r24, Y+5	; 0x05
    2b76:	90 e0       	ldi	r25, 0x00	; 0
    2b78:	8c 19       	sub	r24, r12
    2b7a:	9d 09       	sbc	r25, r13
    2b7c:	d8 01       	movw	r26, r16
    2b7e:	2d 91       	ld	r18, X+
    2b80:	3c 91       	ld	r19, X
    2b82:	11 97       	sbiw	r26, 0x01	; 1
    2b84:	28 0f       	add	r18, r24
    2b86:	39 1f       	adc	r19, r25
    2b88:	11 96       	adiw	r26, 0x01	; 1
    2b8a:	3c 93       	st	X, r19
    2b8c:	2e 93       	st	-X, r18
    2b8e:	1a 96       	adiw	r26, 0x0a	; 10
    2b90:	8d 91       	ld	r24, X+
    2b92:	9c 91       	ld	r25, X
    2b94:	1b 97       	sbiw	r26, 0x0b	; 11
    2b96:	fc 01       	movw	r30, r24
    2b98:	40 85       	ldd	r20, Z+8	; 0x08
    2b9a:	51 85       	ldd	r21, Z+9	; 0x09
    2b9c:	24 17       	cp	r18, r20
    2b9e:	35 07       	cpc	r19, r21
    2ba0:	09 f0       	breq	.+2      	; 0x2ba4 <csp_can_rx_task+0x3b0>
    2ba2:	42 ce       	rjmp	.-892    	; 0x2828 <csp_can_rx_task+0x34>
    2ba4:	40 e0       	ldi	r20, 0x00	; 0
    2ba6:	50 e0       	ldi	r21, 0x00	; 0
    2ba8:	61 e1       	ldi	r22, 0x11	; 17
    2baa:	72 e0       	ldi	r23, 0x02	; 2
    2bac:	ee d3       	rcall	.+2012   	; 0x338a <csp_qfifo_write>
    2bae:	d8 01       	movw	r26, r16
    2bb0:	1b 96       	adiw	r26, 0x0b	; 11
    2bb2:	1c 92       	st	X, r1
    2bb4:	1e 92       	st	-X, r1
    2bb6:	1a 97       	sbiw	r26, 0x0a	; 10
    2bb8:	c8 01       	movw	r24, r16
    2bba:	9f dc       	rcall	.-1730   	; 0x24fa <csp_can_pbuf_free>
    2bbc:	35 ce       	rjmp	.-918    	; 0x2828 <csp_can_rx_task+0x34>
    2bbe:	01 96       	adiw	r24, 0x01	; 1
    2bc0:	51 96       	adiw	r26, 0x11	; 17
    2bc2:	8a 30       	cpi	r24, 0x0A	; 10
    2bc4:	91 05       	cpc	r25, r1
    2bc6:	09 f0       	breq	.+2      	; 0x2bca <csp_can_rx_task+0x3d6>
    2bc8:	b2 ce       	rjmp	.-668    	; 0x292e <csp_can_rx_task+0x13a>
    2bca:	ed e7       	ldi	r30, 0x7D	; 125
    2bcc:	fa e0       	ldi	r31, 0x0A	; 10
    2bce:	ff 93       	push	r31
    2bd0:	ef 93       	push	r30
    2bd2:	81 e0       	ldi	r24, 0x01	; 1
    2bd4:	8f 93       	push	r24
    2bd6:	12 db       	rcall	.-2524   	; 0x21fc <do_csp_debug>
    2bd8:	80 91 26 02 	lds	r24, 0x0226	; 0x800226 <csp_if_can+0x15>
    2bdc:	90 91 27 02 	lds	r25, 0x0227	; 0x800227 <csp_if_can+0x16>
    2be0:	a0 91 28 02 	lds	r26, 0x0228	; 0x800228 <csp_if_can+0x17>
    2be4:	b0 91 29 02 	lds	r27, 0x0229	; 0x800229 <csp_if_can+0x18>
    2be8:	01 96       	adiw	r24, 0x01	; 1
    2bea:	a1 1d       	adc	r26, r1
    2bec:	b1 1d       	adc	r27, r1
    2bee:	80 93 26 02 	sts	0x0226, r24	; 0x800226 <csp_if_can+0x15>
    2bf2:	90 93 27 02 	sts	0x0227, r25	; 0x800227 <csp_if_can+0x16>
    2bf6:	a0 93 28 02 	sts	0x0228, r26	; 0x800228 <csp_if_can+0x17>
    2bfa:	b0 93 29 02 	sts	0x0229, r27	; 0x800229 <csp_if_can+0x18>
    2bfe:	06 c0       	rjmp	.+12     	; 0x2c0c <csp_can_rx_task+0x418>
    2c00:	7f 92       	push	r7
    2c02:	6f 92       	push	r6
    2c04:	81 e0       	ldi	r24, 0x01	; 1
    2c06:	8f 93       	push	r24
    2c08:	f9 da       	rcall	.-2574   	; 0x21fc <do_csp_debug>
    2c0a:	5f cf       	rjmp	.-322    	; 0x2aca <csp_can_rx_task+0x2d6>
    2c0c:	0f 90       	pop	r0
    2c0e:	0f 90       	pop	r0
    2c10:	0f 90       	pop	r0
    2c12:	0a ce       	rjmp	.-1004   	; 0x2828 <csp_can_rx_task+0x34>

00002c14 <csp_can_rx_frame>:
    2c14:	ab 01       	movw	r20, r22
    2c16:	bc 01       	movw	r22, r24
    2c18:	80 91 b5 05 	lds	r24, 0x05B5	; 0x8005b5 <csp_can_rx_queue>
    2c1c:	90 91 b6 05 	lds	r25, 0x05B6	; 0x8005b6 <csp_can_rx_queue+0x1>
    2c20:	82 d4       	rcall	.+2308   	; 0x3526 <csp_queue_enqueue_isr>
    2c22:	21 e0       	ldi	r18, 0x01	; 1
    2c24:	30 e0       	ldi	r19, 0x00	; 0
    2c26:	01 97       	sbiw	r24, 0x01	; 1
    2c28:	11 f4       	brne	.+4      	; 0x2c2e <csp_can_rx_frame+0x1a>
    2c2a:	20 e0       	ldi	r18, 0x00	; 0
    2c2c:	30 e0       	ldi	r19, 0x00	; 0
    2c2e:	88 27       	eor	r24, r24
    2c30:	99 27       	eor	r25, r25
    2c32:	82 1b       	sub	r24, r18
    2c34:	93 0b       	sbc	r25, r19
    2c36:	08 95       	ret

00002c38 <csp_can_init>:
    2c38:	8f 92       	push	r8
    2c3a:	9f 92       	push	r9
    2c3c:	af 92       	push	r10
    2c3e:	bf 92       	push	r11
    2c40:	ef 92       	push	r14
    2c42:	ff 92       	push	r15
    2c44:	0f 93       	push	r16
    2c46:	1f 93       	push	r17
    2c48:	cf 93       	push	r28
    2c4a:	df 93       	push	r29
    2c4c:	18 2f       	mov	r17, r24
    2c4e:	eb 01       	movw	r28, r22
    2c50:	eb e0       	ldi	r30, 0x0B	; 11
    2c52:	f5 e0       	ldi	r31, 0x05	; 5
    2c54:	11 82       	std	Z+1, r1	; 0x01
    2c56:	10 82       	st	Z, r1
    2c58:	16 82       	std	Z+6, r1	; 0x06
    2c5a:	17 82       	std	Z+7, r1	; 0x07
    2c5c:	10 86       	std	Z+8, r1	; 0x08
    2c5e:	11 86       	std	Z+9, r1	; 0x09
    2c60:	13 86       	std	Z+11, r1	; 0x0b
    2c62:	12 86       	std	Z+10, r1	; 0x0a
    2c64:	14 86       	std	Z+12, r1	; 0x0c
    2c66:	15 86       	std	Z+13, r1	; 0x0d
    2c68:	16 86       	std	Z+14, r1	; 0x0e
    2c6a:	17 86       	std	Z+15, r1	; 0x0f
    2c6c:	10 8a       	std	Z+16, r1	; 0x10
    2c6e:	12 82       	std	Z+2, r1	; 0x02
    2c70:	13 82       	std	Z+3, r1	; 0x03
    2c72:	14 82       	std	Z+4, r1	; 0x04
    2c74:	15 82       	std	Z+5, r1	; 0x05
    2c76:	71 96       	adiw	r30, 0x11	; 17
    2c78:	85 e0       	ldi	r24, 0x05	; 5
    2c7a:	e5 3b       	cpi	r30, 0xB5	; 181
    2c7c:	f8 07       	cpc	r31, r24
    2c7e:	51 f7       	brne	.-44     	; 0x2c54 <csp_can_init+0x1c>
    2c80:	0e 94 0e 22 	call	0x441c	; 0x441c <csp_get_ms>
    2c84:	cb 01       	movw	r24, r22
    2c86:	0e 94 cb 3b 	call	0x7796	; 0x7796 <srand>
    2c8a:	0e 94 c8 3b 	call	0x7790	; 0x7790 <rand>
    2c8e:	93 70       	andi	r25, 0x03	; 3
    2c90:	90 93 bc 05 	sts	0x05BC, r25	; 0x8005bc <csp_can_id+0x1>
    2c94:	80 93 bb 05 	sts	0x05BB, r24	; 0x8005bb <csp_can_id>
    2c98:	89 eb       	ldi	r24, 0xB9	; 185
    2c9a:	95 e0       	ldi	r25, 0x05	; 5
    2c9c:	8a d7       	rcall	.+3860   	; 0x3bb2 <csp_bin_sem_create>
    2c9e:	01 97       	sbiw	r24, 0x01	; 1
    2ca0:	69 f1       	breq	.+90     	; 0x2cfc <csp_can_init+0xc4>
    2ca2:	80 eb       	ldi	r24, 0xB0	; 176
    2ca4:	99 e0       	ldi	r25, 0x09	; 9
    2ca6:	9f 93       	push	r25
    2ca8:	8f 93       	push	r24
    2caa:	1f 92       	push	r1
    2cac:	a7 da       	rcall	.-2738   	; 0x21fc <do_csp_debug>
    2cae:	8e e2       	ldi	r24, 0x2E	; 46
    2cb0:	9b e0       	ldi	r25, 0x0B	; 11
    2cb2:	9f 93       	push	r25
    2cb4:	8f 93       	push	r24
    2cb6:	1f 92       	push	r1
    2cb8:	a1 da       	rcall	.-2750   	; 0x21fc <do_csp_debug>
    2cba:	0f 90       	pop	r0
    2cbc:	0f 90       	pop	r0
    2cbe:	0f 90       	pop	r0
    2cc0:	0f 90       	pop	r0
    2cc2:	0f 90       	pop	r0
    2cc4:	0f 90       	pop	r0
    2cc6:	17 c0       	rjmp	.+46     	; 0x2cf6 <csp_can_init+0xbe>
    2cc8:	81 2c       	mov	r8, r1
    2cca:	91 2c       	mov	r9, r1
    2ccc:	54 01       	movw	r10, r8
    2cce:	6d e0       	ldi	r22, 0x0D	; 13
    2cd0:	70 e0       	ldi	r23, 0x00	; 0
    2cd2:	80 e2       	ldi	r24, 0x20	; 32
    2cd4:	90 e0       	ldi	r25, 0x00	; 0
    2cd6:	00 d4       	rcall	.+2048   	; 0x34d8 <csp_queue_create>
    2cd8:	90 93 b6 05 	sts	0x05B6, r25	; 0x8005b6 <csp_can_rx_queue+0x1>
    2cdc:	80 93 b5 05 	sts	0x05B5, r24	; 0x8005b5 <csp_can_rx_queue>
    2ce0:	89 2b       	or	r24, r25
    2ce2:	11 f5       	brne	.+68     	; 0x2d28 <csp_can_init+0xf0>
    2ce4:	8f ef       	ldi	r24, 0xFF	; 255
    2ce6:	9a e0       	ldi	r25, 0x0A	; 10
    2ce8:	9f 93       	push	r25
    2cea:	8f 93       	push	r24
    2cec:	1f 92       	push	r1
    2cee:	86 da       	rcall	.-2804   	; 0x21fc <do_csp_debug>
    2cf0:	0f 90       	pop	r0
    2cf2:	0f 90       	pop	r0
    2cf4:	0f 90       	pop	r0
    2cf6:	8f ef       	ldi	r24, 0xFF	; 255
    2cf8:	9f ef       	ldi	r25, 0xFF	; 255
    2cfa:	51 c0       	rjmp	.+162    	; 0x2d9e <csp_can_init+0x166>
    2cfc:	11 23       	and	r17, r17
    2cfe:	71 f0       	breq	.+28     	; 0x2d1c <csp_can_init+0xe4>
    2d00:	11 30       	cpi	r17, 0x01	; 1
    2d02:	11 f3       	breq	.-60     	; 0x2cc8 <csp_can_init+0x90>
    2d04:	8d e1       	ldi	r24, 0x1D	; 29
    2d06:	9b e0       	ldi	r25, 0x0B	; 11
    2d08:	9f 93       	push	r25
    2d0a:	8f 93       	push	r24
    2d0c:	1f 92       	push	r1
    2d0e:	76 da       	rcall	.-2836   	; 0x21fc <do_csp_debug>
    2d10:	0f 90       	pop	r0
    2d12:	0f 90       	pop	r0
    2d14:	0f 90       	pop	r0
    2d16:	8e ef       	ldi	r24, 0xFE	; 254
    2d18:	9f ef       	ldi	r25, 0xFF	; 255
    2d1a:	41 c0       	rjmp	.+130    	; 0x2d9e <csp_can_init+0x166>
    2d1c:	81 2c       	mov	r8, r1
    2d1e:	91 2c       	mov	r9, r1
    2d20:	48 ef       	ldi	r20, 0xF8	; 248
    2d22:	a4 2e       	mov	r10, r20
    2d24:	b1 2c       	mov	r11, r1
    2d26:	d3 cf       	rjmp	.-90     	; 0x2cce <csp_can_init+0x96>
    2d28:	37 eb       	ldi	r19, 0xB7	; 183
    2d2a:	e3 2e       	mov	r14, r19
    2d2c:	35 e0       	ldi	r19, 0x05	; 5
    2d2e:	f3 2e       	mov	r15, r19
    2d30:	03 e0       	ldi	r16, 0x03	; 3
    2d32:	10 e0       	ldi	r17, 0x00	; 0
    2d34:	20 e0       	ldi	r18, 0x00	; 0
    2d36:	30 e0       	ldi	r19, 0x00	; 0
    2d38:	48 ec       	ldi	r20, 0xC8	; 200
    2d3a:	50 e0       	ldi	r21, 0x00	; 0
    2d3c:	65 e8       	ldi	r22, 0x85	; 133
    2d3e:	72 e0       	ldi	r23, 0x02	; 2
    2d40:	8a ef       	ldi	r24, 0xFA	; 250
    2d42:	93 e1       	ldi	r25, 0x13	; 19
    2d44:	0e 94 fb 21 	call	0x43f6	; 0x43f6 <csp_thread_create>
    2d48:	89 2b       	or	r24, r25
    2d4a:	19 f0       	breq	.+6      	; 0x2d52 <csp_can_init+0x11a>
    2d4c:	84 ee       	ldi	r24, 0xE4	; 228
    2d4e:	9a e0       	ldi	r25, 0x0A	; 10
    2d50:	cb cf       	rjmp	.-106    	; 0x2ce8 <csp_can_init+0xb0>
    2d52:	56 d0       	rcall	.+172    	; 0x2e00 <csp_get_address>
    2d54:	8f 71       	andi	r24, 0x1F	; 31
    2d56:	90 e0       	ldi	r25, 0x00	; 0
    2d58:	a0 e0       	ldi	r26, 0x00	; 0
    2d5a:	b0 e0       	ldi	r27, 0x00	; 0
    2d5c:	bc 01       	movw	r22, r24
    2d5e:	cd 01       	movw	r24, r26
    2d60:	23 e1       	ldi	r18, 0x13	; 19
    2d62:	66 0f       	add	r22, r22
    2d64:	77 1f       	adc	r23, r23
    2d66:	88 1f       	adc	r24, r24
    2d68:	99 1f       	adc	r25, r25
    2d6a:	2a 95       	dec	r18
    2d6c:	d1 f7       	brne	.-12     	; 0x2d62 <csp_can_init+0x12a>
    2d6e:	8e 01       	movw	r16, r28
    2d70:	a5 01       	movw	r20, r10
    2d72:	94 01       	movw	r18, r8
    2d74:	0e 94 d4 09 	call	0x13a8	; 0x13a8 <can_init>
    2d78:	89 2b       	or	r24, r25
    2d7a:	61 f0       	breq	.+24     	; 0x2d94 <csp_can_init+0x15c>
    2d7c:	84 ec       	ldi	r24, 0xC4	; 196
    2d7e:	9a e0       	ldi	r25, 0x0A	; 10
    2d80:	9f 93       	push	r25
    2d82:	8f 93       	push	r24
    2d84:	1f 92       	push	r1
    2d86:	3a da       	rcall	.-2956   	; 0x21fc <do_csp_debug>
    2d88:	0f 90       	pop	r0
    2d8a:	0f 90       	pop	r0
    2d8c:	0f 90       	pop	r0
    2d8e:	85 ef       	ldi	r24, 0xF5	; 245
    2d90:	9f ef       	ldi	r25, 0xFF	; 255
    2d92:	05 c0       	rjmp	.+10     	; 0x2d9e <csp_can_init+0x166>
    2d94:	81 e1       	ldi	r24, 0x11	; 17
    2d96:	92 e0       	ldi	r25, 0x02	; 2
    2d98:	f3 da       	rcall	.-2586   	; 0x2380 <csp_iflist_add>
    2d9a:	80 e0       	ldi	r24, 0x00	; 0
    2d9c:	90 e0       	ldi	r25, 0x00	; 0
    2d9e:	df 91       	pop	r29
    2da0:	cf 91       	pop	r28
    2da2:	1f 91       	pop	r17
    2da4:	0f 91       	pop	r16
    2da6:	ff 90       	pop	r15
    2da8:	ef 90       	pop	r14
    2daa:	bf 90       	pop	r11
    2dac:	af 90       	pop	r10
    2dae:	9f 90       	pop	r9
    2db0:	8f 90       	pop	r8
    2db2:	08 95       	ret

00002db4 <csp_lo_tx>:
    2db4:	0f 93       	push	r16
    2db6:	1f 93       	push	r17
    2db8:	cf 93       	push	r28
    2dba:	df 93       	push	r29
    2dbc:	8b 01       	movw	r16, r22
    2dbe:	fb 01       	movw	r30, r22
    2dc0:	c4 85       	ldd	r28, Z+12	; 0x0c
    2dc2:	8c 2f       	mov	r24, r28
    2dc4:	82 95       	swap	r24
    2dc6:	8f 70       	andi	r24, 0x0F	; 15
    2dc8:	c5 85       	ldd	r28, Z+13	; 0x0d
    2dca:	c1 70       	andi	r28, 0x01	; 1
    2dcc:	c2 95       	swap	r28
    2dce:	c0 7f       	andi	r28, 0xF0	; 240
    2dd0:	c8 2b       	or	r28, r24
    2dd2:	d0 e0       	ldi	r29, 0x00	; 0
    2dd4:	15 d0       	rcall	.+42     	; 0x2e00 <csp_get_address>
    2dd6:	90 e0       	ldi	r25, 0x00	; 0
    2dd8:	c8 17       	cp	r28, r24
    2dda:	d9 07       	cpc	r29, r25
    2ddc:	21 f0       	breq	.+8      	; 0x2de6 <csp_lo_tx+0x32>
    2dde:	c8 01       	movw	r24, r16
    2de0:	0e 94 ed 0c 	call	0x19da	; 0x19da <csp_buffer_free>
    2de4:	06 c0       	rjmp	.+12     	; 0x2df2 <csp_lo_tx+0x3e>
    2de6:	40 e0       	ldi	r20, 0x00	; 0
    2de8:	50 e0       	ldi	r21, 0x00	; 0
    2dea:	64 e4       	ldi	r22, 0x44	; 68
    2dec:	72 e0       	ldi	r23, 0x02	; 2
    2dee:	c8 01       	movw	r24, r16
    2df0:	cc d2       	rcall	.+1432   	; 0x338a <csp_qfifo_write>
    2df2:	80 e0       	ldi	r24, 0x00	; 0
    2df4:	90 e0       	ldi	r25, 0x00	; 0
    2df6:	df 91       	pop	r29
    2df8:	cf 91       	pop	r28
    2dfa:	1f 91       	pop	r17
    2dfc:	0f 91       	pop	r16
    2dfe:	08 95       	ret

00002e00 <csp_get_address>:
    2e00:	80 91 c1 05 	lds	r24, 0x05C1	; 0x8005c1 <csp_my_address>
    2e04:	08 95       	ret

00002e06 <csp_get_hostname>:
    2e06:	80 91 bf 05 	lds	r24, 0x05BF	; 0x8005bf <csp_hostname>
    2e0a:	90 91 c0 05 	lds	r25, 0x05C0	; 0x8005c0 <csp_hostname+0x1>
    2e0e:	08 95       	ret

00002e10 <csp_get_model>:
    2e10:	80 91 bd 05 	lds	r24, 0x05BD	; 0x8005bd <csp_model>
    2e14:	90 91 be 05 	lds	r25, 0x05BE	; 0x8005be <csp_model+0x1>
    2e18:	08 95       	ret

00002e1a <csp_get_revision>:
    2e1a:	80 91 77 02 	lds	r24, 0x0277	; 0x800277 <csp_revision>
    2e1e:	90 91 78 02 	lds	r25, 0x0278	; 0x800278 <csp_revision+0x1>
    2e22:	08 95       	ret

00002e24 <csp_init>:
    2e24:	80 93 c1 05 	sts	0x05C1, r24	; 0x8005c1 <csp_my_address>
    2e28:	0e 94 bc 0d 	call	0x1b78	; 0x1b78 <csp_conn_init>
    2e2c:	00 97       	sbiw	r24, 0x00	; 0
    2e2e:	c9 f4       	brne	.+50     	; 0x2e62 <csp_init+0x3e>
    2e30:	04 d2       	rcall	.+1032   	; 0x323a <csp_port_init>
    2e32:	00 97       	sbiw	r24, 0x00	; 0
    2e34:	b1 f4       	brne	.+44     	; 0x2e62 <csp_init+0x3e>
    2e36:	80 d2       	rcall	.+1280   	; 0x3338 <csp_qfifo_init>
    2e38:	00 97       	sbiw	r24, 0x00	; 0
    2e3a:	99 f4       	brne	.+38     	; 0x2e62 <csp_init+0x3e>
    2e3c:	84 e4       	ldi	r24, 0x44	; 68
    2e3e:	92 e0       	ldi	r25, 0x02	; 2
    2e40:	9f da       	rcall	.-2754   	; 0x2380 <csp_iflist_add>
    2e42:	2f ef       	ldi	r18, 0xFF	; 255
    2e44:	44 e4       	ldi	r20, 0x44	; 68
    2e46:	52 e0       	ldi	r21, 0x02	; 2
    2e48:	65 e0       	ldi	r22, 0x05	; 5
    2e4a:	80 91 c1 05 	lds	r24, 0x05C1	; 0x8005c1 <csp_my_address>
    2e4e:	10 d6       	rcall	.+3104   	; 0x3a70 <csp_rtable_set>
    2e50:	2f ef       	ldi	r18, 0xFF	; 255
    2e52:	44 e4       	ldi	r20, 0x44	; 68
    2e54:	52 e0       	ldi	r21, 0x02	; 2
    2e56:	65 e0       	ldi	r22, 0x05	; 5
    2e58:	80 e2       	ldi	r24, 0x20	; 32
    2e5a:	0a d6       	rcall	.+3092   	; 0x3a70 <csp_rtable_set>
    2e5c:	20 e0       	ldi	r18, 0x00	; 0
    2e5e:	90 e0       	ldi	r25, 0x00	; 0
    2e60:	01 c0       	rjmp	.+2      	; 0x2e64 <csp_init+0x40>
    2e62:	28 2f       	mov	r18, r24
    2e64:	82 2f       	mov	r24, r18
    2e66:	08 95       	ret

00002e68 <csp_socket>:
    2e68:	cf 92       	push	r12
    2e6a:	df 92       	push	r13
    2e6c:	ef 92       	push	r14
    2e6e:	ff 92       	push	r15
    2e70:	cf 93       	push	r28
    2e72:	df 93       	push	r29
    2e74:	6b 01       	movw	r12, r22
    2e76:	7c 01       	movw	r14, r24
    2e78:	60 ff       	sbrs	r22, 0
    2e7a:	03 c0       	rjmp	.+6      	; 0x2e82 <csp_socket+0x1a>
    2e7c:	81 e9       	ldi	r24, 0x91	; 145
    2e7e:	9d e0       	ldi	r25, 0x0D	; 13
    2e80:	04 c0       	rjmp	.+8      	; 0x2e8a <csp_socket+0x22>
    2e82:	64 ff       	sbrs	r22, 4
    2e84:	0c c0       	rjmp	.+24     	; 0x2e9e <csp_socket+0x36>
    2e86:	8a e3       	ldi	r24, 0x3A	; 58
    2e88:	9d e0       	ldi	r25, 0x0D	; 13
    2e8a:	9f 93       	push	r25
    2e8c:	8f 93       	push	r24
    2e8e:	1f 92       	push	r1
    2e90:	b5 d9       	rcall	.-3222   	; 0x21fc <do_csp_debug>
    2e92:	0f 90       	pop	r0
    2e94:	0f 90       	pop	r0
    2e96:	0f 90       	pop	r0
    2e98:	80 e0       	ldi	r24, 0x00	; 0
    2e9a:	90 e0       	ldi	r25, 0x00	; 0
    2e9c:	29 c0       	rjmp	.+82     	; 0x2ef0 <csp_socket+0x88>
    2e9e:	62 ff       	sbrs	r22, 2
    2ea0:	03 c0       	rjmp	.+6      	; 0x2ea8 <csp_socket+0x40>
    2ea2:	83 ee       	ldi	r24, 0xE3	; 227
    2ea4:	9c e0       	ldi	r25, 0x0C	; 12
    2ea6:	f1 cf       	rjmp	.-30     	; 0x2e8a <csp_socket+0x22>
    2ea8:	dc 01       	movw	r26, r24
    2eaa:	cb 01       	movw	r24, r22
    2eac:	8a 7a       	andi	r24, 0xAA	; 170
    2eae:	9e 7f       	andi	r25, 0xFE	; 254
    2eb0:	89 2b       	or	r24, r25
    2eb2:	8a 2b       	or	r24, r26
    2eb4:	8b 2b       	or	r24, r27
    2eb6:	19 f0       	breq	.+6      	; 0x2ebe <csp_socket+0x56>
    2eb8:	8d ec       	ldi	r24, 0xCD	; 205
    2eba:	9c e0       	ldi	r25, 0x0C	; 12
    2ebc:	e6 cf       	rjmp	.-52     	; 0x2e8a <csp_socket+0x22>
    2ebe:	81 e0       	ldi	r24, 0x01	; 1
    2ec0:	0e 94 3e 0e 	call	0x1c7c	; 0x1c7c <csp_conn_allocate>
    2ec4:	ec 01       	movw	r28, r24
    2ec6:	89 2b       	or	r24, r25
    2ec8:	39 f3       	breq	.-50     	; 0x2e98 <csp_socket+0x30>
    2eca:	d0 fe       	sbrs	r13, 0
    2ecc:	0a c0       	rjmp	.+20     	; 0x2ee2 <csp_socket+0x7a>
    2ece:	62 e0       	ldi	r22, 0x02	; 2
    2ed0:	70 e0       	ldi	r23, 0x00	; 0
    2ed2:	84 e6       	ldi	r24, 0x64	; 100
    2ed4:	90 e0       	ldi	r25, 0x00	; 0
    2ed6:	00 d3       	rcall	.+1536   	; 0x34d8 <csp_queue_create>
    2ed8:	9f 87       	std	Y+15, r25	; 0x0f
    2eda:	8e 87       	std	Y+14, r24	; 0x0e
    2edc:	89 2b       	or	r24, r25
    2ede:	19 f4       	brne	.+6      	; 0x2ee6 <csp_socket+0x7e>
    2ee0:	db cf       	rjmp	.-74     	; 0x2e98 <csp_socket+0x30>
    2ee2:	1f 86       	std	Y+15, r1	; 0x0f
    2ee4:	1e 86       	std	Y+14, r1	; 0x0e
    2ee6:	cc 8a       	std	Y+20, r12	; 0x14
    2ee8:	dd 8a       	std	Y+21, r13	; 0x15
    2eea:	ee 8a       	std	Y+22, r14	; 0x16
    2eec:	ff 8a       	std	Y+23, r15	; 0x17
    2eee:	ce 01       	movw	r24, r28
    2ef0:	df 91       	pop	r29
    2ef2:	cf 91       	pop	r28
    2ef4:	ff 90       	pop	r15
    2ef6:	ef 90       	pop	r14
    2ef8:	df 90       	pop	r13
    2efa:	cf 90       	pop	r12
    2efc:	08 95       	ret

00002efe <csp_accept>:
    2efe:	cf 93       	push	r28
    2f00:	df 93       	push	r29
    2f02:	1f 92       	push	r1
    2f04:	1f 92       	push	r1
    2f06:	cd b7       	in	r28, 0x3d	; 61
    2f08:	de b7       	in	r29, 0x3e	; 62
    2f0a:	00 97       	sbiw	r24, 0x00	; 0
    2f0c:	19 f4       	brne	.+6      	; 0x2f14 <csp_accept+0x16>
    2f0e:	80 e0       	ldi	r24, 0x00	; 0
    2f10:	90 e0       	ldi	r25, 0x00	; 0
    2f12:	0f c0       	rjmp	.+30     	; 0x2f32 <csp_accept+0x34>
    2f14:	fc 01       	movw	r30, r24
    2f16:	86 85       	ldd	r24, Z+14	; 0x0e
    2f18:	97 85       	ldd	r25, Z+15	; 0x0f
    2f1a:	00 97       	sbiw	r24, 0x00	; 0
    2f1c:	c1 f3       	breq	.-16     	; 0x2f0e <csp_accept+0x10>
    2f1e:	9a 01       	movw	r18, r20
    2f20:	ab 01       	movw	r20, r22
    2f22:	be 01       	movw	r22, r28
    2f24:	6f 5f       	subi	r22, 0xFF	; 255
    2f26:	7f 4f       	sbci	r23, 0xFF	; 255
    2f28:	05 d3       	rcall	.+1546   	; 0x3534 <csp_queue_dequeue>
    2f2a:	01 97       	sbiw	r24, 0x01	; 1
    2f2c:	81 f7       	brne	.-32     	; 0x2f0e <csp_accept+0x10>
    2f2e:	89 81       	ldd	r24, Y+1	; 0x01
    2f30:	9a 81       	ldd	r25, Y+2	; 0x02
    2f32:	0f 90       	pop	r0
    2f34:	0f 90       	pop	r0
    2f36:	df 91       	pop	r29
    2f38:	cf 91       	pop	r28
    2f3a:	08 95       	ret

00002f3c <csp_read>:
    2f3c:	cf 93       	push	r28
    2f3e:	df 93       	push	r29
    2f40:	1f 92       	push	r1
    2f42:	1f 92       	push	r1
    2f44:	cd b7       	in	r28, 0x3d	; 61
    2f46:	de b7       	in	r29, 0x3e	; 62
    2f48:	1a 82       	std	Y+2, r1	; 0x02
    2f4a:	19 82       	std	Y+1, r1	; 0x01
    2f4c:	00 97       	sbiw	r24, 0x00	; 0
    2f4e:	19 f4       	brne	.+6      	; 0x2f56 <csp_read+0x1a>
    2f50:	80 e0       	ldi	r24, 0x00	; 0
    2f52:	90 e0       	ldi	r25, 0x00	; 0
    2f54:	10 c0       	rjmp	.+32     	; 0x2f76 <csp_read+0x3a>
    2f56:	fc 01       	movw	r30, r24
    2f58:	21 81       	ldd	r18, Z+1	; 0x01
    2f5a:	21 30       	cpi	r18, 0x01	; 1
    2f5c:	c9 f7       	brne	.-14     	; 0x2f50 <csp_read+0x14>
    2f5e:	9a 01       	movw	r18, r20
    2f60:	ab 01       	movw	r20, r22
    2f62:	be 01       	movw	r22, r28
    2f64:	6f 5f       	subi	r22, 0xFF	; 255
    2f66:	7f 4f       	sbci	r23, 0xFF	; 255
    2f68:	84 85       	ldd	r24, Z+12	; 0x0c
    2f6a:	95 85       	ldd	r25, Z+13	; 0x0d
    2f6c:	e3 d2       	rcall	.+1478   	; 0x3534 <csp_queue_dequeue>
    2f6e:	01 97       	sbiw	r24, 0x01	; 1
    2f70:	79 f7       	brne	.-34     	; 0x2f50 <csp_read+0x14>
    2f72:	89 81       	ldd	r24, Y+1	; 0x01
    2f74:	9a 81       	ldd	r25, Y+2	; 0x02
    2f76:	0f 90       	pop	r0
    2f78:	0f 90       	pop	r0
    2f7a:	df 91       	pop	r29
    2f7c:	cf 91       	pop	r28
    2f7e:	08 95       	ret

00002f80 <csp_send_direct>:
    2f80:	4f 92       	push	r4
    2f82:	5f 92       	push	r5
    2f84:	6f 92       	push	r6
    2f86:	7f 92       	push	r7
    2f88:	8f 92       	push	r8
    2f8a:	9f 92       	push	r9
    2f8c:	af 92       	push	r10
    2f8e:	bf 92       	push	r11
    2f90:	cf 92       	push	r12
    2f92:	df 92       	push	r13
    2f94:	ef 92       	push	r14
    2f96:	ff 92       	push	r15
    2f98:	0f 93       	push	r16
    2f9a:	1f 93       	push	r17
    2f9c:	cf 93       	push	r28
    2f9e:	df 93       	push	r29
    2fa0:	b6 2e       	mov	r11, r22
    2fa2:	87 2e       	mov	r8, r23
    2fa4:	98 2e       	mov	r9, r24
    2fa6:	a9 2e       	mov	r10, r25
    2fa8:	6a 01       	movw	r12, r20
    2faa:	e9 01       	movw	r28, r18
    2fac:	27 01       	movw	r4, r14
    2fae:	38 01       	movw	r6, r16
    2fb0:	41 15       	cp	r20, r1
    2fb2:	51 05       	cpc	r21, r1
    2fb4:	51 f4       	brne	.+20     	; 0x2fca <csp_send_direct+0x4a>
    2fb6:	85 ea       	ldi	r24, 0xA5	; 165
    2fb8:	9c e0       	ldi	r25, 0x0C	; 12
    2fba:	9f 93       	push	r25
    2fbc:	8f 93       	push	r24
    2fbe:	1f 92       	push	r1
    2fc0:	1d d9       	rcall	.-3526   	; 0x21fc <do_csp_debug>
    2fc2:	0f 90       	pop	r0
    2fc4:	0f 90       	pop	r0
    2fc6:	0f 90       	pop	r0
    2fc8:	bb c0       	rjmp	.+374    	; 0x3140 <csp_send_direct+0x1c0>
    2fca:	20 97       	sbiw	r28, 0x00	; 0
    2fcc:	21 f0       	breq	.+8      	; 0x2fd6 <csp_send_direct+0x56>
    2fce:	8c 81       	ldd	r24, Y+4	; 0x04
    2fd0:	9d 81       	ldd	r25, Y+5	; 0x05
    2fd2:	89 2b       	or	r24, r25
    2fd4:	a1 f4       	brne	.+40     	; 0x2ffe <csp_send_direct+0x7e>
    2fd6:	af 92       	push	r10
    2fd8:	9f 92       	push	r9
    2fda:	8f 92       	push	r8
    2fdc:	bf 92       	push	r11
    2fde:	8d e8       	ldi	r24, 0x8D	; 141
    2fe0:	9c e0       	ldi	r25, 0x0C	; 12
    2fe2:	9f 93       	push	r25
    2fe4:	8f 93       	push	r24
    2fe6:	1f 92       	push	r1
    2fe8:	09 d9       	rcall	.-3566   	; 0x21fc <do_csp_debug>
    2fea:	2d b7       	in	r18, 0x3d	; 61
    2fec:	3e b7       	in	r19, 0x3e	; 62
    2fee:	29 5f       	subi	r18, 0xF9	; 249
    2ff0:	3f 4f       	sbci	r19, 0xFF	; 255
    2ff2:	0f b6       	in	r0, 0x3f	; 63
    2ff4:	f8 94       	cli
    2ff6:	3e bf       	out	0x3e, r19	; 62
    2ff8:	0f be       	out	0x3f, r0	; 63
    2ffa:	2d bf       	out	0x3d, r18	; 61
    2ffc:	a1 c0       	rjmp	.+322    	; 0x3140 <csp_send_direct+0x1c0>
    2ffe:	8a 2d       	mov	r24, r10
    3000:	86 95       	lsr	r24
    3002:	8f 71       	andi	r24, 0x1F	; 31
    3004:	08 2f       	mov	r16, r24
    3006:	10 e0       	ldi	r17, 0x00	; 0
    3008:	99 81       	ldd	r25, Y+1	; 0x01
    300a:	9f 93       	push	r25
    300c:	98 81       	ld	r25, Y
    300e:	9f 93       	push	r25
    3010:	fa 01       	movw	r30, r20
    3012:	91 85       	ldd	r25, Z+9	; 0x09
    3014:	9f 93       	push	r25
    3016:	90 85       	ldd	r25, Z+8	; 0x08
    3018:	9f 93       	push	r25
    301a:	1f 92       	push	r1
    301c:	6f 93       	push	r22
    301e:	9a 2d       	mov	r25, r10
    3020:	92 95       	swap	r25
    3022:	96 95       	lsr	r25
    3024:	96 95       	lsr	r25
    3026:	93 70       	andi	r25, 0x03	; 3
    3028:	1f 92       	push	r1
    302a:	9f 93       	push	r25
    302c:	97 2f       	mov	r25, r23
    302e:	9f 73       	andi	r25, 0x3F	; 63
    3030:	1f 92       	push	r1
    3032:	9f 93       	push	r25
    3034:	27 2f       	mov	r18, r23
    3036:	22 95       	swap	r18
    3038:	26 95       	lsr	r18
    303a:	26 95       	lsr	r18
    303c:	23 70       	andi	r18, 0x03	; 3
    303e:	99 2d       	mov	r25, r9
    3040:	9f 70       	andi	r25, 0x0F	; 15
    3042:	99 0f       	add	r25, r25
    3044:	99 0f       	add	r25, r25
    3046:	92 2b       	or	r25, r18
    3048:	1f 92       	push	r1
    304a:	9f 93       	push	r25
    304c:	29 2d       	mov	r18, r9
    304e:	22 95       	swap	r18
    3050:	2f 70       	andi	r18, 0x0F	; 15
    3052:	9a 2d       	mov	r25, r10
    3054:	91 70       	andi	r25, 0x01	; 1
    3056:	92 95       	swap	r25
    3058:	90 7f       	andi	r25, 0xF0	; 240
    305a:	92 2b       	or	r25, r18
    305c:	1f 92       	push	r1
    305e:	9f 93       	push	r25
    3060:	1f 92       	push	r1
    3062:	8f 93       	push	r24
    3064:	8e e4       	ldi	r24, 0x4E	; 78
    3066:	9c e0       	ldi	r25, 0x0C	; 12
    3068:	9f 93       	push	r25
    306a:	8f 93       	push	r24
    306c:	84 e0       	ldi	r24, 0x04	; 4
    306e:	8f 93       	push	r24
    3070:	c5 d8       	rcall	.-3702   	; 0x21fc <do_csp_debug>
    3072:	f6 01       	movw	r30, r12
    3074:	b2 86       	std	Z+10, r11	; 0x0a
    3076:	83 86       	std	Z+11, r8	; 0x0b
    3078:	94 86       	std	Z+12, r9	; 0x0c
    307a:	a5 86       	std	Z+13, r10	; 0x0d
    307c:	80 91 c1 05 	lds	r24, 0x05C1	; 0x8005c1 <csp_my_address>
    3080:	90 e0       	ldi	r25, 0x00	; 0
    3082:	2d b7       	in	r18, 0x3d	; 61
    3084:	3e b7       	in	r19, 0x3e	; 62
    3086:	2d 5e       	subi	r18, 0xED	; 237
    3088:	3f 4f       	sbci	r19, 0xFF	; 255
    308a:	0f b6       	in	r0, 0x3f	; 63
    308c:	f8 94       	cli
    308e:	3e bf       	out	0x3e, r19	; 62
    3090:	0f be       	out	0x3f, r0	; 63
    3092:	2d bf       	out	0x3d, r18	; 61
    3094:	08 17       	cp	r16, r24
    3096:	19 07       	cpc	r17, r25
    3098:	e1 f4       	brne	.+56     	; 0x30d2 <csp_send_direct+0x152>
    309a:	b3 fe       	sbrs	r11, 3
    309c:	03 c0       	rjmp	.+6      	; 0x30a4 <csp_send_direct+0x124>
    309e:	8f ee       	ldi	r24, 0xEF	; 239
    30a0:	9b e0       	ldi	r25, 0x0B	; 11
    30a2:	09 c0       	rjmp	.+18     	; 0x30b6 <csp_send_direct+0x136>
    30a4:	b0 fe       	sbrs	r11, 0
    30a6:	10 c0       	rjmp	.+32     	; 0x30c8 <csp_send_direct+0x148>
    30a8:	60 e0       	ldi	r22, 0x00	; 0
    30aa:	c6 01       	movw	r24, r12
    30ac:	2e d8       	rcall	.-4004   	; 0x210a <csp_crc32_append>
    30ae:	89 2b       	or	r24, r25
    30b0:	59 f0       	breq	.+22     	; 0x30c8 <csp_send_direct+0x148>
    30b2:	8a ed       	ldi	r24, 0xDA	; 218
    30b4:	9b e0       	ldi	r25, 0x0B	; 11
    30b6:	9f 93       	push	r25
    30b8:	8f 93       	push	r24
    30ba:	81 e0       	ldi	r24, 0x01	; 1
    30bc:	8f 93       	push	r24
    30be:	9e d8       	rcall	.-3780   	; 0x21fc <do_csp_debug>
    30c0:	0f 90       	pop	r0
    30c2:	0f 90       	pop	r0
    30c4:	0f 90       	pop	r0
    30c6:	31 c0       	rjmp	.+98     	; 0x312a <csp_send_direct+0x1aa>
    30c8:	b2 fe       	sbrs	r11, 2
    30ca:	03 c0       	rjmp	.+6      	; 0x30d2 <csp_send_direct+0x152>
    30cc:	86 e7       	ldi	r24, 0x76	; 118
    30ce:	9b e0       	ldi	r25, 0x0B	; 11
    30d0:	f2 cf       	rjmp	.-28     	; 0x30b6 <csp_send_direct+0x136>
    30d2:	f6 01       	movw	r30, r12
    30d4:	a0 84       	ldd	r10, Z+8	; 0x08
    30d6:	b1 84       	ldd	r11, Z+9	; 0x09
    30d8:	8e 81       	ldd	r24, Y+6	; 0x06
    30da:	9f 81       	ldd	r25, Y+7	; 0x07
    30dc:	00 97       	sbiw	r24, 0x00	; 0
    30de:	19 f0       	breq	.+6      	; 0x30e6 <csp_send_direct+0x166>
    30e0:	8a 15       	cp	r24, r10
    30e2:	9b 05       	cpc	r25, r11
    30e4:	10 f1       	brcs	.+68     	; 0x312a <csp_send_direct+0x1aa>
    30e6:	ec 81       	ldd	r30, Y+4	; 0x04
    30e8:	fd 81       	ldd	r31, Y+5	; 0x05
    30ea:	a3 01       	movw	r20, r6
    30ec:	92 01       	movw	r18, r4
    30ee:	b6 01       	movw	r22, r12
    30f0:	ce 01       	movw	r24, r28
    30f2:	19 95       	eicall
    30f4:	00 97       	sbiw	r24, 0x00	; 0
    30f6:	c9 f4       	brne	.+50     	; 0x312a <csp_send_direct+0x1aa>
    30f8:	49 85       	ldd	r20, Y+9	; 0x09
    30fa:	5a 85       	ldd	r21, Y+10	; 0x0a
    30fc:	6b 85       	ldd	r22, Y+11	; 0x0b
    30fe:	7c 85       	ldd	r23, Y+12	; 0x0c
    3100:	4f 5f       	subi	r20, 0xFF	; 255
    3102:	5f 4f       	sbci	r21, 0xFF	; 255
    3104:	6f 4f       	sbci	r22, 0xFF	; 255
    3106:	7f 4f       	sbci	r23, 0xFF	; 255
    3108:	49 87       	std	Y+9, r20	; 0x09
    310a:	5a 87       	std	Y+10, r21	; 0x0a
    310c:	6b 87       	std	Y+11, r22	; 0x0b
    310e:	7c 87       	std	Y+12, r23	; 0x0c
    3110:	4d a1       	ldd	r20, Y+37	; 0x25
    3112:	5e a1       	ldd	r21, Y+38	; 0x26
    3114:	6f a1       	ldd	r22, Y+39	; 0x27
    3116:	78 a5       	ldd	r23, Y+40	; 0x28
    3118:	4a 0d       	add	r20, r10
    311a:	5b 1d       	adc	r21, r11
    311c:	61 1d       	adc	r22, r1
    311e:	71 1d       	adc	r23, r1
    3120:	4d a3       	std	Y+37, r20	; 0x25
    3122:	5e a3       	std	Y+38, r21	; 0x26
    3124:	6f a3       	std	Y+39, r22	; 0x27
    3126:	78 a7       	std	Y+40, r23	; 0x28
    3128:	0d c0       	rjmp	.+26     	; 0x3144 <csp_send_direct+0x1c4>
    312a:	89 89       	ldd	r24, Y+17	; 0x11
    312c:	9a 89       	ldd	r25, Y+18	; 0x12
    312e:	ab 89       	ldd	r26, Y+19	; 0x13
    3130:	bc 89       	ldd	r27, Y+20	; 0x14
    3132:	01 96       	adiw	r24, 0x01	; 1
    3134:	a1 1d       	adc	r26, r1
    3136:	b1 1d       	adc	r27, r1
    3138:	89 8b       	std	Y+17, r24	; 0x11
    313a:	9a 8b       	std	Y+18, r25	; 0x12
    313c:	ab 8b       	std	Y+19, r26	; 0x13
    313e:	bc 8b       	std	Y+20, r27	; 0x14
    3140:	86 ef       	ldi	r24, 0xF6	; 246
    3142:	9f ef       	ldi	r25, 0xFF	; 255
    3144:	df 91       	pop	r29
    3146:	cf 91       	pop	r28
    3148:	1f 91       	pop	r17
    314a:	0f 91       	pop	r16
    314c:	ff 90       	pop	r15
    314e:	ef 90       	pop	r14
    3150:	df 90       	pop	r13
    3152:	cf 90       	pop	r12
    3154:	bf 90       	pop	r11
    3156:	af 90       	pop	r10
    3158:	9f 90       	pop	r9
    315a:	8f 90       	pop	r8
    315c:	7f 90       	pop	r7
    315e:	6f 90       	pop	r6
    3160:	5f 90       	pop	r5
    3162:	4f 90       	pop	r4
    3164:	08 95       	ret

00003166 <csp_send>:
    3166:	8f 92       	push	r8
    3168:	9f 92       	push	r9
    316a:	af 92       	push	r10
    316c:	bf 92       	push	r11
    316e:	cf 92       	push	r12
    3170:	df 92       	push	r13
    3172:	ef 92       	push	r14
    3174:	ff 92       	push	r15
    3176:	0f 93       	push	r16
    3178:	1f 93       	push	r17
    317a:	cf 93       	push	r28
    317c:	df 93       	push	r29
    317e:	ec 01       	movw	r28, r24
    3180:	6b 01       	movw	r12, r22
    3182:	49 01       	movw	r8, r18
    3184:	5a 01       	movw	r10, r20
    3186:	89 2b       	or	r24, r25
    3188:	29 f0       	breq	.+10     	; 0x3194 <csp_send+0x2e>
    318a:	67 2b       	or	r22, r23
    318c:	19 f0       	breq	.+6      	; 0x3194 <csp_send+0x2e>
    318e:	89 81       	ldd	r24, Y+1	; 0x01
    3190:	81 30       	cpi	r24, 0x01	; 1
    3192:	61 f0       	breq	.+24     	; 0x31ac <csp_send+0x46>
    3194:	8d e5       	ldi	r24, 0x5D	; 93
    3196:	9b e0       	ldi	r25, 0x0B	; 11
    3198:	9f 93       	push	r25
    319a:	8f 93       	push	r24
    319c:	1f 92       	push	r1
    319e:	2e d8       	rcall	.-4004   	; 0x21fc <do_csp_debug>
    31a0:	0f 90       	pop	r0
    31a2:	0f 90       	pop	r0
    31a4:	0f 90       	pop	r0
    31a6:	80 e0       	ldi	r24, 0x00	; 0
    31a8:	90 e0       	ldi	r25, 0x00	; 0
    31aa:	19 c0       	rjmp	.+50     	; 0x31de <csp_send+0x78>
    31ac:	9a 85       	ldd	r25, Y+10	; 0x0a
    31ae:	92 95       	swap	r25
    31b0:	9f 70       	andi	r25, 0x0F	; 15
    31b2:	8b 85       	ldd	r24, Y+11	; 0x0b
    31b4:	81 70       	andi	r24, 0x01	; 1
    31b6:	82 95       	swap	r24
    31b8:	80 7f       	andi	r24, 0xF0	; 240
    31ba:	89 2b       	or	r24, r25
    31bc:	2a d4       	rcall	.+2132   	; 0x3a12 <csp_rtable_find_iface>
    31be:	9c 01       	movw	r18, r24
    31c0:	68 85       	ldd	r22, Y+8	; 0x08
    31c2:	79 85       	ldd	r23, Y+9	; 0x09
    31c4:	8a 85       	ldd	r24, Y+10	; 0x0a
    31c6:	9b 85       	ldd	r25, Y+11	; 0x0b
    31c8:	85 01       	movw	r16, r10
    31ca:	74 01       	movw	r14, r8
    31cc:	a6 01       	movw	r20, r12
    31ce:	d8 de       	rcall	.-592    	; 0x2f80 <csp_send_direct>
    31d0:	31 e0       	ldi	r19, 0x01	; 1
    31d2:	20 e0       	ldi	r18, 0x00	; 0
    31d4:	89 2b       	or	r24, r25
    31d6:	09 f0       	breq	.+2      	; 0x31da <csp_send+0x74>
    31d8:	30 e0       	ldi	r19, 0x00	; 0
    31da:	83 2f       	mov	r24, r19
    31dc:	92 2f       	mov	r25, r18
    31de:	df 91       	pop	r29
    31e0:	cf 91       	pop	r28
    31e2:	1f 91       	pop	r17
    31e4:	0f 91       	pop	r16
    31e6:	ff 90       	pop	r15
    31e8:	ef 90       	pop	r14
    31ea:	df 90       	pop	r13
    31ec:	cf 90       	pop	r12
    31ee:	bf 90       	pop	r11
    31f0:	af 90       	pop	r10
    31f2:	9f 90       	pop	r9
    31f4:	8f 90       	pop	r8
    31f6:	08 95       	ret

000031f8 <csp_malloc>:
    31f8:	0c 94 54 23 	jmp	0x46a8	; 0x46a8 <pvPortMalloc>

000031fc <csp_free>:
    31fc:	0c 94 19 23 	jmp	0x4632	; 0x4632 <vPortFree>

00003200 <csp_port_get_socket>:
    3200:	80 32       	cpi	r24, 0x20	; 32
    3202:	91 05       	cpc	r25, r1
    3204:	b8 f4       	brcc	.+46     	; 0x3234 <csp_port_get_socket+0x34>
    3206:	fc 01       	movw	r30, r24
    3208:	ee 0f       	add	r30, r30
    320a:	ff 1f       	adc	r31, r31
    320c:	8e 0f       	add	r24, r30
    320e:	9f 1f       	adc	r25, r31
    3210:	fc 01       	movw	r30, r24
    3212:	ee 53       	subi	r30, 0x3E	; 62
    3214:	fa 4f       	sbci	r31, 0xFA	; 250
    3216:	80 81       	ld	r24, Z
    3218:	81 30       	cpi	r24, 0x01	; 1
    321a:	19 f4       	brne	.+6      	; 0x3222 <csp_port_get_socket+0x22>
    321c:	81 81       	ldd	r24, Z+1	; 0x01
    321e:	92 81       	ldd	r25, Z+2	; 0x02
    3220:	08 95       	ret
    3222:	80 91 22 06 	lds	r24, 0x0622	; 0x800622 <ports+0x60>
    3226:	81 30       	cpi	r24, 0x01	; 1
    3228:	29 f4       	brne	.+10     	; 0x3234 <csp_port_get_socket+0x34>
    322a:	80 91 23 06 	lds	r24, 0x0623	; 0x800623 <ports+0x61>
    322e:	90 91 24 06 	lds	r25, 0x0624	; 0x800624 <ports+0x62>
    3232:	08 95       	ret
    3234:	80 e0       	ldi	r24, 0x00	; 0
    3236:	90 e0       	ldi	r25, 0x00	; 0
    3238:	08 95       	ret

0000323a <csp_port_init>:
    323a:	83 e6       	ldi	r24, 0x63	; 99
    323c:	e2 ec       	ldi	r30, 0xC2	; 194
    323e:	f5 e0       	ldi	r31, 0x05	; 5
    3240:	df 01       	movw	r26, r30
    3242:	1d 92       	st	X+, r1
    3244:	8a 95       	dec	r24
    3246:	e9 f7       	brne	.-6      	; 0x3242 <csp_port_init+0x8>
    3248:	80 e0       	ldi	r24, 0x00	; 0
    324a:	90 e0       	ldi	r25, 0x00	; 0
    324c:	08 95       	ret

0000324e <csp_listen>:
    324e:	cf 93       	push	r28
    3250:	df 93       	push	r29
    3252:	9c 01       	movw	r18, r24
    3254:	89 2b       	or	r24, r25
    3256:	91 f0       	breq	.+36     	; 0x327c <csp_listen+0x2e>
    3258:	cb 01       	movw	r24, r22
    325a:	e9 01       	movw	r28, r18
    325c:	62 e0       	ldi	r22, 0x02	; 2
    325e:	70 e0       	ldi	r23, 0x00	; 0
    3260:	3b d1       	rcall	.+630    	; 0x34d8 <csp_queue_create>
    3262:	9f 87       	std	Y+15, r25	; 0x0f
    3264:	8e 87       	std	Y+14, r24	; 0x0e
    3266:	21 e0       	ldi	r18, 0x01	; 1
    3268:	30 e0       	ldi	r19, 0x00	; 0
    326a:	89 2b       	or	r24, r25
    326c:	11 f0       	breq	.+4      	; 0x3272 <csp_listen+0x24>
    326e:	20 e0       	ldi	r18, 0x00	; 0
    3270:	30 e0       	ldi	r19, 0x00	; 0
    3272:	88 27       	eor	r24, r24
    3274:	99 27       	eor	r25, r25
    3276:	82 1b       	sub	r24, r18
    3278:	93 0b       	sbc	r25, r19
    327a:	02 c0       	rjmp	.+4      	; 0x3280 <csp_listen+0x32>
    327c:	8e ef       	ldi	r24, 0xFE	; 254
    327e:	9f ef       	ldi	r25, 0xFF	; 255
    3280:	df 91       	pop	r29
    3282:	cf 91       	pop	r28
    3284:	08 95       	ret

00003286 <csp_bind>:
    3286:	0f 93       	push	r16
    3288:	1f 93       	push	r17
    328a:	cf 93       	push	r28
    328c:	df 93       	push	r29
    328e:	00 97       	sbiw	r24, 0x00	; 0
    3290:	09 f4       	brne	.+2      	; 0x3294 <csp_bind+0xe>
    3292:	4b c0       	rjmp	.+150    	; 0x332a <csp_bind+0xa4>
    3294:	8c 01       	movw	r16, r24
    3296:	61 32       	cpi	r22, 0x21	; 33
    3298:	80 f0       	brcs	.+32     	; 0x32ba <csp_bind+0x34>
    329a:	1f 92       	push	r1
    329c:	80 e2       	ldi	r24, 0x20	; 32
    329e:	8f 93       	push	r24
    32a0:	8d e1       	ldi	r24, 0x1D	; 29
    32a2:	9e e0       	ldi	r25, 0x0E	; 14
    32a4:	9f 93       	push	r25
    32a6:	8f 93       	push	r24
    32a8:	1f 92       	push	r1
    32aa:	0e 94 fe 10 	call	0x21fc	; 0x21fc <do_csp_debug>
    32ae:	0f 90       	pop	r0
    32b0:	0f 90       	pop	r0
    32b2:	0f 90       	pop	r0
    32b4:	0f 90       	pop	r0
    32b6:	0f 90       	pop	r0
    32b8:	38 c0       	rjmp	.+112    	; 0x332a <csp_bind+0xa4>
    32ba:	c6 2f       	mov	r28, r22
    32bc:	d0 e0       	ldi	r29, 0x00	; 0
    32be:	ce 01       	movw	r24, r28
    32c0:	88 0f       	add	r24, r24
    32c2:	99 1f       	adc	r25, r25
    32c4:	c8 0f       	add	r28, r24
    32c6:	d9 1f       	adc	r29, r25
    32c8:	ce 53       	subi	r28, 0x3E	; 62
    32ca:	da 4f       	sbci	r29, 0xFA	; 250
    32cc:	88 81       	ld	r24, Y
    32ce:	88 23       	and	r24, r24
    32d0:	89 f0       	breq	.+34     	; 0x32f4 <csp_bind+0x6e>
    32d2:	1f 92       	push	r1
    32d4:	6f 93       	push	r22
    32d6:	83 e0       	ldi	r24, 0x03	; 3
    32d8:	9e e0       	ldi	r25, 0x0E	; 14
    32da:	9f 93       	push	r25
    32dc:	8f 93       	push	r24
    32de:	1f 92       	push	r1
    32e0:	0e 94 fe 10 	call	0x21fc	; 0x21fc <do_csp_debug>
    32e4:	0f 90       	pop	r0
    32e6:	0f 90       	pop	r0
    32e8:	0f 90       	pop	r0
    32ea:	0f 90       	pop	r0
    32ec:	0f 90       	pop	r0
    32ee:	8c ef       	ldi	r24, 0xFC	; 252
    32f0:	9f ef       	ldi	r25, 0xFF	; 255
    32f2:	1d c0       	rjmp	.+58     	; 0x332e <csp_bind+0xa8>
    32f4:	1f 92       	push	r1
    32f6:	6f 93       	push	r22
    32f8:	1f 93       	push	r17
    32fa:	0f 93       	push	r16
    32fc:	86 ee       	ldi	r24, 0xE6	; 230
    32fe:	9d e0       	ldi	r25, 0x0D	; 13
    3300:	9f 93       	push	r25
    3302:	8f 93       	push	r24
    3304:	82 e0       	ldi	r24, 0x02	; 2
    3306:	8f 93       	push	r24
    3308:	0e 94 fe 10 	call	0x21fc	; 0x21fc <do_csp_debug>
    330c:	1a 83       	std	Y+2, r17	; 0x02
    330e:	09 83       	std	Y+1, r16	; 0x01
    3310:	81 e0       	ldi	r24, 0x01	; 1
    3312:	88 83       	st	Y, r24
    3314:	8d b7       	in	r24, 0x3d	; 61
    3316:	9e b7       	in	r25, 0x3e	; 62
    3318:	07 96       	adiw	r24, 0x07	; 7
    331a:	0f b6       	in	r0, 0x3f	; 63
    331c:	f8 94       	cli
    331e:	9e bf       	out	0x3e, r25	; 62
    3320:	0f be       	out	0x3f, r0	; 63
    3322:	8d bf       	out	0x3d, r24	; 61
    3324:	80 e0       	ldi	r24, 0x00	; 0
    3326:	90 e0       	ldi	r25, 0x00	; 0
    3328:	02 c0       	rjmp	.+4      	; 0x332e <csp_bind+0xa8>
    332a:	8e ef       	ldi	r24, 0xFE	; 254
    332c:	9f ef       	ldi	r25, 0xFF	; 255
    332e:	df 91       	pop	r29
    3330:	cf 91       	pop	r28
    3332:	1f 91       	pop	r17
    3334:	0f 91       	pop	r16
    3336:	08 95       	ret

00003338 <csp_qfifo_init>:
    3338:	80 91 25 06 	lds	r24, 0x0625	; 0x800625 <qfifo>
    333c:	90 91 26 06 	lds	r25, 0x0626	; 0x800626 <qfifo+0x1>
    3340:	89 2b       	or	r24, r25
    3342:	19 f0       	breq	.+6      	; 0x334a <csp_qfifo_init+0x12>
    3344:	80 e0       	ldi	r24, 0x00	; 0
    3346:	90 e0       	ldi	r25, 0x00	; 0
    3348:	08 95       	ret
    334a:	64 e0       	ldi	r22, 0x04	; 4
    334c:	70 e0       	ldi	r23, 0x00	; 0
    334e:	8a e0       	ldi	r24, 0x0A	; 10
    3350:	90 e0       	ldi	r25, 0x00	; 0
    3352:	c2 d0       	rcall	.+388    	; 0x34d8 <csp_queue_create>
    3354:	90 93 26 06 	sts	0x0626, r25	; 0x800626 <qfifo+0x1>
    3358:	80 93 25 06 	sts	0x0625, r24	; 0x800625 <qfifo>
    335c:	89 2b       	or	r24, r25
    335e:	91 f7       	brne	.-28     	; 0x3344 <csp_qfifo_init+0xc>
    3360:	8f ef       	ldi	r24, 0xFF	; 255
    3362:	9f ef       	ldi	r25, 0xFF	; 255
    3364:	08 95       	ret

00003366 <csp_qfifo_read>:
    3366:	2f ef       	ldi	r18, 0xFF	; 255
    3368:	3f ef       	ldi	r19, 0xFF	; 255
    336a:	40 e0       	ldi	r20, 0x00	; 0
    336c:	50 e0       	ldi	r21, 0x00	; 0
    336e:	bc 01       	movw	r22, r24
    3370:	80 91 25 06 	lds	r24, 0x0625	; 0x800625 <qfifo>
    3374:	90 91 26 06 	lds	r25, 0x0626	; 0x800626 <qfifo+0x1>
    3378:	dd d0       	rcall	.+442    	; 0x3534 <csp_queue_dequeue>
    337a:	01 97       	sbiw	r24, 0x01	; 1
    337c:	19 f4       	brne	.+6      	; 0x3384 <csp_qfifo_read+0x1e>
    337e:	80 e0       	ldi	r24, 0x00	; 0
    3380:	90 e0       	ldi	r25, 0x00	; 0
    3382:	08 95       	ret
    3384:	8d ef       	ldi	r24, 0xFD	; 253
    3386:	9f ef       	ldi	r25, 0xFF	; 255
    3388:	08 95       	ret

0000338a <csp_qfifo_write>:
    338a:	cf 92       	push	r12
    338c:	df 92       	push	r13
    338e:	ef 92       	push	r14
    3390:	ff 92       	push	r15
    3392:	0f 93       	push	r16
    3394:	1f 93       	push	r17
    3396:	cf 93       	push	r28
    3398:	df 93       	push	r29
    339a:	00 d0       	rcall	.+0      	; 0x339c <csp_qfifo_write+0x12>
    339c:	1f 92       	push	r1
    339e:	cd b7       	in	r28, 0x3d	; 61
    33a0:	de b7       	in	r29, 0x3e	; 62
    33a2:	7c 01       	movw	r14, r24
    33a4:	8b 01       	movw	r16, r22
    33a6:	6a 01       	movw	r12, r20
    33a8:	00 97       	sbiw	r24, 0x00	; 0
    33aa:	49 f4       	brne	.+18     	; 0x33be <csp_qfifo_write+0x34>
    33ac:	8b ec       	ldi	r24, 0xCB	; 203
    33ae:	9e e0       	ldi	r25, 0x0E	; 14
    33b0:	9f 93       	push	r25
    33b2:	8f 93       	push	r24
    33b4:	81 e0       	ldi	r24, 0x01	; 1
    33b6:	8f 93       	push	r24
    33b8:	0e 94 fe 10 	call	0x21fc	; 0x21fc <do_csp_debug>
    33bc:	7d c0       	rjmp	.+250    	; 0x34b8 <csp_qfifo_write+0x12e>
    33be:	61 15       	cp	r22, r1
    33c0:	71 05       	cpc	r23, r1
    33c2:	a1 f4       	brne	.+40     	; 0x33ec <csp_qfifo_write+0x62>
    33c4:	81 ea       	ldi	r24, 0xA1	; 161
    33c6:	9e e0       	ldi	r25, 0x0E	; 14
    33c8:	9f 93       	push	r25
    33ca:	8f 93       	push	r24
    33cc:	81 e0       	ldi	r24, 0x01	; 1
    33ce:	8f 93       	push	r24
    33d0:	0e 94 fe 10 	call	0x21fc	; 0x21fc <do_csp_debug>
    33d4:	0f 90       	pop	r0
    33d6:	0f 90       	pop	r0
    33d8:	0f 90       	pop	r0
    33da:	c7 01       	movw	r24, r14
    33dc:	cd 28       	or	r12, r13
    33de:	19 f4       	brne	.+6      	; 0x33e6 <csp_qfifo_write+0x5c>
    33e0:	0e 94 ed 0c 	call	0x19da	; 0x19da <csp_buffer_free>
    33e4:	6c c0       	rjmp	.+216    	; 0x34be <csp_qfifo_write+0x134>
    33e6:	0e 94 bd 0c 	call	0x197a	; 0x197a <csp_buffer_free_isr>
    33ea:	69 c0       	rjmp	.+210    	; 0x34be <csp_qfifo_write+0x134>
    33ec:	7a 83       	std	Y+2, r23	; 0x02
    33ee:	69 83       	std	Y+1, r22	; 0x01
    33f0:	9c 83       	std	Y+4, r25	; 0x04
    33f2:	8b 83       	std	Y+3, r24	; 0x03
    33f4:	80 91 25 06 	lds	r24, 0x0625	; 0x800625 <qfifo>
    33f8:	90 91 26 06 	lds	r25, 0x0626	; 0x800626 <qfifo+0x1>
    33fc:	41 15       	cp	r20, r1
    33fe:	51 05       	cpc	r21, r1
    3400:	31 f5       	brne	.+76     	; 0x344e <csp_qfifo_write+0xc4>
    3402:	20 e0       	ldi	r18, 0x00	; 0
    3404:	30 e0       	ldi	r19, 0x00	; 0
    3406:	a9 01       	movw	r20, r18
    3408:	be 01       	movw	r22, r28
    340a:	6f 5f       	subi	r22, 0xFF	; 255
    340c:	7f 4f       	sbci	r23, 0xFF	; 255
    340e:	67 d0       	rcall	.+206    	; 0x34de <csp_queue_enqueue>
    3410:	01 97       	sbiw	r24, 0x01	; 1
    3412:	d9 f5       	brne	.+118    	; 0x348a <csp_qfifo_write+0x100>
    3414:	f8 01       	movw	r30, r16
    3416:	85 85       	ldd	r24, Z+13	; 0x0d
    3418:	96 85       	ldd	r25, Z+14	; 0x0e
    341a:	a7 85       	ldd	r26, Z+15	; 0x0f
    341c:	b0 89       	ldd	r27, Z+16	; 0x10
    341e:	01 96       	adiw	r24, 0x01	; 1
    3420:	a1 1d       	adc	r26, r1
    3422:	b1 1d       	adc	r27, r1
    3424:	85 87       	std	Z+13, r24	; 0x0d
    3426:	96 87       	std	Z+14, r25	; 0x0e
    3428:	a7 87       	std	Z+15, r26	; 0x0f
    342a:	b0 8b       	std	Z+16, r27	; 0x10
    342c:	f7 01       	movw	r30, r14
    342e:	20 85       	ldd	r18, Z+8	; 0x08
    3430:	31 85       	ldd	r19, Z+9	; 0x09
    3432:	f8 01       	movw	r30, r16
    3434:	81 a5       	ldd	r24, Z+41	; 0x29
    3436:	92 a5       	ldd	r25, Z+42	; 0x2a
    3438:	a3 a5       	ldd	r26, Z+43	; 0x2b
    343a:	b4 a5       	ldd	r27, Z+44	; 0x2c
    343c:	82 0f       	add	r24, r18
    343e:	93 1f       	adc	r25, r19
    3440:	a1 1d       	adc	r26, r1
    3442:	b1 1d       	adc	r27, r1
    3444:	81 a7       	std	Z+41, r24	; 0x29
    3446:	92 a7       	std	Z+42, r25	; 0x2a
    3448:	a3 a7       	std	Z+43, r26	; 0x2b
    344a:	b4 a7       	std	Z+44, r27	; 0x2c
    344c:	38 c0       	rjmp	.+112    	; 0x34be <csp_qfifo_write+0x134>
    344e:	be 01       	movw	r22, r28
    3450:	6f 5f       	subi	r22, 0xFF	; 255
    3452:	7f 4f       	sbci	r23, 0xFF	; 255
    3454:	68 d0       	rcall	.+208    	; 0x3526 <csp_queue_enqueue_isr>
    3456:	01 97       	sbiw	r24, 0x01	; 1
    3458:	e9 f2       	breq	.-70     	; 0x3414 <csp_qfifo_write+0x8a>
    345a:	8d e6       	ldi	r24, 0x6D	; 109
    345c:	9e e0       	ldi	r25, 0x0E	; 14
    345e:	9f 93       	push	r25
    3460:	8f 93       	push	r24
    3462:	81 e0       	ldi	r24, 0x01	; 1
    3464:	8f 93       	push	r24
    3466:	0e 94 fe 10 	call	0x21fc	; 0x21fc <do_csp_debug>
    346a:	f8 01       	movw	r30, r16
    346c:	81 8d       	ldd	r24, Z+25	; 0x19
    346e:	92 8d       	ldd	r25, Z+26	; 0x1a
    3470:	a3 8d       	ldd	r26, Z+27	; 0x1b
    3472:	b4 8d       	ldd	r27, Z+28	; 0x1c
    3474:	01 96       	adiw	r24, 0x01	; 1
    3476:	a1 1d       	adc	r26, r1
    3478:	b1 1d       	adc	r27, r1
    347a:	81 8f       	std	Z+25, r24	; 0x19
    347c:	92 8f       	std	Z+26, r25	; 0x1a
    347e:	a3 8f       	std	Z+27, r26	; 0x1b
    3480:	b4 8f       	std	Z+28, r27	; 0x1c
    3482:	c7 01       	movw	r24, r14
    3484:	0e 94 bd 0c 	call	0x197a	; 0x197a <csp_buffer_free_isr>
    3488:	17 c0       	rjmp	.+46     	; 0x34b8 <csp_qfifo_write+0x12e>
    348a:	8d e6       	ldi	r24, 0x6D	; 109
    348c:	9e e0       	ldi	r25, 0x0E	; 14
    348e:	9f 93       	push	r25
    3490:	8f 93       	push	r24
    3492:	81 e0       	ldi	r24, 0x01	; 1
    3494:	8f 93       	push	r24
    3496:	0e 94 fe 10 	call	0x21fc	; 0x21fc <do_csp_debug>
    349a:	f8 01       	movw	r30, r16
    349c:	81 8d       	ldd	r24, Z+25	; 0x19
    349e:	92 8d       	ldd	r25, Z+26	; 0x1a
    34a0:	a3 8d       	ldd	r26, Z+27	; 0x1b
    34a2:	b4 8d       	ldd	r27, Z+28	; 0x1c
    34a4:	01 96       	adiw	r24, 0x01	; 1
    34a6:	a1 1d       	adc	r26, r1
    34a8:	b1 1d       	adc	r27, r1
    34aa:	81 8f       	std	Z+25, r24	; 0x19
    34ac:	92 8f       	std	Z+26, r25	; 0x1a
    34ae:	a3 8f       	std	Z+27, r26	; 0x1b
    34b0:	b4 8f       	std	Z+28, r27	; 0x1c
    34b2:	c7 01       	movw	r24, r14
    34b4:	0e 94 ed 0c 	call	0x19da	; 0x19da <csp_buffer_free>
    34b8:	0f 90       	pop	r0
    34ba:	0f 90       	pop	r0
    34bc:	0f 90       	pop	r0
    34be:	0f 90       	pop	r0
    34c0:	0f 90       	pop	r0
    34c2:	0f 90       	pop	r0
    34c4:	0f 90       	pop	r0
    34c6:	df 91       	pop	r29
    34c8:	cf 91       	pop	r28
    34ca:	1f 91       	pop	r17
    34cc:	0f 91       	pop	r16
    34ce:	ff 90       	pop	r15
    34d0:	ef 90       	pop	r14
    34d2:	df 90       	pop	r13
    34d4:	cf 90       	pop	r12
    34d6:	08 95       	ret

000034d8 <csp_queue_create>:
    34d8:	40 e0       	ldi	r20, 0x00	; 0
    34da:	0c 94 f9 2c 	jmp	0x59f2	; 0x59f2 <xQueueGenericCreate>

000034de <csp_queue_enqueue>:
    34de:	0f 93       	push	r16
    34e0:	1f 93       	push	r17
    34e2:	cf 93       	push	r28
    34e4:	df 93       	push	r29
    34e6:	ec 01       	movw	r28, r24
    34e8:	8b 01       	movw	r16, r22
    34ea:	ca 01       	movw	r24, r20
    34ec:	b9 01       	movw	r22, r18
    34ee:	6f 3f       	cpi	r22, 0xFF	; 255
    34f0:	2f ef       	ldi	r18, 0xFF	; 255
    34f2:	72 07       	cpc	r23, r18
    34f4:	81 05       	cpc	r24, r1
    34f6:	91 05       	cpc	r25, r1
    34f8:	41 f0       	breq	.+16     	; 0x350a <csp_queue_enqueue+0x2c>
    34fa:	2a e0       	ldi	r18, 0x0A	; 10
    34fc:	30 e0       	ldi	r19, 0x00	; 0
    34fe:	40 e0       	ldi	r20, 0x00	; 0
    3500:	50 e0       	ldi	r21, 0x00	; 0
    3502:	0e 94 15 3b 	call	0x762a	; 0x762a <__udivmodsi4>
    3506:	ca 01       	movw	r24, r20
    3508:	b9 01       	movw	r22, r18
    350a:	20 e0       	ldi	r18, 0x00	; 0
    350c:	ab 01       	movw	r20, r22
    350e:	b8 01       	movw	r22, r16
    3510:	ce 01       	movw	r24, r28
    3512:	0e 94 24 2d 	call	0x5a48	; 0x5a48 <xQueueGenericSend>
    3516:	08 2e       	mov	r0, r24
    3518:	00 0c       	add	r0, r0
    351a:	99 0b       	sbc	r25, r25
    351c:	df 91       	pop	r29
    351e:	cf 91       	pop	r28
    3520:	1f 91       	pop	r17
    3522:	0f 91       	pop	r16
    3524:	08 95       	ret

00003526 <csp_queue_enqueue_isr>:
    3526:	20 e0       	ldi	r18, 0x00	; 0
    3528:	0e 94 c4 2d 	call	0x5b88	; 0x5b88 <xQueueGenericSendFromISR>
    352c:	08 2e       	mov	r0, r24
    352e:	00 0c       	add	r0, r0
    3530:	99 0b       	sbc	r25, r25
    3532:	08 95       	ret

00003534 <csp_queue_dequeue>:
    3534:	0f 93       	push	r16
    3536:	1f 93       	push	r17
    3538:	cf 93       	push	r28
    353a:	df 93       	push	r29
    353c:	ec 01       	movw	r28, r24
    353e:	8b 01       	movw	r16, r22
    3540:	2f 3f       	cpi	r18, 0xFF	; 255
    3542:	8f ef       	ldi	r24, 0xFF	; 255
    3544:	38 07       	cpc	r19, r24
    3546:	41 05       	cpc	r20, r1
    3548:	51 05       	cpc	r21, r1
    354a:	41 f0       	breq	.+16     	; 0x355c <csp_queue_dequeue+0x28>
    354c:	ca 01       	movw	r24, r20
    354e:	b9 01       	movw	r22, r18
    3550:	2a e0       	ldi	r18, 0x0A	; 10
    3552:	30 e0       	ldi	r19, 0x00	; 0
    3554:	40 e0       	ldi	r20, 0x00	; 0
    3556:	50 e0       	ldi	r21, 0x00	; 0
    3558:	0e 94 15 3b 	call	0x762a	; 0x762a <__udivmodsi4>
    355c:	a9 01       	movw	r20, r18
    355e:	b8 01       	movw	r22, r16
    3560:	ce 01       	movw	r24, r28
    3562:	0e 94 f1 2d 	call	0x5be2	; 0x5be2 <xQueueReceive>
    3566:	08 2e       	mov	r0, r24
    3568:	00 0c       	add	r0, r0
    356a:	99 0b       	sbc	r25, r25
    356c:	df 91       	pop	r29
    356e:	cf 91       	pop	r28
    3570:	1f 91       	pop	r17
    3572:	0f 91       	pop	r16
    3574:	08 95       	ret

00003576 <csp_queue_size>:
    3576:	0e 94 52 2f 	call	0x5ea4	; 0x5ea4 <uxQueueMessagesWaiting>
    357a:	90 e0       	ldi	r25, 0x00	; 0
    357c:	08 95       	ret

0000357e <csp_route_security_check.isra.0>:
    357e:	0f 93       	push	r16
    3580:	1f 93       	push	r17
    3582:	cf 93       	push	r28
    3584:	df 93       	push	r29
    3586:	ea 01       	movw	r28, r20
    3588:	89 01       	movw	r16, r18
    358a:	f9 01       	movw	r30, r18
    358c:	82 85       	ldd	r24, Z+10	; 0x0a
    358e:	80 ff       	sbrs	r24, 0
    3590:	31 c0       	rjmp	.+98     	; 0x35f4 <csp_route_security_check.isra.0+0x76>
    3592:	80 85       	ldd	r24, Z+8	; 0x08
    3594:	91 85       	ldd	r25, Z+9	; 0x09
    3596:	84 30       	cpi	r24, 0x04	; 4
    3598:	91 05       	cpc	r25, r1
    359a:	70 f4       	brcc	.+28     	; 0x35b8 <csp_route_security_check.isra.0+0x3a>
    359c:	9f 93       	push	r25
    359e:	8f 93       	push	r24
    35a0:	81 e7       	ldi	r24, 0x71	; 113
    35a2:	9f e0       	ldi	r25, 0x0F	; 15
    35a4:	9f 93       	push	r25
    35a6:	8f 93       	push	r24
    35a8:	1f 92       	push	r1
    35aa:	0e 94 fe 10 	call	0x21fc	; 0x21fc <do_csp_debug>
    35ae:	0f 90       	pop	r0
    35b0:	0f 90       	pop	r0
    35b2:	0f 90       	pop	r0
    35b4:	0f 90       	pop	r0
    35b6:	0f 90       	pop	r0
    35b8:	60 e0       	ldi	r22, 0x00	; 0
    35ba:	c8 01       	movw	r24, r16
    35bc:	0e 94 ae 10 	call	0x215c	; 0x215c <csp_crc32_verify>
    35c0:	89 2b       	or	r24, r25
    35c2:	29 f1       	breq	.+74     	; 0x360e <csp_route_security_check.isra.0+0x90>
    35c4:	85 e4       	ldi	r24, 0x45	; 69
    35c6:	9f e0       	ldi	r25, 0x0F	; 15
    35c8:	9f 93       	push	r25
    35ca:	8f 93       	push	r24
    35cc:	1f 92       	push	r1
    35ce:	0e 94 fe 10 	call	0x21fc	; 0x21fc <do_csp_debug>
    35d2:	88 81       	ld	r24, Y
    35d4:	99 81       	ldd	r25, Y+1	; 0x01
    35d6:	aa 81       	ldd	r26, Y+2	; 0x02
    35d8:	bb 81       	ldd	r27, Y+3	; 0x03
    35da:	01 96       	adiw	r24, 0x01	; 1
    35dc:	a1 1d       	adc	r26, r1
    35de:	b1 1d       	adc	r27, r1
    35e0:	88 83       	st	Y, r24
    35e2:	99 83       	std	Y+1, r25	; 0x01
    35e4:	aa 83       	std	Y+2, r26	; 0x02
    35e6:	bb 83       	std	Y+3, r27	; 0x03
    35e8:	0f 90       	pop	r0
    35ea:	0f 90       	pop	r0
    35ec:	0f 90       	pop	r0
    35ee:	8a e9       	ldi	r24, 0x9A	; 154
    35f0:	9f ef       	ldi	r25, 0xFF	; 255
    35f2:	0f c0       	rjmp	.+30     	; 0x3612 <csp_route_security_check.isra.0+0x94>
    35f4:	66 ff       	sbrs	r22, 6
    35f6:	0b c0       	rjmp	.+22     	; 0x360e <csp_route_security_check.isra.0+0x90>
    35f8:	85 e1       	ldi	r24, 0x15	; 21
    35fa:	9f e0       	ldi	r25, 0x0F	; 15
    35fc:	9f 93       	push	r25
    35fe:	8f 93       	push	r24
    3600:	81 e0       	ldi	r24, 0x01	; 1
    3602:	8f 93       	push	r24
    3604:	0e 94 fe 10 	call	0x21fc	; 0x21fc <do_csp_debug>
    3608:	0f 90       	pop	r0
    360a:	0f 90       	pop	r0
    360c:	0f 90       	pop	r0
    360e:	80 e0       	ldi	r24, 0x00	; 0
    3610:	90 e0       	ldi	r25, 0x00	; 0
    3612:	df 91       	pop	r29
    3614:	cf 91       	pop	r28
    3616:	1f 91       	pop	r17
    3618:	0f 91       	pop	r16
    361a:	08 95       	ret

0000361c <csp_route_work>:
    361c:	cf 92       	push	r12
    361e:	df 92       	push	r13
    3620:	ef 92       	push	r14
    3622:	ff 92       	push	r15
    3624:	0f 93       	push	r16
    3626:	1f 93       	push	r17
    3628:	cf 93       	push	r28
    362a:	df 93       	push	r29
    362c:	00 d0       	rcall	.+0      	; 0x362e <csp_route_work+0x12>
    362e:	00 d0       	rcall	.+0      	; 0x3630 <csp_route_work+0x14>
    3630:	cd b7       	in	r28, 0x3d	; 61
    3632:	de b7       	in	r29, 0x3e	; 62
    3634:	ce 01       	movw	r24, r28
    3636:	01 96       	adiw	r24, 0x01	; 1
    3638:	96 de       	rcall	.-724    	; 0x3366 <csp_qfifo_read>
    363a:	6c 01       	movw	r12, r24
    363c:	89 2b       	or	r24, r25
    363e:	09 f0       	breq	.+2      	; 0x3642 <csp_route_work+0x26>
    3640:	16 c1       	rjmp	.+556    	; 0x386e <csp_route_work+0x252>
    3642:	eb 81       	ldd	r30, Y+3	; 0x03
    3644:	fc 81       	ldd	r31, Y+4	; 0x04
    3646:	fe 83       	std	Y+6, r31	; 0x06
    3648:	ed 83       	std	Y+5, r30	; 0x05
    364a:	a9 81       	ldd	r26, Y+1	; 0x01
    364c:	ba 81       	ldd	r27, Y+2	; 0x02
    364e:	11 96       	adiw	r26, 0x01	; 1
    3650:	8c 91       	ld	r24, X
    3652:	11 97       	sbiw	r26, 0x01	; 1
    3654:	8f 93       	push	r24
    3656:	8c 91       	ld	r24, X
    3658:	8f 93       	push	r24
    365a:	81 85       	ldd	r24, Z+9	; 0x09
    365c:	8f 93       	push	r24
    365e:	80 85       	ldd	r24, Z+8	; 0x08
    3660:	8f 93       	push	r24
    3662:	82 85       	ldd	r24, Z+10	; 0x0a
    3664:	1f 92       	push	r1
    3666:	8f 93       	push	r24
    3668:	85 85       	ldd	r24, Z+13	; 0x0d
    366a:	82 95       	swap	r24
    366c:	86 95       	lsr	r24
    366e:	86 95       	lsr	r24
    3670:	83 70       	andi	r24, 0x03	; 3
    3672:	1f 92       	push	r1
    3674:	8f 93       	push	r24
    3676:	83 85       	ldd	r24, Z+11	; 0x0b
    3678:	8f 73       	andi	r24, 0x3F	; 63
    367a:	1f 92       	push	r1
    367c:	8f 93       	push	r24
    367e:	83 85       	ldd	r24, Z+11	; 0x0b
    3680:	98 2f       	mov	r25, r24
    3682:	92 95       	swap	r25
    3684:	96 95       	lsr	r25
    3686:	96 95       	lsr	r25
    3688:	93 70       	andi	r25, 0x03	; 3
    368a:	84 85       	ldd	r24, Z+12	; 0x0c
    368c:	8f 70       	andi	r24, 0x0F	; 15
    368e:	88 0f       	add	r24, r24
    3690:	88 0f       	add	r24, r24
    3692:	89 2b       	or	r24, r25
    3694:	1f 92       	push	r1
    3696:	8f 93       	push	r24
    3698:	84 85       	ldd	r24, Z+12	; 0x0c
    369a:	98 2f       	mov	r25, r24
    369c:	92 95       	swap	r25
    369e:	9f 70       	andi	r25, 0x0F	; 15
    36a0:	85 85       	ldd	r24, Z+13	; 0x0d
    36a2:	81 70       	andi	r24, 0x01	; 1
    36a4:	82 95       	swap	r24
    36a6:	80 7f       	andi	r24, 0xF0	; 240
    36a8:	89 2b       	or	r24, r25
    36aa:	1f 92       	push	r1
    36ac:	8f 93       	push	r24
    36ae:	85 85       	ldd	r24, Z+13	; 0x0d
    36b0:	86 95       	lsr	r24
    36b2:	8f 71       	andi	r24, 0x1F	; 31
    36b4:	1f 92       	push	r1
    36b6:	8f 93       	push	r24
    36b8:	86 ee       	ldi	r24, 0xE6	; 230
    36ba:	90 e1       	ldi	r25, 0x10	; 16
    36bc:	9f 93       	push	r25
    36be:	8f 93       	push	r24
    36c0:	84 e0       	ldi	r24, 0x04	; 4
    36c2:	8f 93       	push	r24
    36c4:	0e 94 fe 10 	call	0x21fc	; 0x21fc <do_csp_debug>
    36c8:	ed 81       	ldd	r30, Y+5	; 0x05
    36ca:	fe 81       	ldd	r31, Y+6	; 0x06
    36cc:	04 85       	ldd	r16, Z+12	; 0x0c
    36ce:	80 2f       	mov	r24, r16
    36d0:	82 95       	swap	r24
    36d2:	8f 70       	andi	r24, 0x0F	; 15
    36d4:	05 85       	ldd	r16, Z+13	; 0x0d
    36d6:	01 70       	andi	r16, 0x01	; 1
    36d8:	02 95       	swap	r16
    36da:	00 7f       	andi	r16, 0xF0	; 240
    36dc:	08 2b       	or	r16, r24
    36de:	10 e0       	ldi	r17, 0x00	; 0
    36e0:	8f db       	rcall	.-2274   	; 0x2e00 <csp_get_address>
    36e2:	90 e0       	ldi	r25, 0x00	; 0
    36e4:	0f b6       	in	r0, 0x3f	; 63
    36e6:	f8 94       	cli
    36e8:	de bf       	out	0x3e, r29	; 62
    36ea:	0f be       	out	0x3f, r0	; 63
    36ec:	cd bf       	out	0x3d, r28	; 61
    36ee:	ed 81       	ldd	r30, Y+5	; 0x05
    36f0:	fe 81       	ldd	r31, Y+6	; 0x06
    36f2:	08 17       	cp	r16, r24
    36f4:	19 07       	cpc	r17, r25
    36f6:	81 f1       	breq	.+96     	; 0x3758 <csp_route_work+0x13c>
    36f8:	84 85       	ldd	r24, Z+12	; 0x0c
    36fa:	98 2f       	mov	r25, r24
    36fc:	92 95       	swap	r25
    36fe:	9f 70       	andi	r25, 0x0F	; 15
    3700:	85 85       	ldd	r24, Z+13	; 0x0d
    3702:	81 70       	andi	r24, 0x01	; 1
    3704:	82 95       	swap	r24
    3706:	80 7f       	andi	r24, 0xF0	; 240
    3708:	89 2b       	or	r24, r25
    370a:	8f 31       	cpi	r24, 0x1F	; 31
    370c:	29 f1       	breq	.+74     	; 0x3758 <csp_route_work+0x13c>
    370e:	81 d1       	rcall	.+770    	; 0x3a12 <csp_rtable_find_iface>
    3710:	9c 01       	movw	r18, r24
    3712:	ed 81       	ldd	r30, Y+5	; 0x05
    3714:	fe 81       	ldd	r31, Y+6	; 0x06
    3716:	00 97       	sbiw	r24, 0x00	; 0
    3718:	09 f4       	brne	.+2      	; 0x371c <csp_route_work+0x100>
    371a:	8b c0       	rjmp	.+278    	; 0x3832 <csp_route_work+0x216>
    371c:	49 81       	ldd	r20, Y+1	; 0x01
    371e:	5a 81       	ldd	r21, Y+2	; 0x02
    3720:	84 17       	cp	r24, r20
    3722:	95 07       	cpc	r25, r21
    3724:	31 f4       	brne	.+12     	; 0x3732 <csp_route_work+0x116>
    3726:	dc 01       	movw	r26, r24
    3728:	18 96       	adiw	r26, 0x08	; 8
    372a:	4c 91       	ld	r20, X
    372c:	44 23       	and	r20, r20
    372e:	09 f4       	brne	.+2      	; 0x3732 <csp_route_work+0x116>
    3730:	80 c0       	rjmp	.+256    	; 0x3832 <csp_route_work+0x216>
    3732:	62 85       	ldd	r22, Z+10	; 0x0a
    3734:	73 85       	ldd	r23, Z+11	; 0x0b
    3736:	84 85       	ldd	r24, Z+12	; 0x0c
    3738:	95 85       	ldd	r25, Z+13	; 0x0d
    373a:	e1 2c       	mov	r14, r1
    373c:	f1 2c       	mov	r15, r1
    373e:	87 01       	movw	r16, r14
    3740:	af 01       	movw	r20, r30
    3742:	1e dc       	rcall	.-1988   	; 0x2f80 <csp_send_direct>
    3744:	89 2b       	or	r24, r25
    3746:	09 f4       	brne	.+2      	; 0x374a <csp_route_work+0x12e>
    3748:	09 c1       	rjmp	.+530    	; 0x395c <csp_route_work+0x340>
    374a:	80 ed       	ldi	r24, 0xD0	; 208
    374c:	90 e1       	ldi	r25, 0x10	; 16
    374e:	9f 93       	push	r25
    3750:	8f 93       	push	r24
    3752:	81 e0       	ldi	r24, 0x01	; 1
    3754:	8f 93       	push	r24
    3756:	81 c0       	rjmp	.+258    	; 0x385a <csp_route_work+0x23e>
    3758:	09 81       	ldd	r16, Y+1	; 0x01
    375a:	1a 81       	ldd	r17, Y+2	; 0x02
    375c:	82 85       	ldd	r24, Z+10	; 0x0a
    375e:	82 ff       	sbrs	r24, 2
    3760:	03 c0       	rjmp	.+6      	; 0x3768 <csp_route_work+0x14c>
    3762:	89 e3       	ldi	r24, 0x39	; 57
    3764:	90 e1       	ldi	r25, 0x10	; 16
    3766:	04 c0       	rjmp	.+8      	; 0x3770 <csp_route_work+0x154>
    3768:	83 ff       	sbrs	r24, 3
    376a:	14 c0       	rjmp	.+40     	; 0x3794 <csp_route_work+0x178>
    376c:	81 ee       	ldi	r24, 0xE1	; 225
    376e:	9f e0       	ldi	r25, 0x0F	; 15
    3770:	9f 93       	push	r25
    3772:	8f 93       	push	r24
    3774:	1f 92       	push	r1
    3776:	0e 94 fe 10 	call	0x21fc	; 0x21fc <do_csp_debug>
    377a:	f8 01       	movw	r30, r16
    377c:	85 8d       	ldd	r24, Z+29	; 0x1d
    377e:	96 8d       	ldd	r25, Z+30	; 0x1e
    3780:	a7 8d       	ldd	r26, Z+31	; 0x1f
    3782:	b0 a1       	ldd	r27, Z+32	; 0x20
    3784:	01 96       	adiw	r24, 0x01	; 1
    3786:	a1 1d       	adc	r26, r1
    3788:	b1 1d       	adc	r27, r1
    378a:	85 8f       	std	Z+29, r24	; 0x1d
    378c:	96 8f       	std	Z+30, r25	; 0x1e
    378e:	a7 8f       	std	Z+31, r26	; 0x1f
    3790:	b0 a3       	std	Z+32, r27	; 0x20
    3792:	15 c0       	rjmp	.+42     	; 0x37be <csp_route_work+0x1a2>
    3794:	81 ff       	sbrs	r24, 1
    3796:	17 c0       	rjmp	.+46     	; 0x37c6 <csp_route_work+0x1aa>
    3798:	80 e9       	ldi	r24, 0x90	; 144
    379a:	9f e0       	ldi	r25, 0x0F	; 15
    379c:	9f 93       	push	r25
    379e:	8f 93       	push	r24
    37a0:	1f 92       	push	r1
    37a2:	0e 94 fe 10 	call	0x21fc	; 0x21fc <do_csp_debug>
    37a6:	f8 01       	movw	r30, r16
    37a8:	85 89       	ldd	r24, Z+21	; 0x15
    37aa:	96 89       	ldd	r25, Z+22	; 0x16
    37ac:	a7 89       	ldd	r26, Z+23	; 0x17
    37ae:	b0 8d       	ldd	r27, Z+24	; 0x18
    37b0:	01 96       	adiw	r24, 0x01	; 1
    37b2:	a1 1d       	adc	r26, r1
    37b4:	b1 1d       	adc	r27, r1
    37b6:	85 8b       	std	Z+21, r24	; 0x15
    37b8:	96 8b       	std	Z+22, r25	; 0x16
    37ba:	a7 8b       	std	Z+23, r26	; 0x17
    37bc:	b0 8f       	std	Z+24, r27	; 0x18
    37be:	0f 90       	pop	r0
    37c0:	0f 90       	pop	r0
    37c2:	0f 90       	pop	r0
    37c4:	23 c0       	rjmp	.+70     	; 0x380c <csp_route_work+0x1f0>
    37c6:	83 85       	ldd	r24, Z+11	; 0x0b
    37c8:	98 2f       	mov	r25, r24
    37ca:	92 95       	swap	r25
    37cc:	96 95       	lsr	r25
    37ce:	96 95       	lsr	r25
    37d0:	93 70       	andi	r25, 0x03	; 3
    37d2:	84 85       	ldd	r24, Z+12	; 0x0c
    37d4:	8f 70       	andi	r24, 0x0F	; 15
    37d6:	88 0f       	add	r24, r24
    37d8:	88 0f       	add	r24, r24
    37da:	89 2b       	or	r24, r25
    37dc:	90 e0       	ldi	r25, 0x00	; 0
    37de:	10 dd       	rcall	.-1504   	; 0x3200 <csp_port_get_socket>
    37e0:	8c 01       	movw	r16, r24
    37e2:	2d 81       	ldd	r18, Y+5	; 0x05
    37e4:	3e 81       	ldd	r19, Y+6	; 0x06
    37e6:	89 2b       	or	r24, r25
    37e8:	09 f4       	brne	.+2      	; 0x37ec <csp_route_work+0x1d0>
    37ea:	45 c0       	rjmp	.+138    	; 0x3876 <csp_route_work+0x25a>
    37ec:	d8 01       	movw	r26, r16
    37ee:	54 96       	adiw	r26, 0x14	; 20
    37f0:	6d 91       	ld	r22, X+
    37f2:	7d 91       	ld	r23, X+
    37f4:	8d 91       	ld	r24, X+
    37f6:	9c 91       	ld	r25, X
    37f8:	57 97       	sbiw	r26, 0x17	; 23
    37fa:	70 ff       	sbrs	r23, 0
    37fc:	3c c0       	rjmp	.+120    	; 0x3876 <csp_route_work+0x25a>
    37fe:	49 81       	ldd	r20, Y+1	; 0x01
    3800:	5a 81       	ldd	r21, Y+2	; 0x02
    3802:	4b 5e       	subi	r20, 0xEB	; 235
    3804:	5f 4f       	sbci	r21, 0xFF	; 255
    3806:	bb de       	rcall	.-650    	; 0x357e <csp_route_security_check.isra.0>
    3808:	97 ff       	sbrs	r25, 7
    380a:	15 c0       	rjmp	.+42     	; 0x3836 <csp_route_work+0x21a>
    380c:	8d 81       	ldd	r24, Y+5	; 0x05
    380e:	9e 81       	ldd	r25, Y+6	; 0x06
    3810:	0e 94 ed 0c 	call	0x19da	; 0x19da <csp_buffer_free>
    3814:	a3 c0       	rjmp	.+326    	; 0x395c <csp_route_work+0x340>
    3816:	49 81       	ldd	r20, Y+1	; 0x01
    3818:	5a 81       	ldd	r21, Y+2	; 0x02
    381a:	4b 5e       	subi	r20, 0xEB	; 235
    381c:	5f 4f       	sbci	r21, 0xFF	; 255
    381e:	f8 01       	movw	r30, r16
    3820:	64 89       	ldd	r22, Z+20	; 0x14
    3822:	75 89       	ldd	r23, Z+21	; 0x15
    3824:	86 89       	ldd	r24, Z+22	; 0x16
    3826:	97 89       	ldd	r25, Z+23	; 0x17
    3828:	aa de       	rcall	.-684    	; 0x357e <csp_route_security_check.isra.0>
    382a:	ed 81       	ldd	r30, Y+5	; 0x05
    382c:	fe 81       	ldd	r31, Y+6	; 0x06
    382e:	97 ff       	sbrs	r25, 7
    3830:	3b c0       	rjmp	.+118    	; 0x38a8 <csp_route_work+0x28c>
    3832:	cf 01       	movw	r24, r30
    3834:	ed cf       	rjmp	.-38     	; 0x3810 <csp_route_work+0x1f4>
    3836:	20 e0       	ldi	r18, 0x00	; 0
    3838:	30 e0       	ldi	r19, 0x00	; 0
    383a:	a9 01       	movw	r20, r18
    383c:	be 01       	movw	r22, r28
    383e:	6b 5f       	subi	r22, 0xFB	; 251
    3840:	7f 4f       	sbci	r23, 0xFF	; 255
    3842:	f8 01       	movw	r30, r16
    3844:	86 85       	ldd	r24, Z+14	; 0x0e
    3846:	97 85       	ldd	r25, Z+15	; 0x0f
    3848:	4a de       	rcall	.-876    	; 0x34de <csp_queue_enqueue>
    384a:	01 97       	sbiw	r24, 0x01	; 1
    384c:	09 f4       	brne	.+2      	; 0x3850 <csp_route_work+0x234>
    384e:	86 c0       	rjmp	.+268    	; 0x395c <csp_route_work+0x340>
    3850:	84 eb       	ldi	r24, 0xB4	; 180
    3852:	90 e1       	ldi	r25, 0x10	; 16
    3854:	9f 93       	push	r25
    3856:	8f 93       	push	r24
    3858:	1f 92       	push	r1
    385a:	0e 94 fe 10 	call	0x21fc	; 0x21fc <do_csp_debug>
    385e:	8d 81       	ldd	r24, Y+5	; 0x05
    3860:	9e 81       	ldd	r25, Y+6	; 0x06
    3862:	0e 94 ed 0c 	call	0x19da	; 0x19da <csp_buffer_free>
    3866:	0f 90       	pop	r0
    3868:	0f 90       	pop	r0
    386a:	0f 90       	pop	r0
    386c:	77 c0       	rjmp	.+238    	; 0x395c <csp_route_work+0x340>
    386e:	cc 24       	eor	r12, r12
    3870:	ca 94       	dec	r12
    3872:	dc 2c       	mov	r13, r12
    3874:	73 c0       	rjmp	.+230    	; 0x395c <csp_route_work+0x340>
    3876:	d9 01       	movw	r26, r18
    3878:	1a 96       	adiw	r26, 0x0a	; 10
    387a:	6d 91       	ld	r22, X+
    387c:	7d 91       	ld	r23, X+
    387e:	8d 91       	ld	r24, X+
    3880:	9c 91       	ld	r25, X
    3882:	1d 97       	sbiw	r26, 0x0d	; 13
    3884:	20 e0       	ldi	r18, 0x00	; 0
    3886:	3f ef       	ldi	r19, 0xFF	; 255
    3888:	4f ef       	ldi	r20, 0xFF	; 255
    388a:	5f e3       	ldi	r21, 0x3F	; 63
    388c:	0e 94 06 0e 	call	0x1c0c	; 0x1c0c <csp_conn_find>
    3890:	7c 01       	movw	r14, r24
    3892:	2d 81       	ldd	r18, Y+5	; 0x05
    3894:	3e 81       	ldd	r19, Y+6	; 0x06
    3896:	00 97       	sbiw	r24, 0x00	; 0
    3898:	09 f0       	breq	.+2      	; 0x389c <csp_route_work+0x280>
    389a:	4e c0       	rjmp	.+156    	; 0x3938 <csp_route_work+0x31c>
    389c:	01 15       	cp	r16, r1
    389e:	11 05       	cpc	r17, r1
    38a0:	09 f0       	breq	.+2      	; 0x38a4 <csp_route_work+0x288>
    38a2:	b9 cf       	rjmp	.-142    	; 0x3816 <csp_route_work+0x1fa>
    38a4:	c9 01       	movw	r24, r18
    38a6:	b4 cf       	rjmp	.-152    	; 0x3810 <csp_route_work+0x1f4>
    38a8:	85 85       	ldd	r24, Z+13	; 0x0d
    38aa:	80 7c       	andi	r24, 0xC0	; 192
    38ac:	f8 2e       	mov	r15, r24
    38ae:	a8 da       	rcall	.-2736   	; 0x2e00 <csp_get_address>
    38b0:	8f 71       	andi	r24, 0x1F	; 31
    38b2:	88 0f       	add	r24, r24
    38b4:	ed 81       	ldd	r30, Y+5	; 0x05
    38b6:	fe 81       	ldd	r31, Y+6	; 0x06
    38b8:	95 85       	ldd	r25, Z+13	; 0x0d
    38ba:	96 95       	lsr	r25
    38bc:	94 fb       	bst	r25, 4
    38be:	55 27       	eor	r21, r21
    38c0:	50 f9       	bld	r21, 0
    38c2:	8f 29       	or	r24, r15
    38c4:	58 2b       	or	r21, r24
    38c6:	63 85       	ldd	r22, Z+11	; 0x0b
    38c8:	46 2f       	mov	r20, r22
    38ca:	4f 73       	andi	r20, 0x3F	; 63
    38cc:	46 95       	lsr	r20
    38ce:	46 95       	lsr	r20
    38d0:	92 95       	swap	r25
    38d2:	90 7f       	andi	r25, 0xF0	; 240
    38d4:	49 2b       	or	r20, r25
    38d6:	86 2f       	mov	r24, r22
    38d8:	82 95       	swap	r24
    38da:	86 95       	lsr	r24
    38dc:	86 95       	lsr	r24
    38de:	83 70       	andi	r24, 0x03	; 3
    38e0:	34 85       	ldd	r19, Z+12	; 0x0c
    38e2:	3f 70       	andi	r19, 0x0F	; 15
    38e4:	33 0f       	add	r19, r19
    38e6:	33 0f       	add	r19, r19
    38e8:	23 2f       	mov	r18, r19
    38ea:	28 2b       	or	r18, r24
    38ec:	36 2f       	mov	r19, r22
    38ee:	32 95       	swap	r19
    38f0:	33 0f       	add	r19, r19
    38f2:	33 0f       	add	r19, r19
    38f4:	30 7c       	andi	r19, 0xC0	; 192
    38f6:	32 2b       	or	r19, r18
    38f8:	22 85       	ldd	r18, Z+10	; 0x0a
    38fa:	62 85       	ldd	r22, Z+10	; 0x0a
    38fc:	73 85       	ldd	r23, Z+11	; 0x0b
    38fe:	84 85       	ldd	r24, Z+12	; 0x0c
    3900:	95 85       	ldd	r25, Z+13	; 0x0d
    3902:	0e 94 a6 0e 	call	0x1d4c	; 0x1d4c <csp_conn_new>
    3906:	7c 01       	movw	r14, r24
    3908:	89 2b       	or	r24, r25
    390a:	19 f4       	brne	.+6      	; 0x3912 <csp_route_work+0x2f6>
    390c:	86 e9       	ldi	r24, 0x96	; 150
    390e:	90 e1       	ldi	r25, 0x10	; 16
    3910:	a1 cf       	rjmp	.-190    	; 0x3854 <csp_route_work+0x238>
    3912:	d8 01       	movw	r26, r16
    3914:	1e 96       	adiw	r26, 0x0e	; 14
    3916:	8d 91       	ld	r24, X+
    3918:	9c 91       	ld	r25, X
    391a:	1f 97       	sbiw	r26, 0x0f	; 15
    391c:	f7 01       	movw	r30, r14
    391e:	97 87       	std	Z+15, r25	; 0x0f
    3920:	86 87       	std	Z+14, r24	; 0x0e
    3922:	54 96       	adiw	r26, 0x14	; 20
    3924:	8d 91       	ld	r24, X+
    3926:	9d 91       	ld	r25, X+
    3928:	0d 90       	ld	r0, X+
    392a:	bc 91       	ld	r27, X
    392c:	a0 2d       	mov	r26, r0
    392e:	84 8b       	std	Z+20, r24	; 0x14
    3930:	95 8b       	std	Z+21, r25	; 0x15
    3932:	a6 8b       	std	Z+22, r26	; 0x16
    3934:	b7 8b       	std	Z+23, r27	; 0x17
    3936:	0e c0       	rjmp	.+28     	; 0x3954 <csp_route_work+0x338>
    3938:	49 81       	ldd	r20, Y+1	; 0x01
    393a:	5a 81       	ldd	r21, Y+2	; 0x02
    393c:	4b 5e       	subi	r20, 0xEB	; 235
    393e:	5f 4f       	sbci	r21, 0xFF	; 255
    3940:	dc 01       	movw	r26, r24
    3942:	54 96       	adiw	r26, 0x14	; 20
    3944:	6d 91       	ld	r22, X+
    3946:	7d 91       	ld	r23, X+
    3948:	8d 91       	ld	r24, X+
    394a:	9c 91       	ld	r25, X
    394c:	57 97       	sbiw	r26, 0x17	; 23
    394e:	17 de       	rcall	.-978    	; 0x357e <csp_route_security_check.isra.0>
    3950:	97 fd       	sbrc	r25, 7
    3952:	5c cf       	rjmp	.-328    	; 0x380c <csp_route_work+0x1f0>
    3954:	6d 81       	ldd	r22, Y+5	; 0x05
    3956:	7e 81       	ldd	r23, Y+6	; 0x06
    3958:	c7 01       	movw	r24, r14
    395a:	76 d5       	rcall	.+2796   	; 0x4448 <csp_udp_new_packet>
    395c:	c6 01       	movw	r24, r12
    395e:	26 96       	adiw	r28, 0x06	; 6
    3960:	0f b6       	in	r0, 0x3f	; 63
    3962:	f8 94       	cli
    3964:	de bf       	out	0x3e, r29	; 62
    3966:	0f be       	out	0x3f, r0	; 63
    3968:	cd bf       	out	0x3d, r28	; 61
    396a:	df 91       	pop	r29
    396c:	cf 91       	pop	r28
    396e:	1f 91       	pop	r17
    3970:	0f 91       	pop	r16
    3972:	ff 90       	pop	r15
    3974:	ef 90       	pop	r14
    3976:	df 90       	pop	r13
    3978:	cf 90       	pop	r12
    397a:	08 95       	ret

0000397c <csp_task_router>:
    397c:	c2 ef       	ldi	r28, 0xF2	; 242
    397e:	de e0       	ldi	r29, 0x0E	; 14
    3980:	12 e0       	ldi	r17, 0x02	; 2
    3982:	80 e0       	ldi	r24, 0x00	; 0
    3984:	90 e0       	ldi	r25, 0x00	; 0
    3986:	0e 94 54 36 	call	0x6ca8	; 0x6ca8 <uxTaskGetStackHighWaterMark2>
    398a:	08 2f       	mov	r16, r24
    398c:	f9 2e       	mov	r15, r25
    398e:	80 e0       	ldi	r24, 0x00	; 0
    3990:	90 e0       	ldi	r25, 0x00	; 0
    3992:	0e 94 8e 32 	call	0x651c	; 0x651c <pcTaskGetName>
    3996:	ff 92       	push	r15
    3998:	0f 93       	push	r16
    399a:	9f 93       	push	r25
    399c:	8f 93       	push	r24
    399e:	df 93       	push	r29
    39a0:	cf 93       	push	r28
    39a2:	1f 93       	push	r17
    39a4:	0e 94 fe 10 	call	0x21fc	; 0x21fc <do_csp_debug>
    39a8:	6f ef       	ldi	r22, 0xFF	; 255
    39aa:	7f ef       	ldi	r23, 0xFF	; 255
    39ac:	80 e0       	ldi	r24, 0x00	; 0
    39ae:	90 e0       	ldi	r25, 0x00	; 0
    39b0:	35 de       	rcall	.-918    	; 0x361c <csp_route_work>
    39b2:	8d b7       	in	r24, 0x3d	; 61
    39b4:	9e b7       	in	r25, 0x3e	; 62
    39b6:	07 96       	adiw	r24, 0x07	; 7
    39b8:	0f b6       	in	r0, 0x3f	; 63
    39ba:	f8 94       	cli
    39bc:	9e bf       	out	0x3e, r25	; 62
    39be:	0f be       	out	0x3f, r0	; 63
    39c0:	8d bf       	out	0x3d, r24	; 61
    39c2:	df cf       	rjmp	.-66     	; 0x3982 <csp_task_router+0x6>

000039c4 <csp_route_start_task>:
    39c4:	ef 92       	push	r14
    39c6:	ff 92       	push	r15
    39c8:	0f 93       	push	r16
    39ca:	1f 93       	push	r17
    39cc:	27 e2       	ldi	r18, 0x27	; 39
    39ce:	e2 2e       	mov	r14, r18
    39d0:	26 e0       	ldi	r18, 0x06	; 6
    39d2:	f2 2e       	mov	r15, r18
    39d4:	8b 01       	movw	r16, r22
    39d6:	20 e0       	ldi	r18, 0x00	; 0
    39d8:	30 e0       	ldi	r19, 0x00	; 0
    39da:	ac 01       	movw	r20, r24
    39dc:	6e e8       	ldi	r22, 0x8E	; 142
    39de:	72 e0       	ldi	r23, 0x02	; 2
    39e0:	8e eb       	ldi	r24, 0xBE	; 190
    39e2:	9c e1       	ldi	r25, 0x1C	; 28
    39e4:	08 d5       	rcall	.+2576   	; 0x43f6 <csp_thread_create>
    39e6:	89 2b       	or	r24, r25
    39e8:	69 f0       	breq	.+26     	; 0x3a04 <csp_route_start_task+0x40>
    39ea:	89 ef       	ldi	r24, 0xF9	; 249
    39ec:	9e e0       	ldi	r25, 0x0E	; 14
    39ee:	9f 93       	push	r25
    39f0:	8f 93       	push	r24
    39f2:	1f 92       	push	r1
    39f4:	0e 94 fe 10 	call	0x21fc	; 0x21fc <do_csp_debug>
    39f8:	0f 90       	pop	r0
    39fa:	0f 90       	pop	r0
    39fc:	0f 90       	pop	r0
    39fe:	8f ef       	ldi	r24, 0xFF	; 255
    3a00:	9f ef       	ldi	r25, 0xFF	; 255
    3a02:	02 c0       	rjmp	.+4      	; 0x3a08 <csp_route_start_task+0x44>
    3a04:	80 e0       	ldi	r24, 0x00	; 0
    3a06:	90 e0       	ldi	r25, 0x00	; 0
    3a08:	1f 91       	pop	r17
    3a0a:	0f 91       	pop	r16
    3a0c:	ff 90       	pop	r15
    3a0e:	ef 90       	pop	r14
    3a10:	08 95       	ret

00003a12 <csp_rtable_find_iface>:
    3a12:	90 e0       	ldi	r25, 0x00	; 0
    3a14:	fc 01       	movw	r30, r24
    3a16:	ee 0f       	add	r30, r30
    3a18:	ff 1f       	adc	r31, r31
    3a1a:	e8 0f       	add	r30, r24
    3a1c:	f9 1f       	adc	r31, r25
    3a1e:	e7 5d       	subi	r30, 0xD7	; 215
    3a20:	f9 4f       	sbci	r31, 0xF9	; 249
    3a22:	80 81       	ld	r24, Z
    3a24:	91 81       	ldd	r25, Z+1	; 0x01
    3a26:	89 2b       	or	r24, r25
    3a28:	41 f4       	brne	.+16     	; 0x3a3a <csp_rtable_find_iface+0x28>
    3a2a:	80 91 89 06 	lds	r24, 0x0689	; 0x800689 <routes+0x60>
    3a2e:	90 91 8a 06 	lds	r25, 0x068A	; 0x80068a <routes+0x61>
    3a32:	00 97       	sbiw	r24, 0x00	; 0
    3a34:	21 f0       	breq	.+8      	; 0x3a3e <csp_rtable_find_iface+0x2c>
    3a36:	e9 e8       	ldi	r30, 0x89	; 137
    3a38:	f6 e0       	ldi	r31, 0x06	; 6
    3a3a:	80 81       	ld	r24, Z
    3a3c:	91 81       	ldd	r25, Z+1	; 0x01
    3a3e:	08 95       	ret

00003a40 <csp_rtable_find_mac>:
    3a40:	90 e0       	ldi	r25, 0x00	; 0
    3a42:	fc 01       	movw	r30, r24
    3a44:	ee 0f       	add	r30, r30
    3a46:	ff 1f       	adc	r31, r31
    3a48:	e8 0f       	add	r30, r24
    3a4a:	f9 1f       	adc	r31, r25
    3a4c:	e7 5d       	subi	r30, 0xD7	; 215
    3a4e:	f9 4f       	sbci	r31, 0xF9	; 249
    3a50:	80 81       	ld	r24, Z
    3a52:	91 81       	ldd	r25, Z+1	; 0x01
    3a54:	89 2b       	or	r24, r25
    3a56:	51 f4       	brne	.+20     	; 0x3a6c <csp_rtable_find_mac+0x2c>
    3a58:	80 91 89 06 	lds	r24, 0x0689	; 0x800689 <routes+0x60>
    3a5c:	90 91 8a 06 	lds	r25, 0x068A	; 0x80068a <routes+0x61>
    3a60:	89 2b       	or	r24, r25
    3a62:	11 f4       	brne	.+4      	; 0x3a68 <csp_rtable_find_mac+0x28>
    3a64:	8f ef       	ldi	r24, 0xFF	; 255
    3a66:	08 95       	ret
    3a68:	e9 e8       	ldi	r30, 0x89	; 137
    3a6a:	f6 e0       	ldi	r31, 0x06	; 6
    3a6c:	82 81       	ldd	r24, Z+2	; 0x02
    3a6e:	08 95       	ret

00003a70 <csp_rtable_set>:
    3a70:	0f 93       	push	r16
    3a72:	1f 93       	push	r17
    3a74:	cf 93       	push	r28
    3a76:	df 93       	push	r29
    3a78:	41 15       	cp	r20, r1
    3a7a:	51 05       	cpc	r21, r1
    3a7c:	29 f1       	breq	.+74     	; 0x3ac8 <csp_rtable_set+0x58>
    3a7e:	d2 2f       	mov	r29, r18
    3a80:	8a 01       	movw	r16, r20
    3a82:	c8 2f       	mov	r28, r24
    3a84:	ca 01       	movw	r24, r20
    3a86:	0e 94 c0 11 	call	0x2380	; 0x2380 <csp_iflist_add>
    3a8a:	c1 32       	cpi	r28, 0x21	; 33
    3a8c:	78 f4       	brcc	.+30     	; 0x3aac <csp_rtable_set+0x3c>
    3a8e:	8c 2f       	mov	r24, r28
    3a90:	90 e0       	ldi	r25, 0x00	; 0
    3a92:	fc 01       	movw	r30, r24
    3a94:	ee 0f       	add	r30, r30
    3a96:	ff 1f       	adc	r31, r31
    3a98:	e8 0f       	add	r30, r24
    3a9a:	f9 1f       	adc	r31, r25
    3a9c:	e7 5d       	subi	r30, 0xD7	; 215
    3a9e:	f9 4f       	sbci	r31, 0xF9	; 249
    3aa0:	11 83       	std	Z+1, r17	; 0x01
    3aa2:	00 83       	st	Z, r16
    3aa4:	d2 83       	std	Z+2, r29	; 0x02
    3aa6:	80 e0       	ldi	r24, 0x00	; 0
    3aa8:	90 e0       	ldi	r25, 0x00	; 0
    3aaa:	10 c0       	rjmp	.+32     	; 0x3acc <csp_rtable_set+0x5c>
    3aac:	1f 92       	push	r1
    3aae:	cf 93       	push	r28
    3ab0:	81 e6       	ldi	r24, 0x61	; 97
    3ab2:	91 e1       	ldi	r25, 0x11	; 17
    3ab4:	9f 93       	push	r25
    3ab6:	8f 93       	push	r24
    3ab8:	1f 92       	push	r1
    3aba:	0e 94 fe 10 	call	0x21fc	; 0x21fc <do_csp_debug>
    3abe:	0f 90       	pop	r0
    3ac0:	0f 90       	pop	r0
    3ac2:	0f 90       	pop	r0
    3ac4:	0f 90       	pop	r0
    3ac6:	0f 90       	pop	r0
    3ac8:	8e ef       	ldi	r24, 0xFE	; 254
    3aca:	9f ef       	ldi	r25, 0xFF	; 255
    3acc:	df 91       	pop	r29
    3ace:	cf 91       	pop	r28
    3ad0:	1f 91       	pop	r17
    3ad2:	0f 91       	pop	r16
    3ad4:	08 95       	ret

00003ad6 <csp_rtable_print>:
    3ad6:	ef 92       	push	r14
    3ad8:	ff 92       	push	r15
    3ada:	0f 93       	push	r16
    3adc:	1f 93       	push	r17
    3ade:	cf 93       	push	r28
    3ae0:	df 93       	push	r29
    3ae2:	86 e4       	ldi	r24, 0x46	; 70
    3ae4:	91 e1       	ldi	r25, 0x11	; 17
    3ae6:	9f 93       	push	r25
    3ae8:	8f 93       	push	r24
    3aea:	0e 94 7f 3c 	call	0x78fe	; 0x78fe <printf_P>
    3aee:	09 e2       	ldi	r16, 0x29	; 41
    3af0:	16 e0       	ldi	r17, 0x06	; 6
    3af2:	0f 90       	pop	r0
    3af4:	0f 90       	pop	r0
    3af6:	c0 e0       	ldi	r28, 0x00	; 0
    3af8:	d0 e0       	ldi	r29, 0x00	; 0
    3afa:	86 e3       	ldi	r24, 0x36	; 54
    3afc:	e8 2e       	mov	r14, r24
    3afe:	81 e1       	ldi	r24, 0x11	; 17
    3b00:	f8 2e       	mov	r15, r24
    3b02:	d8 01       	movw	r26, r16
    3b04:	ed 91       	ld	r30, X+
    3b06:	fc 91       	ld	r31, X
    3b08:	11 97       	sbiw	r26, 0x01	; 1
    3b0a:	30 97       	sbiw	r30, 0x00	; 0
    3b0c:	d9 f0       	breq	.+54     	; 0x3b44 <csp_rtable_print+0x6e>
    3b0e:	12 96       	adiw	r26, 0x02	; 2
    3b10:	8c 91       	ld	r24, X
    3b12:	8f 3f       	cpi	r24, 0xFF	; 255
    3b14:	11 f0       	breq	.+4      	; 0x3b1a <csp_rtable_print+0x44>
    3b16:	90 e0       	ldi	r25, 0x00	; 0
    3b18:	01 c0       	rjmp	.+2      	; 0x3b1c <csp_rtable_print+0x46>
    3b1a:	ce 01       	movw	r24, r28
    3b1c:	9f 93       	push	r25
    3b1e:	8f 93       	push	r24
    3b20:	81 81       	ldd	r24, Z+1	; 0x01
    3b22:	8f 93       	push	r24
    3b24:	80 81       	ld	r24, Z
    3b26:	8f 93       	push	r24
    3b28:	df 93       	push	r29
    3b2a:	cf 93       	push	r28
    3b2c:	ff 92       	push	r15
    3b2e:	ef 92       	push	r14
    3b30:	0e 94 7f 3c 	call	0x78fe	; 0x78fe <printf_P>
    3b34:	ad b7       	in	r26, 0x3d	; 61
    3b36:	be b7       	in	r27, 0x3e	; 62
    3b38:	18 96       	adiw	r26, 0x08	; 8
    3b3a:	0f b6       	in	r0, 0x3f	; 63
    3b3c:	f8 94       	cli
    3b3e:	be bf       	out	0x3e, r27	; 62
    3b40:	0f be       	out	0x3f, r0	; 63
    3b42:	ad bf       	out	0x3d, r26	; 61
    3b44:	21 96       	adiw	r28, 0x01	; 1
    3b46:	0d 5f       	subi	r16, 0xFD	; 253
    3b48:	1f 4f       	sbci	r17, 0xFF	; 255
    3b4a:	c0 32       	cpi	r28, 0x20	; 32
    3b4c:	d1 05       	cpc	r29, r1
    3b4e:	c9 f6       	brne	.-78     	; 0x3b02 <csp_rtable_print+0x2c>
    3b50:	80 91 8b 06 	lds	r24, 0x068B	; 0x80068b <routes+0x62>
    3b54:	1f 92       	push	r1
    3b56:	8f 93       	push	r24
    3b58:	e0 91 89 06 	lds	r30, 0x0689	; 0x800689 <routes+0x60>
    3b5c:	f0 91 8a 06 	lds	r31, 0x068A	; 0x80068a <routes+0x61>
    3b60:	81 81       	ldd	r24, Z+1	; 0x01
    3b62:	8f 93       	push	r24
    3b64:	80 81       	ld	r24, Z
    3b66:	8f 93       	push	r24
    3b68:	85 e2       	ldi	r24, 0x25	; 37
    3b6a:	91 e1       	ldi	r25, 0x11	; 17
    3b6c:	9f 93       	push	r25
    3b6e:	8f 93       	push	r24
    3b70:	0e 94 7f 3c 	call	0x78fe	; 0x78fe <printf_P>
    3b74:	0f 90       	pop	r0
    3b76:	0f 90       	pop	r0
    3b78:	0f 90       	pop	r0
    3b7a:	0f 90       	pop	r0
    3b7c:	0f 90       	pop	r0
    3b7e:	0f 90       	pop	r0
    3b80:	df 91       	pop	r29
    3b82:	cf 91       	pop	r28
    3b84:	1f 91       	pop	r17
    3b86:	0f 91       	pop	r16
    3b88:	ff 90       	pop	r15
    3b8a:	ef 90       	pop	r14
    3b8c:	08 95       	ret

00003b8e <csp_mutex_create>:
    3b8e:	cf 93       	push	r28
    3b90:	df 93       	push	r29
    3b92:	ec 01       	movw	r28, r24
    3b94:	81 e0       	ldi	r24, 0x01	; 1
    3b96:	0e 94 ac 2d 	call	0x5b58	; 0x5b58 <xQueueCreateMutex>
    3b9a:	9c 01       	movw	r18, r24
    3b9c:	99 83       	std	Y+1, r25	; 0x01
    3b9e:	88 83       	st	Y, r24
    3ba0:	81 e0       	ldi	r24, 0x01	; 1
    3ba2:	90 e0       	ldi	r25, 0x00	; 0
    3ba4:	23 2b       	or	r18, r19
    3ba6:	11 f4       	brne	.+4      	; 0x3bac <csp_mutex_create+0x1e>
    3ba8:	80 e0       	ldi	r24, 0x00	; 0
    3baa:	90 e0       	ldi	r25, 0x00	; 0
    3bac:	df 91       	pop	r29
    3bae:	cf 91       	pop	r28
    3bb0:	08 95       	ret

00003bb2 <csp_bin_sem_create>:
    3bb2:	cf 93       	push	r28
    3bb4:	df 93       	push	r29
    3bb6:	ec 01       	movw	r28, r24
    3bb8:	43 e0       	ldi	r20, 0x03	; 3
    3bba:	60 e0       	ldi	r22, 0x00	; 0
    3bbc:	81 e0       	ldi	r24, 0x01	; 1
    3bbe:	0e 94 f9 2c 	call	0x59f2	; 0x59f2 <xQueueGenericCreate>
    3bc2:	99 83       	std	Y+1, r25	; 0x01
    3bc4:	88 83       	st	Y, r24
    3bc6:	00 97       	sbiw	r24, 0x00	; 0
    3bc8:	39 f0       	breq	.+14     	; 0x3bd8 <csp_bin_sem_create+0x26>
    3bca:	20 e0       	ldi	r18, 0x00	; 0
    3bcc:	40 e0       	ldi	r20, 0x00	; 0
    3bce:	50 e0       	ldi	r21, 0x00	; 0
    3bd0:	60 e0       	ldi	r22, 0x00	; 0
    3bd2:	70 e0       	ldi	r23, 0x00	; 0
    3bd4:	0e 94 24 2d 	call	0x5a48	; 0x5a48 <xQueueGenericSend>
    3bd8:	81 e0       	ldi	r24, 0x01	; 1
    3bda:	90 e0       	ldi	r25, 0x00	; 0
    3bdc:	df 91       	pop	r29
    3bde:	cf 91       	pop	r28
    3be0:	08 95       	ret

00003be2 <csp_bin_sem_wait>:
    3be2:	cf 92       	push	r12
    3be4:	df 92       	push	r13
    3be6:	ef 92       	push	r14
    3be8:	ff 92       	push	r15
    3bea:	cf 93       	push	r28
    3bec:	df 93       	push	r29
    3bee:	ec 01       	movw	r28, r24
    3bf0:	6a 01       	movw	r12, r20
    3bf2:	7b 01       	movw	r14, r22
    3bf4:	df 93       	push	r29
    3bf6:	cf 93       	push	r28
    3bf8:	82 e9       	ldi	r24, 0x92	; 146
    3bfa:	91 e1       	ldi	r25, 0x11	; 17
    3bfc:	9f 93       	push	r25
    3bfe:	8f 93       	push	r24
    3c00:	86 e0       	ldi	r24, 0x06	; 6
    3c02:	8f 93       	push	r24
    3c04:	0e 94 fe 10 	call	0x21fc	; 0x21fc <do_csp_debug>
    3c08:	0f 90       	pop	r0
    3c0a:	0f 90       	pop	r0
    3c0c:	0f 90       	pop	r0
    3c0e:	0f 90       	pop	r0
    3c10:	0f 90       	pop	r0
    3c12:	8f ef       	ldi	r24, 0xFF	; 255
    3c14:	c8 16       	cp	r12, r24
    3c16:	d8 06       	cpc	r13, r24
    3c18:	e1 04       	cpc	r14, r1
    3c1a:	f1 04       	cpc	r15, r1
    3c1c:	51 f0       	breq	.+20     	; 0x3c32 <csp_bin_sem_wait+0x50>
    3c1e:	c7 01       	movw	r24, r14
    3c20:	b6 01       	movw	r22, r12
    3c22:	2a e0       	ldi	r18, 0x0A	; 10
    3c24:	30 e0       	ldi	r19, 0x00	; 0
    3c26:	40 e0       	ldi	r20, 0x00	; 0
    3c28:	50 e0       	ldi	r21, 0x00	; 0
    3c2a:	0e 94 15 3b 	call	0x762a	; 0x762a <__udivmodsi4>
    3c2e:	69 01       	movw	r12, r18
    3c30:	7a 01       	movw	r14, r20
    3c32:	b6 01       	movw	r22, r12
    3c34:	88 81       	ld	r24, Y
    3c36:	99 81       	ldd	r25, Y+1	; 0x01
    3c38:	0e 94 73 2e 	call	0x5ce6	; 0x5ce6 <xQueueSemaphoreTake>
    3c3c:	21 e0       	ldi	r18, 0x01	; 1
    3c3e:	30 e0       	ldi	r19, 0x00	; 0
    3c40:	81 30       	cpi	r24, 0x01	; 1
    3c42:	11 f0       	breq	.+4      	; 0x3c48 <csp_bin_sem_wait+0x66>
    3c44:	20 e0       	ldi	r18, 0x00	; 0
    3c46:	30 e0       	ldi	r19, 0x00	; 0
    3c48:	c9 01       	movw	r24, r18
    3c4a:	df 91       	pop	r29
    3c4c:	cf 91       	pop	r28
    3c4e:	ff 90       	pop	r15
    3c50:	ef 90       	pop	r14
    3c52:	df 90       	pop	r13
    3c54:	cf 90       	pop	r12
    3c56:	08 95       	ret

00003c58 <csp_bin_sem_post>:
    3c58:	cf 93       	push	r28
    3c5a:	df 93       	push	r29
    3c5c:	ec 01       	movw	r28, r24
    3c5e:	df 93       	push	r29
    3c60:	cf 93       	push	r28
    3c62:	89 e8       	ldi	r24, 0x89	; 137
    3c64:	91 e1       	ldi	r25, 0x11	; 17
    3c66:	9f 93       	push	r25
    3c68:	8f 93       	push	r24
    3c6a:	86 e0       	ldi	r24, 0x06	; 6
    3c6c:	8f 93       	push	r24
    3c6e:	0e 94 fe 10 	call	0x21fc	; 0x21fc <do_csp_debug>
    3c72:	20 e0       	ldi	r18, 0x00	; 0
    3c74:	40 e0       	ldi	r20, 0x00	; 0
    3c76:	50 e0       	ldi	r21, 0x00	; 0
    3c78:	60 e0       	ldi	r22, 0x00	; 0
    3c7a:	70 e0       	ldi	r23, 0x00	; 0
    3c7c:	88 81       	ld	r24, Y
    3c7e:	99 81       	ldd	r25, Y+1	; 0x01
    3c80:	0e 94 24 2d 	call	0x5a48	; 0x5a48 <xQueueGenericSend>
    3c84:	21 e0       	ldi	r18, 0x01	; 1
    3c86:	30 e0       	ldi	r19, 0x00	; 0
    3c88:	0f 90       	pop	r0
    3c8a:	0f 90       	pop	r0
    3c8c:	0f 90       	pop	r0
    3c8e:	0f 90       	pop	r0
    3c90:	0f 90       	pop	r0
    3c92:	81 30       	cpi	r24, 0x01	; 1
    3c94:	11 f0       	breq	.+4      	; 0x3c9a <csp_bin_sem_post+0x42>
    3c96:	20 e0       	ldi	r18, 0x00	; 0
    3c98:	30 e0       	ldi	r19, 0x00	; 0
    3c9a:	c9 01       	movw	r24, r18
    3c9c:	df 91       	pop	r29
    3c9e:	cf 91       	pop	r28
    3ca0:	08 95       	ret

00003ca2 <csp_ping>:
    3ca2:	3f 92       	push	r3
    3ca4:	4f 92       	push	r4
    3ca6:	5f 92       	push	r5
    3ca8:	6f 92       	push	r6
    3caa:	7f 92       	push	r7
    3cac:	8f 92       	push	r8
    3cae:	9f 92       	push	r9
    3cb0:	af 92       	push	r10
    3cb2:	bf 92       	push	r11
    3cb4:	cf 92       	push	r12
    3cb6:	df 92       	push	r13
    3cb8:	ef 92       	push	r14
    3cba:	ff 92       	push	r15
    3cbc:	0f 93       	push	r16
    3cbe:	1f 93       	push	r17
    3cc0:	cf 93       	push	r28
    3cc2:	df 93       	push	r29
    3cc4:	38 2e       	mov	r3, r24
    3cc6:	4a 01       	movw	r8, r20
    3cc8:	5b 01       	movw	r10, r22
    3cca:	e9 01       	movw	r28, r18
    3ccc:	a7 d3       	rcall	.+1870   	; 0x441c <csp_get_ms>
    3cce:	2b 01       	movw	r4, r22
    3cd0:	3c 01       	movw	r6, r24
    3cd2:	c0 2e       	mov	r12, r16
    3cd4:	d1 2c       	mov	r13, r1
    3cd6:	e1 2c       	mov	r14, r1
    3cd8:	f1 2c       	mov	r15, r1
    3cda:	95 01       	movw	r18, r10
    3cdc:	84 01       	movw	r16, r8
    3cde:	41 e0       	ldi	r20, 0x01	; 1
    3ce0:	63 2d       	mov	r22, r3
    3ce2:	82 e0       	ldi	r24, 0x02	; 2
    3ce4:	0e 94 18 0f 	call	0x1e30	; 0x1e30 <csp_connect>
    3ce8:	8c 01       	movw	r16, r24
    3cea:	89 2b       	or	r24, r25
    3cec:	19 f4       	brne	.+6      	; 0x3cf4 <csp_ping+0x52>
    3cee:	8f ef       	ldi	r24, 0xFF	; 255
    3cf0:	9f ef       	ldi	r25, 0xFF	; 255
    3cf2:	4f c0       	rjmp	.+158    	; 0x3d92 <csp_ping+0xf0>
    3cf4:	ce 01       	movw	r24, r28
    3cf6:	0e 94 59 0c 	call	0x18b2	; 0x18b2 <csp_buffer_get>
    3cfa:	7c 01       	movw	r14, r24
    3cfc:	00 97       	sbiw	r24, 0x00	; 0
    3cfe:	81 f1       	breq	.+96     	; 0x3d60 <csp_ping+0xbe>
    3d00:	fc 01       	movw	r30, r24
    3d02:	d1 87       	std	Z+9, r29	; 0x09
    3d04:	c0 87       	std	Z+8, r28	; 0x08
    3d06:	3e 96       	adiw	r30, 0x0e	; 14
    3d08:	80 e0       	ldi	r24, 0x00	; 0
    3d0a:	90 e0       	ldi	r25, 0x00	; 0
    3d0c:	8c 17       	cp	r24, r28
    3d0e:	9d 07       	cpc	r25, r29
    3d10:	19 f0       	breq	.+6      	; 0x3d18 <csp_ping+0x76>
    3d12:	81 93       	st	Z+, r24
    3d14:	01 96       	adiw	r24, 0x01	; 1
    3d16:	fa cf       	rjmp	.-12     	; 0x3d0c <csp_ping+0x6a>
    3d18:	20 e0       	ldi	r18, 0x00	; 0
    3d1a:	30 e0       	ldi	r19, 0x00	; 0
    3d1c:	a9 01       	movw	r20, r18
    3d1e:	b7 01       	movw	r22, r14
    3d20:	c8 01       	movw	r24, r16
    3d22:	21 da       	rcall	.-3006   	; 0x3166 <csp_send>
    3d24:	89 2b       	or	r24, r25
    3d26:	71 f1       	breq	.+92     	; 0x3d84 <csp_ping+0xe2>
    3d28:	b5 01       	movw	r22, r10
    3d2a:	a4 01       	movw	r20, r8
    3d2c:	c8 01       	movw	r24, r16
    3d2e:	06 d9       	rcall	.-3572   	; 0x2f3c <csp_read>
    3d30:	7c 01       	movw	r14, r24
    3d32:	00 97       	sbiw	r24, 0x00	; 0
    3d34:	a9 f0       	breq	.+42     	; 0x3d60 <csp_ping+0xbe>
    3d36:	fc 01       	movw	r30, r24
    3d38:	3e 96       	adiw	r30, 0x0e	; 14
    3d3a:	80 e0       	ldi	r24, 0x00	; 0
    3d3c:	90 e0       	ldi	r25, 0x00	; 0
    3d3e:	8c 17       	cp	r24, r28
    3d40:	9d 07       	cpc	r25, r29
    3d42:	49 f0       	breq	.+18     	; 0x3d56 <csp_ping+0xb4>
    3d44:	21 91       	ld	r18, Z+
    3d46:	30 e0       	ldi	r19, 0x00	; 0
    3d48:	ac 01       	movw	r20, r24
    3d4a:	55 27       	eor	r21, r21
    3d4c:	24 17       	cp	r18, r20
    3d4e:	35 07       	cpc	r19, r21
    3d50:	c9 f4       	brne	.+50     	; 0x3d84 <csp_ping+0xe2>
    3d52:	01 96       	adiw	r24, 0x01	; 1
    3d54:	f4 cf       	rjmp	.-24     	; 0x3d3e <csp_ping+0x9c>
    3d56:	81 2c       	mov	r8, r1
    3d58:	91 2c       	mov	r9, r1
    3d5a:	54 01       	movw	r10, r8
    3d5c:	83 94       	inc	r8
    3d5e:	15 c0       	rjmp	.+42     	; 0x3d8a <csp_ping+0xe8>
    3d60:	81 2c       	mov	r8, r1
    3d62:	91 2c       	mov	r9, r1
    3d64:	54 01       	movw	r10, r8
    3d66:	c8 01       	movw	r24, r16
    3d68:	0e 94 d6 0e 	call	0x1dac	; 0x1dac <csp_close>
    3d6c:	57 d3       	rcall	.+1710   	; 0x441c <csp_get_ms>
    3d6e:	dc 01       	movw	r26, r24
    3d70:	cb 01       	movw	r24, r22
    3d72:	84 19       	sub	r24, r4
    3d74:	95 09       	sbc	r25, r5
    3d76:	a6 09       	sbc	r26, r6
    3d78:	b7 09       	sbc	r27, r7
    3d7a:	89 28       	or	r8, r9
    3d7c:	8a 28       	or	r8, r10
    3d7e:	8b 28       	or	r8, r11
    3d80:	41 f4       	brne	.+16     	; 0x3d92 <csp_ping+0xf0>
    3d82:	b5 cf       	rjmp	.-150    	; 0x3cee <csp_ping+0x4c>
    3d84:	81 2c       	mov	r8, r1
    3d86:	91 2c       	mov	r9, r1
    3d88:	54 01       	movw	r10, r8
    3d8a:	c7 01       	movw	r24, r14
    3d8c:	0e 94 ed 0c 	call	0x19da	; 0x19da <csp_buffer_free>
    3d90:	ea cf       	rjmp	.-44     	; 0x3d66 <csp_ping+0xc4>
    3d92:	df 91       	pop	r29
    3d94:	cf 91       	pop	r28
    3d96:	1f 91       	pop	r17
    3d98:	0f 91       	pop	r16
    3d9a:	ff 90       	pop	r15
    3d9c:	ef 90       	pop	r14
    3d9e:	df 90       	pop	r13
    3da0:	cf 90       	pop	r12
    3da2:	bf 90       	pop	r11
    3da4:	af 90       	pop	r10
    3da6:	9f 90       	pop	r9
    3da8:	8f 90       	pop	r8
    3daa:	7f 90       	pop	r7
    3dac:	6f 90       	pop	r6
    3dae:	5f 90       	pop	r5
    3db0:	4f 90       	pop	r4
    3db2:	3f 90       	pop	r3
    3db4:	08 95       	ret

00003db6 <wrap_32bit_memcpy>:
    3db6:	cf 92       	push	r12
    3db8:	df 92       	push	r13
    3dba:	ef 92       	push	r14
    3dbc:	ff 92       	push	r15
    3dbe:	0f 93       	push	r16
    3dc0:	1f 93       	push	r17
    3dc2:	dc 01       	movw	r26, r24
    3dc4:	cb 01       	movw	r24, r22
    3dc6:	69 01       	movw	r12, r18
    3dc8:	7a 01       	movw	r14, r20
    3dca:	a8 01       	movw	r20, r16
    3dcc:	b6 01       	movw	r22, r12
    3dce:	0e 94 e3 3b 	call	0x77c6	; 0x77c6 <memcpy>
    3dd2:	bc 01       	movw	r22, r24
    3dd4:	80 e0       	ldi	r24, 0x00	; 0
    3dd6:	90 e0       	ldi	r25, 0x00	; 0
    3dd8:	1f 91       	pop	r17
    3dda:	0f 91       	pop	r16
    3ddc:	ff 90       	pop	r15
    3dde:	ef 90       	pop	r14
    3de0:	df 90       	pop	r13
    3de2:	cf 90       	pop	r12
    3de4:	08 95       	ret

00003de6 <csp_service_handler>:
    3de6:	8f 92       	push	r8
    3de8:	9f 92       	push	r9
    3dea:	af 92       	push	r10
    3dec:	bf 92       	push	r11
    3dee:	cf 92       	push	r12
    3df0:	df 92       	push	r13
    3df2:	ef 92       	push	r14
    3df4:	ff 92       	push	r15
    3df6:	0f 93       	push	r16
    3df8:	1f 93       	push	r17
    3dfa:	cf 93       	push	r28
    3dfc:	df 93       	push	r29
    3dfe:	7c 01       	movw	r14, r24
    3e00:	eb 01       	movw	r28, r22
    3e02:	0e 94 cf 0f 	call	0x1f9e	; 0x1f9e <csp_conn_dport>
    3e06:	87 30       	cpi	r24, 0x07	; 7
    3e08:	91 05       	cpc	r25, r1
    3e0a:	08 f0       	brcs	.+2      	; 0x3e0e <csp_service_handler+0x28>
    3e0c:	17 c2       	rjmp	.+1070   	; 0x423c <csp_service_handler+0x456>
    3e0e:	fc 01       	movw	r30, r24
    3e10:	88 27       	eor	r24, r24
    3e12:	ee 58       	subi	r30, 0x8E	; 142
    3e14:	ff 4f       	sbci	r31, 0xFF	; 255
    3e16:	8f 4f       	sbci	r24, 0xFF	; 255
    3e18:	0c 94 53 3b 	jmp	0x76a6	; 0x76a6 <__tablejump2__>
    3e1c:	8e 85       	ldd	r24, Y+14	; 0x0e
    3e1e:	81 11       	cpse	r24, r1
    3e20:	0d c2       	rjmp	.+1050   	; 0x423c <csp_service_handler+0x456>
    3e22:	8f 85       	ldd	r24, Y+15	; 0x0f
    3e24:	83 30       	cpi	r24, 0x03	; 3
    3e26:	09 f4       	brne	.+2      	; 0x3e2a <csp_service_handler+0x44>
    3e28:	6b c0       	rjmp	.+214    	; 0x3f00 <csp_service_handler+0x11a>
    3e2a:	30 f4       	brcc	.+12     	; 0x3e38 <csp_service_handler+0x52>
    3e2c:	81 30       	cpi	r24, 0x01	; 1
    3e2e:	69 f0       	breq	.+26     	; 0x3e4a <csp_service_handler+0x64>
    3e30:	82 30       	cpi	r24, 0x02	; 2
    3e32:	09 f4       	brne	.+2      	; 0x3e36 <csp_service_handler+0x50>
    3e34:	50 c0       	rjmp	.+160    	; 0x3ed6 <csp_service_handler+0xf0>
    3e36:	5a c1       	rjmp	.+692    	; 0x40ec <csp_service_handler+0x306>
    3e38:	85 30       	cpi	r24, 0x05	; 5
    3e3a:	09 f4       	brne	.+2      	; 0x3e3e <csp_service_handler+0x58>
    3e3c:	fa c0       	rjmp	.+500    	; 0x4032 <csp_service_handler+0x24c>
    3e3e:	08 f4       	brcc	.+2      	; 0x3e42 <csp_service_handler+0x5c>
    3e40:	e1 c0       	rjmp	.+450    	; 0x4004 <csp_service_handler+0x21e>
    3e42:	86 30       	cpi	r24, 0x06	; 6
    3e44:	09 f4       	brne	.+2      	; 0x3e48 <csp_service_handler+0x62>
    3e46:	0f c1       	rjmp	.+542    	; 0x4066 <csp_service_handler+0x280>
    3e48:	51 c1       	rjmp	.+674    	; 0x40ec <csp_service_handler+0x306>
    3e4a:	0e 94 0d 17 	call	0x2e1a	; 0x2e1a <csp_get_revision>
    3e4e:	44 e1       	ldi	r20, 0x14	; 20
    3e50:	50 e0       	ldi	r21, 0x00	; 0
    3e52:	bc 01       	movw	r22, r24
    3e54:	ce 01       	movw	r24, r28
    3e56:	8e 5b       	subi	r24, 0xBE	; 190
    3e58:	9f 4f       	sbci	r25, 0xFF	; 255
    3e5a:	0e 94 08 3c 	call	0x7810	; 0x7810 <strncpy>
    3e5e:	fe 01       	movw	r30, r28
    3e60:	eb 5a       	subi	r30, 0xAB	; 171
    3e62:	ff 4f       	sbci	r31, 0xFF	; 255
    3e64:	10 82       	st	Z, r1
    3e66:	8c e0       	ldi	r24, 0x0C	; 12
    3e68:	e2 e9       	ldi	r30, 0x92	; 146
    3e6a:	f2 e0       	ldi	r31, 0x02	; 2
    3e6c:	de 01       	movw	r26, r28
    3e6e:	aa 5a       	subi	r26, 0xAA	; 170
    3e70:	bf 4f       	sbci	r27, 0xFF	; 255
    3e72:	01 90       	ld	r0, Z+
    3e74:	0d 92       	st	X+, r0
    3e76:	8a 95       	dec	r24
    3e78:	e1 f7       	brne	.-8      	; 0x3e72 <csp_service_handler+0x8c>
    3e7a:	fe 01       	movw	r30, r28
    3e7c:	ef 59       	subi	r30, 0x9F	; 159
    3e7e:	ff 4f       	sbci	r31, 0xFF	; 255
    3e80:	10 82       	st	Z, r1
    3e82:	89 e0       	ldi	r24, 0x09	; 9
    3e84:	ee e9       	ldi	r30, 0x9E	; 158
    3e86:	f2 e0       	ldi	r31, 0x02	; 2
    3e88:	de 01       	movw	r26, r28
    3e8a:	ae 59       	subi	r26, 0x9E	; 158
    3e8c:	bf 4f       	sbci	r27, 0xFF	; 255
    3e8e:	01 90       	ld	r0, Z+
    3e90:	0d 92       	st	X+, r0
    3e92:	8a 95       	dec	r24
    3e94:	e1 f7       	brne	.-8      	; 0x3e8e <csp_service_handler+0xa8>
    3e96:	fe 01       	movw	r30, r28
    3e98:	e6 59       	subi	r30, 0x96	; 150
    3e9a:	ff 4f       	sbci	r31, 0xFF	; 255
    3e9c:	10 82       	st	Z, r1
    3e9e:	0e 94 03 17 	call	0x2e06	; 0x2e06 <csp_get_hostname>
    3ea2:	44 e1       	ldi	r20, 0x14	; 20
    3ea4:	50 e0       	ldi	r21, 0x00	; 0
    3ea6:	bc 01       	movw	r22, r24
    3ea8:	ce 01       	movw	r24, r28
    3eaa:	40 96       	adiw	r24, 0x10	; 16
    3eac:	0e 94 08 3c 	call	0x7810	; 0x7810 <strncpy>
    3eb0:	1b a2       	std	Y+35, r1	; 0x23
    3eb2:	0e 94 08 17 	call	0x2e10	; 0x2e10 <csp_get_model>
    3eb6:	4e e1       	ldi	r20, 0x1E	; 30
    3eb8:	50 e0       	ldi	r21, 0x00	; 0
    3eba:	bc 01       	movw	r22, r24
    3ebc:	ce 01       	movw	r24, r28
    3ebe:	84 96       	adiw	r24, 0x24	; 36
    3ec0:	0e 94 08 3c 	call	0x7810	; 0x7810 <strncpy>
    3ec4:	fe 01       	movw	r30, r28
    3ec6:	ef 5b       	subi	r30, 0xBF	; 191
    3ec8:	ff 4f       	sbci	r31, 0xFF	; 255
    3eca:	10 82       	st	Z, r1
    3ecc:	8d e5       	ldi	r24, 0x5D	; 93
    3ece:	90 e0       	ldi	r25, 0x00	; 0
    3ed0:	99 87       	std	Y+9, r25	; 0x09
    3ed2:	88 87       	std	Y+8, r24	; 0x08
    3ed4:	08 c1       	rjmp	.+528    	; 0x40e6 <csp_service_handler+0x300>
    3ed6:	ce 01       	movw	r24, r28
    3ed8:	42 96       	adiw	r24, 0x12	; 18
    3eda:	0e 94 a2 11 	call	0x2344	; 0x2344 <csp_iflist_get_by_name>
    3ede:	00 97       	sbiw	r24, 0x00	; 0
    3ee0:	19 f4       	brne	.+6      	; 0x3ee8 <csp_service_handler+0x102>
    3ee2:	8e ef       	ldi	r24, 0xFE	; 254
    3ee4:	9f ef       	ldi	r25, 0xFF	; 255
    3ee6:	09 c0       	rjmp	.+18     	; 0x3efa <csp_service_handler+0x114>
    3ee8:	29 89       	ldd	r18, Y+17	; 0x11
    3eea:	ac 01       	movw	r20, r24
    3eec:	65 e0       	ldi	r22, 0x05	; 5
    3eee:	88 89       	ldd	r24, Y+16	; 0x10
    3ef0:	bf dd       	rcall	.-1154   	; 0x3a70 <csp_rtable_set>
    3ef2:	89 2b       	or	r24, r25
    3ef4:	b1 f7       	brne	.-20     	; 0x3ee2 <csp_service_handler+0xfc>
    3ef6:	80 e0       	ldi	r24, 0x00	; 0
    3ef8:	90 e0       	ldi	r25, 0x00	; 0
    3efa:	2f e0       	ldi	r18, 0x0F	; 15
    3efc:	30 e0       	ldi	r19, 0x00	; 0
    3efe:	7f c0       	rjmp	.+254    	; 0x3ffe <csp_service_handler+0x218>
    3f00:	ce 01       	movw	r24, r28
    3f02:	40 96       	adiw	r24, 0x10	; 16
    3f04:	0e 94 a2 11 	call	0x2344	; 0x2344 <csp_iflist_get_by_name>
    3f08:	8c 01       	movw	r16, r24
    3f0a:	00 97       	sbiw	r24, 0x00	; 0
    3f0c:	09 f4       	brne	.+2      	; 0x3f10 <csp_service_handler+0x12a>
    3f0e:	73 c0       	rjmp	.+230    	; 0x3ff6 <csp_service_handler+0x210>
    3f10:	fc 01       	movw	r30, r24
    3f12:	61 85       	ldd	r22, Z+9	; 0x09
    3f14:	72 85       	ldd	r23, Z+10	; 0x0a
    3f16:	83 85       	ldd	r24, Z+11	; 0x0b
    3f18:	94 85       	ldd	r25, Z+12	; 0x0c
    3f1a:	0e 94 59 11 	call	0x22b2	; 0x22b2 <csp_hton32>
    3f1e:	6b 8f       	std	Y+27, r22	; 0x1b
    3f20:	7c 8f       	std	Y+28, r23	; 0x1c
    3f22:	8d 8f       	std	Y+29, r24	; 0x1d
    3f24:	9e 8f       	std	Y+30, r25	; 0x1e
    3f26:	f8 01       	movw	r30, r16
    3f28:	65 85       	ldd	r22, Z+13	; 0x0d
    3f2a:	76 85       	ldd	r23, Z+14	; 0x0e
    3f2c:	87 85       	ldd	r24, Z+15	; 0x0f
    3f2e:	90 89       	ldd	r25, Z+16	; 0x10
    3f30:	0e 94 59 11 	call	0x22b2	; 0x22b2 <csp_hton32>
    3f34:	6f 8f       	std	Y+31, r22	; 0x1f
    3f36:	78 a3       	std	Y+32, r23	; 0x20
    3f38:	89 a3       	std	Y+33, r24	; 0x21
    3f3a:	9a a3       	std	Y+34, r25	; 0x22
    3f3c:	f8 01       	movw	r30, r16
    3f3e:	61 89       	ldd	r22, Z+17	; 0x11
    3f40:	72 89       	ldd	r23, Z+18	; 0x12
    3f42:	83 89       	ldd	r24, Z+19	; 0x13
    3f44:	94 89       	ldd	r25, Z+20	; 0x14
    3f46:	0e 94 59 11 	call	0x22b2	; 0x22b2 <csp_hton32>
    3f4a:	6b a3       	std	Y+35, r22	; 0x23
    3f4c:	7c a3       	std	Y+36, r23	; 0x24
    3f4e:	8d a3       	std	Y+37, r24	; 0x25
    3f50:	9e a3       	std	Y+38, r25	; 0x26
    3f52:	f8 01       	movw	r30, r16
    3f54:	65 89       	ldd	r22, Z+21	; 0x15
    3f56:	76 89       	ldd	r23, Z+22	; 0x16
    3f58:	87 89       	ldd	r24, Z+23	; 0x17
    3f5a:	90 8d       	ldd	r25, Z+24	; 0x18
    3f5c:	0e 94 59 11 	call	0x22b2	; 0x22b2 <csp_hton32>
    3f60:	6f a3       	std	Y+39, r22	; 0x27
    3f62:	78 a7       	std	Y+40, r23	; 0x28
    3f64:	89 a7       	std	Y+41, r24	; 0x29
    3f66:	9a a7       	std	Y+42, r25	; 0x2a
    3f68:	f8 01       	movw	r30, r16
    3f6a:	61 8d       	ldd	r22, Z+25	; 0x19
    3f6c:	72 8d       	ldd	r23, Z+26	; 0x1a
    3f6e:	83 8d       	ldd	r24, Z+27	; 0x1b
    3f70:	94 8d       	ldd	r25, Z+28	; 0x1c
    3f72:	0e 94 59 11 	call	0x22b2	; 0x22b2 <csp_hton32>
    3f76:	6b a7       	std	Y+43, r22	; 0x2b
    3f78:	7c a7       	std	Y+44, r23	; 0x2c
    3f7a:	8d a7       	std	Y+45, r24	; 0x2d
    3f7c:	9e a7       	std	Y+46, r25	; 0x2e
    3f7e:	f8 01       	movw	r30, r16
    3f80:	65 8d       	ldd	r22, Z+29	; 0x1d
    3f82:	76 8d       	ldd	r23, Z+30	; 0x1e
    3f84:	87 8d       	ldd	r24, Z+31	; 0x1f
    3f86:	90 a1       	ldd	r25, Z+32	; 0x20
    3f88:	0e 94 59 11 	call	0x22b2	; 0x22b2 <csp_hton32>
    3f8c:	6f a7       	std	Y+47, r22	; 0x2f
    3f8e:	78 ab       	std	Y+48, r23	; 0x30
    3f90:	89 ab       	std	Y+49, r24	; 0x31
    3f92:	9a ab       	std	Y+50, r25	; 0x32
    3f94:	f8 01       	movw	r30, r16
    3f96:	61 a1       	ldd	r22, Z+33	; 0x21
    3f98:	72 a1       	ldd	r23, Z+34	; 0x22
    3f9a:	83 a1       	ldd	r24, Z+35	; 0x23
    3f9c:	94 a1       	ldd	r25, Z+36	; 0x24
    3f9e:	0e 94 59 11 	call	0x22b2	; 0x22b2 <csp_hton32>
    3fa2:	6b ab       	std	Y+51, r22	; 0x33
    3fa4:	7c ab       	std	Y+52, r23	; 0x34
    3fa6:	8d ab       	std	Y+53, r24	; 0x35
    3fa8:	9e ab       	std	Y+54, r25	; 0x36
    3faa:	f8 01       	movw	r30, r16
    3fac:	65 a1       	ldd	r22, Z+37	; 0x25
    3fae:	76 a1       	ldd	r23, Z+38	; 0x26
    3fb0:	87 a1       	ldd	r24, Z+39	; 0x27
    3fb2:	90 a5       	ldd	r25, Z+40	; 0x28
    3fb4:	0e 94 59 11 	call	0x22b2	; 0x22b2 <csp_hton32>
    3fb8:	6f ab       	std	Y+55, r22	; 0x37
    3fba:	78 af       	std	Y+56, r23	; 0x38
    3fbc:	89 af       	std	Y+57, r24	; 0x39
    3fbe:	9a af       	std	Y+58, r25	; 0x3a
    3fc0:	f8 01       	movw	r30, r16
    3fc2:	61 a5       	ldd	r22, Z+41	; 0x29
    3fc4:	72 a5       	ldd	r23, Z+42	; 0x2a
    3fc6:	83 a5       	ldd	r24, Z+43	; 0x2b
    3fc8:	94 a5       	ldd	r25, Z+44	; 0x2c
    3fca:	0e 94 59 11 	call	0x22b2	; 0x22b2 <csp_hton32>
    3fce:	6b af       	std	Y+59, r22	; 0x3b
    3fd0:	7c af       	std	Y+60, r23	; 0x3c
    3fd2:	8d af       	std	Y+61, r24	; 0x3d
    3fd4:	9e af       	std	Y+62, r25	; 0x3e
    3fd6:	f8 01       	movw	r30, r16
    3fd8:	65 a5       	ldd	r22, Z+45	; 0x2d
    3fda:	76 a5       	ldd	r23, Z+46	; 0x2e
    3fdc:	87 a5       	ldd	r24, Z+47	; 0x2f
    3fde:	90 a9       	ldd	r25, Z+48	; 0x30
    3fe0:	0e 94 59 11 	call	0x22b2	; 0x22b2 <csp_hton32>
    3fe4:	fe 01       	movw	r30, r28
    3fe6:	ff 96       	adiw	r30, 0x3f	; 63
    3fe8:	60 83       	st	Z, r22
    3fea:	71 83       	std	Z+1, r23	; 0x01
    3fec:	82 83       	std	Z+2, r24	; 0x02
    3fee:	93 83       	std	Z+3, r25	; 0x03
    3ff0:	80 e0       	ldi	r24, 0x00	; 0
    3ff2:	90 e0       	ldi	r25, 0x00	; 0
    3ff4:	02 c0       	rjmp	.+4      	; 0x3ffa <csp_service_handler+0x214>
    3ff6:	8e ef       	ldi	r24, 0xFE	; 254
    3ff8:	9f ef       	ldi	r25, 0xFF	; 255
    3ffa:	25 e3       	ldi	r18, 0x35	; 53
    3ffc:	30 e0       	ldi	r19, 0x00	; 0
    3ffe:	39 87       	std	Y+9, r19	; 0x09
    4000:	28 87       	std	Y+8, r18	; 0x08
    4002:	76 c0       	rjmp	.+236    	; 0x40f0 <csp_service_handler+0x30a>
    4004:	68 89       	ldd	r22, Y+16	; 0x10
    4006:	79 89       	ldd	r23, Y+17	; 0x11
    4008:	8a 89       	ldd	r24, Y+18	; 0x12
    400a:	9b 89       	ldd	r25, Y+19	; 0x13
    400c:	0e 94 59 11 	call	0x22b2	; 0x22b2 <csp_hton32>
    4010:	9b 01       	movw	r18, r22
    4012:	ac 01       	movw	r20, r24
    4014:	68 8b       	std	Y+16, r22	; 0x10
    4016:	79 8b       	std	Y+17, r23	; 0x11
    4018:	8a 8b       	std	Y+18, r24	; 0x12
    401a:	9b 8b       	std	Y+19, r25	; 0x13
    401c:	0c 89       	ldd	r16, Y+20	; 0x14
    401e:	09 3c       	cpi	r16, 0xC9	; 201
    4020:	08 f0       	brcs	.+2      	; 0x4024 <csp_service_handler+0x23e>
    4022:	64 c0       	rjmp	.+200    	; 0x40ec <csp_service_handler+0x306>
    4024:	10 e0       	ldi	r17, 0x00	; 0
    4026:	ce 01       	movw	r24, r28
    4028:	45 96       	adiw	r24, 0x15	; 21
    402a:	bc 01       	movw	r22, r24
    402c:	80 e0       	ldi	r24, 0x00	; 0
    402e:	90 e0       	ldi	r25, 0x00	; 0
    4030:	14 c0       	rjmp	.+40     	; 0x405a <csp_service_handler+0x274>
    4032:	68 89       	ldd	r22, Y+16	; 0x10
    4034:	79 89       	ldd	r23, Y+17	; 0x11
    4036:	8a 89       	ldd	r24, Y+18	; 0x12
    4038:	9b 89       	ldd	r25, Y+19	; 0x13
    403a:	0e 94 59 11 	call	0x22b2	; 0x22b2 <csp_hton32>
    403e:	68 8b       	std	Y+16, r22	; 0x10
    4040:	79 8b       	std	Y+17, r23	; 0x11
    4042:	8a 8b       	std	Y+18, r24	; 0x12
    4044:	9b 8b       	std	Y+19, r25	; 0x13
    4046:	0c 89       	ldd	r16, Y+20	; 0x14
    4048:	09 3c       	cpi	r16, 0xC9	; 201
    404a:	08 f0       	brcs	.+2      	; 0x404e <csp_service_handler+0x268>
    404c:	4f c0       	rjmp	.+158    	; 0x40ec <csp_service_handler+0x306>
    404e:	10 e0       	ldi	r17, 0x00	; 0
    4050:	9e 01       	movw	r18, r28
    4052:	2b 5e       	subi	r18, 0xEB	; 235
    4054:	3f 4f       	sbci	r19, 0xFF	; 255
    4056:	40 e0       	ldi	r20, 0x00	; 0
    4058:	50 e0       	ldi	r21, 0x00	; 0
    405a:	e0 91 79 02 	lds	r30, 0x0279	; 0x800279 <csp_cmp_memcpy_fnc>
    405e:	f0 91 7a 02 	lds	r31, 0x027A	; 0x80027a <csp_cmp_memcpy_fnc+0x1>
    4062:	19 95       	eicall
    4064:	40 c0       	rjmp	.+128    	; 0x40e6 <csp_service_handler+0x300>
    4066:	68 89       	ldd	r22, Y+16	; 0x10
    4068:	79 89       	ldd	r23, Y+17	; 0x11
    406a:	8a 89       	ldd	r24, Y+18	; 0x12
    406c:	9b 89       	ldd	r25, Y+19	; 0x13
    406e:	0e 94 5c 11 	call	0x22b8	; 0x22b8 <csp_ntoh32>
    4072:	68 8b       	std	Y+16, r22	; 0x10
    4074:	79 8b       	std	Y+17, r23	; 0x11
    4076:	8a 8b       	std	Y+18, r24	; 0x12
    4078:	9b 8b       	std	Y+19, r25	; 0x13
    407a:	6c 89       	ldd	r22, Y+20	; 0x14
    407c:	7d 89       	ldd	r23, Y+21	; 0x15
    407e:	8e 89       	ldd	r24, Y+22	; 0x16
    4080:	9f 89       	ldd	r25, Y+23	; 0x17
    4082:	0e 94 5c 11 	call	0x22b8	; 0x22b8 <csp_ntoh32>
    4086:	6c 8b       	std	Y+20, r22	; 0x14
    4088:	7d 8b       	std	Y+21, r23	; 0x15
    408a:	8e 8b       	std	Y+22, r24	; 0x16
    408c:	9f 8b       	std	Y+23, r25	; 0x17
    408e:	88 89       	ldd	r24, Y+16	; 0x10
    4090:	99 89       	ldd	r25, Y+17	; 0x11
    4092:	aa 89       	ldd	r26, Y+18	; 0x12
    4094:	bb 89       	ldd	r27, Y+19	; 0x13
    4096:	89 2b       	or	r24, r25
    4098:	8a 2b       	or	r24, r26
    409a:	8b 2b       	or	r24, r27
    409c:	41 f0       	breq	.+16     	; 0x40ae <csp_service_handler+0x2c8>
    409e:	80 e0       	ldi	r24, 0x00	; 0
    40a0:	90 e0       	ldi	r25, 0x00	; 0
    40a2:	89 2b       	or	r24, r25
    40a4:	21 f0       	breq	.+8      	; 0x40ae <csp_service_handler+0x2c8>
    40a6:	ce 01       	movw	r24, r28
    40a8:	40 96       	adiw	r24, 0x10	; 16
    40aa:	0e 94 00 00 	call	0	; 0x0 <__vectors>
    40ae:	80 e0       	ldi	r24, 0x00	; 0
    40b0:	90 e0       	ldi	r25, 0x00	; 0
    40b2:	89 2b       	or	r24, r25
    40b4:	21 f0       	breq	.+8      	; 0x40be <csp_service_handler+0x2d8>
    40b6:	ce 01       	movw	r24, r28
    40b8:	40 96       	adiw	r24, 0x10	; 16
    40ba:	0e 94 00 00 	call	0	; 0x0 <__vectors>
    40be:	68 89       	ldd	r22, Y+16	; 0x10
    40c0:	79 89       	ldd	r23, Y+17	; 0x11
    40c2:	8a 89       	ldd	r24, Y+18	; 0x12
    40c4:	9b 89       	ldd	r25, Y+19	; 0x13
    40c6:	0e 94 59 11 	call	0x22b2	; 0x22b2 <csp_hton32>
    40ca:	68 8b       	std	Y+16, r22	; 0x10
    40cc:	79 8b       	std	Y+17, r23	; 0x11
    40ce:	8a 8b       	std	Y+18, r24	; 0x12
    40d0:	9b 8b       	std	Y+19, r25	; 0x13
    40d2:	6c 89       	ldd	r22, Y+20	; 0x14
    40d4:	7d 89       	ldd	r23, Y+21	; 0x15
    40d6:	8e 89       	ldd	r24, Y+22	; 0x16
    40d8:	9f 89       	ldd	r25, Y+23	; 0x17
    40da:	0e 94 59 11 	call	0x22b2	; 0x22b2 <csp_hton32>
    40de:	6c 8b       	std	Y+20, r22	; 0x14
    40e0:	7d 8b       	std	Y+21, r23	; 0x15
    40e2:	8e 8b       	std	Y+22, r24	; 0x16
    40e4:	9f 8b       	std	Y+23, r25	; 0x17
    40e6:	80 e0       	ldi	r24, 0x00	; 0
    40e8:	90 e0       	ldi	r25, 0x00	; 0
    40ea:	02 c0       	rjmp	.+4      	; 0x40f0 <csp_service_handler+0x30a>
    40ec:	8e ef       	ldi	r24, 0xFE	; 254
    40ee:	9f ef       	ldi	r25, 0xFF	; 255
    40f0:	2f ef       	ldi	r18, 0xFF	; 255
    40f2:	2e 87       	std	Y+14, r18	; 0x0e
    40f4:	89 2b       	or	r24, r25
    40f6:	09 f4       	brne	.+2      	; 0x40fa <csp_service_handler+0x314>
    40f8:	96 c0       	rjmp	.+300    	; 0x4226 <csp_service_handler+0x440>
    40fa:	a0 c0       	rjmp	.+320    	; 0x423c <csp_service_handler+0x456>
    40fc:	8b e9       	ldi	r24, 0x9B	; 155
    40fe:	91 e1       	ldi	r25, 0x11	; 17
    4100:	9f 93       	push	r25
    4102:	8f 93       	push	r24
    4104:	82 e0       	ldi	r24, 0x02	; 2
    4106:	8f 93       	push	r24
    4108:	0e 94 fe 10 	call	0x21fc	; 0x21fc <do_csp_debug>
    410c:	0f 90       	pop	r0
    410e:	0f 90       	pop	r0
    4110:	0f 90       	pop	r0
    4112:	89 c0       	rjmp	.+274    	; 0x4226 <csp_service_handler+0x440>
    4114:	88 85       	ldd	r24, Y+8	; 0x08
    4116:	99 85       	ldd	r25, Y+9	; 0x09
    4118:	01 97       	sbiw	r24, 0x01	; 1
    411a:	09 f0       	breq	.+2      	; 0x411e <csp_service_handler+0x338>
    411c:	8f c0       	rjmp	.+286    	; 0x423c <csp_service_handler+0x456>
    411e:	8e 85       	ldd	r24, Y+14	; 0x0e
    4120:	85 35       	cpi	r24, 0x55	; 85
    4122:	09 f0       	breq	.+2      	; 0x4126 <csp_service_handler+0x340>
    4124:	8b c0       	rjmp	.+278    	; 0x423c <csp_service_handler+0x456>
    4126:	ab d0       	rcall	.+342    	; 0x427e <csp_sys_tasklist_size>
    4128:	6c 01       	movw	r12, r24
    412a:	66 d8       	rcall	.-3892   	; 0x31f8 <csp_malloc>
    412c:	8c 01       	movw	r16, r24
    412e:	00 97       	sbiw	r24, 0x00	; 0
    4130:	91 f4       	brne	.+36     	; 0x4156 <csp_service_handler+0x370>
    4132:	67 ea       	ldi	r22, 0xA7	; 167
    4134:	72 e0       	ldi	r23, 0x02	; 2
    4136:	8e 01       	movw	r16, r28
    4138:	02 5f       	subi	r16, 0xF2	; 242
    413a:	1f 4f       	sbci	r17, 0xFF	; 255
    413c:	c8 01       	movw	r24, r16
    413e:	0e 94 f3 3b 	call	0x77e6	; 0x77e6 <strcpy>
    4142:	f8 01       	movw	r30, r16
    4144:	01 90       	ld	r0, Z+
    4146:	00 20       	and	r0, r0
    4148:	e9 f7       	brne	.-6      	; 0x4144 <csp_service_handler+0x35e>
    414a:	31 97       	sbiw	r30, 0x01	; 1
    414c:	e0 1b       	sub	r30, r16
    414e:	f1 0b       	sbc	r31, r17
    4150:	f9 87       	std	Y+9, r31	; 0x09
    4152:	e8 87       	std	Y+8, r30	; 0x08
    4154:	68 c0       	rjmp	.+208    	; 0x4226 <csp_service_handler+0x440>
    4156:	8e d0       	rcall	.+284    	; 0x4274 <csp_sys_tasklist>
    4158:	b6 01       	movw	r22, r12
    415a:	c8 01       	movw	r24, r16
    415c:	0e 94 17 3c 	call	0x782e	; 0x782e <strnlen>
    4160:	4c 01       	movw	r8, r24
    4162:	c1 2c       	mov	r12, r1
    4164:	d1 2c       	mov	r13, r1
    4166:	c8 14       	cp	r12, r8
    4168:	d9 04       	cpc	r13, r9
    416a:	74 f5       	brge	.+92     	; 0x41c8 <csp_service_handler+0x3e2>
    416c:	20 97       	sbiw	r28, 0x00	; 0
    416e:	39 f4       	brne	.+14     	; 0x417e <csp_service_handler+0x398>
    4170:	84 ec       	ldi	r24, 0xC4	; 196
    4172:	90 e0       	ldi	r25, 0x00	; 0
    4174:	0e 94 59 0c 	call	0x18b2	; 0x18b2 <csp_buffer_get>
    4178:	ec 01       	movw	r28, r24
    417a:	89 2b       	or	r24, r25
    417c:	29 f1       	breq	.+74     	; 0x41c8 <csp_service_handler+0x3e2>
    417e:	54 01       	movw	r10, r8
    4180:	ac 18       	sub	r10, r12
    4182:	bd 08       	sbc	r11, r13
    4184:	f5 ec       	ldi	r31, 0xC5	; 197
    4186:	af 16       	cp	r10, r31
    4188:	b1 04       	cpc	r11, r1
    418a:	1c f0       	brlt	.+6      	; 0x4192 <csp_service_handler+0x3ac>
    418c:	84 ec       	ldi	r24, 0xC4	; 196
    418e:	a8 2e       	mov	r10, r24
    4190:	b1 2c       	mov	r11, r1
    4192:	b9 86       	std	Y+9, r11	; 0x09
    4194:	a8 86       	std	Y+8, r10	; 0x08
    4196:	b8 01       	movw	r22, r16
    4198:	6c 0d       	add	r22, r12
    419a:	7d 1d       	adc	r23, r13
    419c:	a5 01       	movw	r20, r10
    419e:	ce 01       	movw	r24, r28
    41a0:	0e 96       	adiw	r24, 0x0e	; 14
    41a2:	0e 94 e3 3b 	call	0x77c6	; 0x77c6 <memcpy>
    41a6:	ca 0c       	add	r12, r10
    41a8:	db 1c       	adc	r13, r11
    41aa:	20 e0       	ldi	r18, 0x00	; 0
    41ac:	30 e0       	ldi	r19, 0x00	; 0
    41ae:	a9 01       	movw	r20, r18
    41b0:	be 01       	movw	r22, r28
    41b2:	c7 01       	movw	r24, r14
    41b4:	0e 94 b3 18 	call	0x3166	; 0x3166 <csp_send>
    41b8:	89 2b       	or	r24, r25
    41ba:	19 f4       	brne	.+6      	; 0x41c2 <csp_service_handler+0x3dc>
    41bc:	ce 01       	movw	r24, r28
    41be:	0e 94 ed 0c 	call	0x19da	; 0x19da <csp_buffer_free>
    41c2:	c0 e0       	ldi	r28, 0x00	; 0
    41c4:	d0 e0       	ldi	r29, 0x00	; 0
    41c6:	cf cf       	rjmp	.-98     	; 0x4166 <csp_service_handler+0x380>
    41c8:	c8 01       	movw	r24, r16
    41ca:	18 d8       	rcall	.-4048   	; 0x31fc <csp_free>
    41cc:	2c c0       	rjmp	.+88     	; 0x4226 <csp_service_handler+0x440>
    41ce:	5e d0       	rcall	.+188    	; 0x428c <csp_sys_memfree>
    41d0:	1d c0       	rjmp	.+58     	; 0x420c <csp_service_handler+0x426>
    41d2:	6e 85       	ldd	r22, Y+14	; 0x0e
    41d4:	7f 85       	ldd	r23, Y+15	; 0x0f
    41d6:	88 89       	ldd	r24, Y+16	; 0x10
    41d8:	99 89       	ldd	r25, Y+17	; 0x11
    41da:	0e 94 5c 11 	call	0x22b8	; 0x22b8 <csp_ntoh32>
    41de:	67 30       	cpi	r22, 0x07	; 7
    41e0:	20 e8       	ldi	r18, 0x80	; 128
    41e2:	72 07       	cpc	r23, r18
    41e4:	27 e0       	ldi	r18, 0x07	; 7
    41e6:	82 07       	cpc	r24, r18
    41e8:	20 e8       	ldi	r18, 0x80	; 128
    41ea:	92 07       	cpc	r25, r18
    41ec:	11 f4       	brne	.+4      	; 0x41f2 <csp_service_handler+0x40c>
    41ee:	a1 d0       	rcall	.+322    	; 0x4332 <csp_sys_reboot>
    41f0:	25 c0       	rjmp	.+74     	; 0x423c <csp_service_handler+0x456>
    41f2:	6a 39       	cpi	r22, 0x9A	; 154
    41f4:	72 45       	sbci	r23, 0x52	; 82
    41f6:	85 4e       	sbci	r24, 0xE5	; 229
    41f8:	91 4d       	sbci	r25, 0xD1	; 209
    41fa:	01 f5       	brne	.+64     	; 0x423c <csp_service_handler+0x456>
    41fc:	b6 d0       	rcall	.+364    	; 0x436a <csp_sys_shutdown>
    41fe:	1e c0       	rjmp	.+60     	; 0x423c <csp_service_handler+0x456>
    4200:	0e 94 51 0d 	call	0x1aa2	; 0x1aa2 <csp_buffer_remaining>
    4204:	bc 01       	movw	r22, r24
    4206:	99 0f       	add	r25, r25
    4208:	88 0b       	sbc	r24, r24
    420a:	99 0b       	sbc	r25, r25
    420c:	0e 94 59 11 	call	0x22b2	; 0x22b2 <csp_hton32>
    4210:	6e 87       	std	Y+14, r22	; 0x0e
    4212:	7f 87       	std	Y+15, r23	; 0x0f
    4214:	88 8b       	std	Y+16, r24	; 0x10
    4216:	99 8b       	std	Y+17, r25	; 0x11
    4218:	84 e0       	ldi	r24, 0x04	; 4
    421a:	90 e0       	ldi	r25, 0x00	; 0
    421c:	99 87       	std	Y+9, r25	; 0x09
    421e:	88 87       	std	Y+8, r24	; 0x08
    4220:	02 c0       	rjmp	.+4      	; 0x4226 <csp_service_handler+0x440>
    4222:	09 d1       	rcall	.+530    	; 0x4436 <csp_get_s>
    4224:	f3 cf       	rjmp	.-26     	; 0x420c <csp_service_handler+0x426>
    4226:	20 97       	sbiw	r28, 0x00	; 0
    4228:	c1 f0       	breq	.+48     	; 0x425a <csp_service_handler+0x474>
    422a:	20 e0       	ldi	r18, 0x00	; 0
    422c:	30 e0       	ldi	r19, 0x00	; 0
    422e:	a9 01       	movw	r20, r18
    4230:	be 01       	movw	r22, r28
    4232:	c7 01       	movw	r24, r14
    4234:	0e 94 b3 18 	call	0x3166	; 0x3166 <csp_send>
    4238:	89 2b       	or	r24, r25
    423a:	79 f4       	brne	.+30     	; 0x425a <csp_service_handler+0x474>
    423c:	ce 01       	movw	r24, r28
    423e:	df 91       	pop	r29
    4240:	cf 91       	pop	r28
    4242:	1f 91       	pop	r17
    4244:	0f 91       	pop	r16
    4246:	ff 90       	pop	r15
    4248:	ef 90       	pop	r14
    424a:	df 90       	pop	r13
    424c:	cf 90       	pop	r12
    424e:	bf 90       	pop	r11
    4250:	af 90       	pop	r10
    4252:	9f 90       	pop	r9
    4254:	8f 90       	pop	r8
    4256:	0c 94 ed 0c 	jmp	0x19da	; 0x19da <csp_buffer_free>
    425a:	df 91       	pop	r29
    425c:	cf 91       	pop	r28
    425e:	1f 91       	pop	r17
    4260:	0f 91       	pop	r16
    4262:	ff 90       	pop	r15
    4264:	ef 90       	pop	r14
    4266:	df 90       	pop	r13
    4268:	cf 90       	pop	r12
    426a:	bf 90       	pop	r11
    426c:	af 90       	pop	r10
    426e:	9f 90       	pop	r9
    4270:	8f 90       	pop	r8
    4272:	08 95       	ret

00004274 <csp_sys_tasklist>:
    4274:	0e 94 5c 37 	call	0x6eb8	; 0x6eb8 <vTaskList>
    4278:	80 e0       	ldi	r24, 0x00	; 0
    427a:	90 e0       	ldi	r25, 0x00	; 0
    427c:	08 95       	ret

0000427e <csp_sys_tasklist_size>:
    427e:	0e 94 8b 32 	call	0x6516	; 0x6516 <uxTaskGetNumberOfTasks>
    4282:	28 e2       	ldi	r18, 0x28	; 40
    4284:	82 9f       	mul	r24, r18
    4286:	c0 01       	movw	r24, r0
    4288:	11 24       	eor	r1, r1
    428a:	08 95       	ret

0000428c <csp_sys_memfree>:
    428c:	4f 92       	push	r4
    428e:	5f 92       	push	r5
    4290:	6f 92       	push	r6
    4292:	7f 92       	push	r7
    4294:	8f 92       	push	r8
    4296:	9f 92       	push	r9
    4298:	af 92       	push	r10
    429a:	bf 92       	push	r11
    429c:	cf 92       	push	r12
    429e:	df 92       	push	r13
    42a0:	ef 92       	push	r14
    42a2:	ff 92       	push	r15
    42a4:	40 e1       	ldi	r20, 0x10	; 16
    42a6:	c4 2e       	mov	r12, r20
    42a8:	47 e2       	ldi	r20, 0x27	; 39
    42aa:	d4 2e       	mov	r13, r20
    42ac:	e1 2c       	mov	r14, r1
    42ae:	f1 2c       	mov	r15, r1
    42b0:	44 24       	eor	r4, r4
    42b2:	4a 94       	dec	r4
    42b4:	54 2c       	mov	r5, r4
    42b6:	32 01       	movw	r6, r4
    42b8:	81 2c       	mov	r8, r1
    42ba:	91 2c       	mov	r9, r1
    42bc:	54 01       	movw	r10, r8
    42be:	c6 01       	movw	r24, r12
    42c0:	88 0d       	add	r24, r8
    42c2:	99 1d       	adc	r25, r9
    42c4:	f1 d1       	rcall	.+994    	; 0x46a8 <pvPortMalloc>
    42c6:	b5 01       	movw	r22, r10
    42c8:	a4 01       	movw	r20, r8
    42ca:	4c 0d       	add	r20, r12
    42cc:	5d 1d       	adc	r21, r13
    42ce:	6e 1d       	adc	r22, r14
    42d0:	7f 1d       	adc	r23, r15
    42d2:	00 97       	sbiw	r24, 0x00	; 0
    42d4:	39 f4       	brne	.+14     	; 0x42e4 <csp_sys_memfree+0x58>
    42d6:	2a 01       	movw	r4, r20
    42d8:	3b 01       	movw	r6, r22
    42da:	f6 94       	lsr	r15
    42dc:	e7 94       	ror	r14
    42de:	d7 94       	ror	r13
    42e0:	c7 94       	ror	r12
    42e2:	12 c0       	rjmp	.+36     	; 0x4308 <csp_sys_memfree+0x7c>
    42e4:	4a 01       	movw	r8, r20
    42e6:	5b 01       	movw	r10, r22
    42e8:	b7 01       	movw	r22, r14
    42ea:	a6 01       	movw	r20, r12
    42ec:	48 0d       	add	r20, r8
    42ee:	59 1d       	adc	r21, r9
    42f0:	6a 1d       	adc	r22, r10
    42f2:	7b 1d       	adc	r23, r11
    42f4:	44 15       	cp	r20, r4
    42f6:	55 05       	cpc	r21, r5
    42f8:	66 05       	cpc	r22, r6
    42fa:	77 05       	cpc	r23, r7
    42fc:	20 f0       	brcs	.+8      	; 0x4306 <csp_sys_memfree+0x7a>
    42fe:	f6 94       	lsr	r15
    4300:	e7 94       	ror	r14
    4302:	d7 94       	ror	r13
    4304:	c7 94       	ror	r12
    4306:	95 d1       	rcall	.+810    	; 0x4632 <vPortFree>
    4308:	80 e2       	ldi	r24, 0x20	; 32
    430a:	c8 16       	cp	r12, r24
    430c:	d1 04       	cpc	r13, r1
    430e:	e1 04       	cpc	r14, r1
    4310:	f1 04       	cpc	r15, r1
    4312:	a8 f6       	brcc	.-86     	; 0x42be <csp_sys_memfree+0x32>
    4314:	c5 01       	movw	r24, r10
    4316:	b4 01       	movw	r22, r8
    4318:	ff 90       	pop	r15
    431a:	ef 90       	pop	r14
    431c:	df 90       	pop	r13
    431e:	cf 90       	pop	r12
    4320:	bf 90       	pop	r11
    4322:	af 90       	pop	r10
    4324:	9f 90       	pop	r9
    4326:	8f 90       	pop	r8
    4328:	7f 90       	pop	r7
    432a:	6f 90       	pop	r6
    432c:	5f 90       	pop	r5
    432e:	4f 90       	pop	r4
    4330:	08 95       	ret

00004332 <csp_sys_reboot>:
    4332:	80 e0       	ldi	r24, 0x00	; 0
    4334:	90 e0       	ldi	r25, 0x00	; 0
    4336:	89 2b       	or	r24, r25
    4338:	21 f0       	breq	.+8      	; 0x4342 <csp_sys_reboot+0x10>
    433a:	81 e0       	ldi	r24, 0x01	; 1
    433c:	90 e0       	ldi	r25, 0x00	; 0
    433e:	0e 94 00 00 	call	0	; 0x0 <__vectors>
    4342:	80 e0       	ldi	r24, 0x00	; 0
    4344:	90 e0       	ldi	r25, 0x00	; 0
    4346:	89 2b       	or	r24, r25
    4348:	19 f0       	breq	.+6      	; 0x4350 <csp_sys_reboot+0x1e>
    434a:	0e 94 00 00 	call	0	; 0x0 <__vectors>
    434e:	ff cf       	rjmp	.-2      	; 0x434e <csp_sys_reboot+0x1c>
    4350:	8e ec       	ldi	r24, 0xCE	; 206
    4352:	91 e1       	ldi	r25, 0x11	; 17
    4354:	9f 93       	push	r25
    4356:	8f 93       	push	r24
    4358:	1f 92       	push	r1
    435a:	0e 94 fe 10 	call	0x21fc	; 0x21fc <do_csp_debug>
    435e:	0f 90       	pop	r0
    4360:	0f 90       	pop	r0
    4362:	0f 90       	pop	r0
    4364:	8e ef       	ldi	r24, 0xFE	; 254
    4366:	9f ef       	ldi	r25, 0xFF	; 255
    4368:	08 95       	ret

0000436a <csp_sys_shutdown>:
    436a:	80 e0       	ldi	r24, 0x00	; 0
    436c:	90 e0       	ldi	r25, 0x00	; 0
    436e:	89 2b       	or	r24, r25
    4370:	19 f0       	breq	.+6      	; 0x4378 <csp_sys_shutdown+0xe>
    4372:	0e 94 00 00 	call	0	; 0x0 <__vectors>
    4376:	ff cf       	rjmp	.-2      	; 0x4376 <csp_sys_shutdown+0xc>
    4378:	8b eb       	ldi	r24, 0xBB	; 187
    437a:	91 e1       	ldi	r25, 0x11	; 17
    437c:	9f 93       	push	r25
    437e:	8f 93       	push	r24
    4380:	1f 92       	push	r1
    4382:	0e 94 fe 10 	call	0x21fc	; 0x21fc <do_csp_debug>
    4386:	0f 90       	pop	r0
    4388:	0f 90       	pop	r0
    438a:	0f 90       	pop	r0
    438c:	8e ef       	ldi	r24, 0xFE	; 254
    438e:	9f ef       	ldi	r25, 0xFF	; 255
    4390:	08 95       	ret

00004392 <csp_sys_set_color>:
    4392:	e8 2f       	mov	r30, r24
    4394:	ef 70       	andi	r30, 0x0F	; 15
    4396:	e1 50       	subi	r30, 0x01	; 1
    4398:	e8 30       	cpi	r30, 0x08	; 8
    439a:	30 f4       	brcc	.+12     	; 0x43a8 <csp_sys_set_color+0x16>
    439c:	f0 e0       	ldi	r31, 0x00	; 0
    439e:	e7 54       	subi	r30, 0x47	; 71
    43a0:	fd 4f       	sbci	r31, 0xFD	; 253
    43a2:	20 81       	ld	r18, Z
    43a4:	30 e0       	ldi	r19, 0x00	; 0
    43a6:	02 c0       	rjmp	.+4      	; 0x43ac <csp_sys_set_color+0x1a>
    43a8:	20 e0       	ldi	r18, 0x00	; 0
    43aa:	30 e0       	ldi	r19, 0x00	; 0
    43ac:	80 7f       	andi	r24, 0xF0	; 240
    43ae:	80 32       	cpi	r24, 0x20	; 32
    43b0:	51 f0       	breq	.+20     	; 0x43c6 <csp_sys_set_color+0x34>
    43b2:	18 f4       	brcc	.+6      	; 0x43ba <csp_sys_set_color+0x28>
    43b4:	80 31       	cpi	r24, 0x10	; 16
    43b6:	69 f0       	breq	.+26     	; 0x43d2 <csp_sys_set_color+0x40>
    43b8:	0a c0       	rjmp	.+20     	; 0x43ce <csp_sys_set_color+0x3c>
    43ba:	80 33       	cpi	r24, 0x30	; 48
    43bc:	31 f0       	breq	.+12     	; 0x43ca <csp_sys_set_color+0x38>
    43be:	80 34       	cpi	r24, 0x40	; 64
    43c0:	31 f4       	brne	.+12     	; 0x43ce <csp_sys_set_color+0x3c>
    43c2:	84 e0       	ldi	r24, 0x04	; 4
    43c4:	07 c0       	rjmp	.+14     	; 0x43d4 <csp_sys_set_color+0x42>
    43c6:	82 e0       	ldi	r24, 0x02	; 2
    43c8:	05 c0       	rjmp	.+10     	; 0x43d4 <csp_sys_set_color+0x42>
    43ca:	83 e0       	ldi	r24, 0x03	; 3
    43cc:	03 c0       	rjmp	.+6      	; 0x43d4 <csp_sys_set_color+0x42>
    43ce:	80 e0       	ldi	r24, 0x00	; 0
    43d0:	01 c0       	rjmp	.+2      	; 0x43d4 <csp_sys_set_color+0x42>
    43d2:	81 e0       	ldi	r24, 0x01	; 1
    43d4:	3f 93       	push	r19
    43d6:	2f 93       	push	r18
    43d8:	1f 92       	push	r1
    43da:	8f 93       	push	r24
    43dc:	82 eb       	ldi	r24, 0xB2	; 178
    43de:	91 e1       	ldi	r25, 0x11	; 17
    43e0:	9f 93       	push	r25
    43e2:	8f 93       	push	r24
    43e4:	0e 94 7f 3c 	call	0x78fe	; 0x78fe <printf_P>
    43e8:	0f 90       	pop	r0
    43ea:	0f 90       	pop	r0
    43ec:	0f 90       	pop	r0
    43ee:	0f 90       	pop	r0
    43f0:	0f 90       	pop	r0
    43f2:	0f 90       	pop	r0
    43f4:	08 95       	ret

000043f6 <csp_thread_create>:
    43f6:	ef 92       	push	r14
    43f8:	ff 92       	push	r15
    43fa:	0f 93       	push	r16
    43fc:	0e 94 bb 30 	call	0x6176	; 0x6176 <xTaskCreate>
    4400:	21 e0       	ldi	r18, 0x01	; 1
    4402:	30 e0       	ldi	r19, 0x00	; 0
    4404:	81 30       	cpi	r24, 0x01	; 1
    4406:	11 f4       	brne	.+4      	; 0x440c <csp_thread_create+0x16>
    4408:	20 e0       	ldi	r18, 0x00	; 0
    440a:	30 e0       	ldi	r19, 0x00	; 0
    440c:	88 27       	eor	r24, r24
    440e:	99 27       	eor	r25, r25
    4410:	82 1b       	sub	r24, r18
    4412:	93 0b       	sbc	r25, r19
    4414:	0f 91       	pop	r16
    4416:	ff 90       	pop	r15
    4418:	ef 90       	pop	r14
    441a:	08 95       	ret

0000441c <csp_get_ms>:
    441c:	0e 94 81 32 	call	0x6502	; 0x6502 <xTaskGetTickCount>
    4420:	2a e0       	ldi	r18, 0x0A	; 10
    4422:	ac 01       	movw	r20, r24
    4424:	24 9f       	mul	r18, r20
    4426:	c0 01       	movw	r24, r0
    4428:	25 9f       	mul	r18, r21
    442a:	90 0d       	add	r25, r0
    442c:	11 24       	eor	r1, r1
    442e:	bc 01       	movw	r22, r24
    4430:	80 e0       	ldi	r24, 0x00	; 0
    4432:	90 e0       	ldi	r25, 0x00	; 0
    4434:	08 95       	ret

00004436 <csp_get_s>:
    4436:	0e 94 81 32 	call	0x6502	; 0x6502 <xTaskGetTickCount>
    443a:	64 e6       	ldi	r22, 0x64	; 100
    443c:	70 e0       	ldi	r23, 0x00	; 0
    443e:	0e 94 ee 3a 	call	0x75dc	; 0x75dc <__udivmodhi4>
    4442:	80 e0       	ldi	r24, 0x00	; 0
    4444:	90 e0       	ldi	r25, 0x00	; 0
    4446:	08 95       	ret

00004448 <csp_udp_new_packet>:
    4448:	0f 93       	push	r16
    444a:	1f 93       	push	r17
    444c:	cf 93       	push	r28
    444e:	df 93       	push	r29
    4450:	1f 92       	push	r1
    4452:	1f 92       	push	r1
    4454:	cd b7       	in	r28, 0x3d	; 61
    4456:	de b7       	in	r29, 0x3e	; 62
    4458:	9a 83       	std	Y+2, r25	; 0x02
    445a:	89 83       	std	Y+1, r24	; 0x01
    445c:	8b 01       	movw	r16, r22
    445e:	0e 94 7c 0d 	call	0x1af8	; 0x1af8 <csp_conn_enqueue_packet>
    4462:	97 ff       	sbrs	r25, 7
    4464:	0b c0       	rjmp	.+22     	; 0x447c <csp_udp_new_packet+0x34>
    4466:	84 e0       	ldi	r24, 0x04	; 4
    4468:	92 e1       	ldi	r25, 0x12	; 18
    446a:	9f 93       	push	r25
    446c:	8f 93       	push	r24
    446e:	1f 92       	push	r1
    4470:	0e 94 fe 10 	call	0x21fc	; 0x21fc <do_csp_debug>
    4474:	c8 01       	movw	r24, r16
    4476:	0e 94 ed 0c 	call	0x19da	; 0x19da <csp_buffer_free>
    447a:	1b c0       	rjmp	.+54     	; 0x44b2 <csp_udp_new_packet+0x6a>
    447c:	e9 81       	ldd	r30, Y+1	; 0x01
    447e:	fa 81       	ldd	r31, Y+2	; 0x02
    4480:	86 85       	ldd	r24, Z+14	; 0x0e
    4482:	97 85       	ldd	r25, Z+15	; 0x0f
    4484:	00 97       	sbiw	r24, 0x00	; 0
    4486:	e9 f0       	breq	.+58     	; 0x44c2 <csp_udp_new_packet+0x7a>
    4488:	20 e0       	ldi	r18, 0x00	; 0
    448a:	30 e0       	ldi	r19, 0x00	; 0
    448c:	a9 01       	movw	r20, r18
    448e:	be 01       	movw	r22, r28
    4490:	6f 5f       	subi	r22, 0xFF	; 255
    4492:	7f 4f       	sbci	r23, 0xFF	; 255
    4494:	24 d8       	rcall	.-4024   	; 0x34de <csp_queue_enqueue>
    4496:	01 97       	sbiw	r24, 0x01	; 1
    4498:	81 f0       	breq	.+32     	; 0x44ba <csp_udp_new_packet+0x72>
    449a:	8f ed       	ldi	r24, 0xDF	; 223
    449c:	91 e1       	ldi	r25, 0x11	; 17
    449e:	9f 93       	push	r25
    44a0:	8f 93       	push	r24
    44a2:	81 e0       	ldi	r24, 0x01	; 1
    44a4:	8f 93       	push	r24
    44a6:	0e 94 fe 10 	call	0x21fc	; 0x21fc <do_csp_debug>
    44aa:	89 81       	ldd	r24, Y+1	; 0x01
    44ac:	9a 81       	ldd	r25, Y+2	; 0x02
    44ae:	0e 94 d6 0e 	call	0x1dac	; 0x1dac <csp_close>
    44b2:	0f 90       	pop	r0
    44b4:	0f 90       	pop	r0
    44b6:	0f 90       	pop	r0
    44b8:	04 c0       	rjmp	.+8      	; 0x44c2 <csp_udp_new_packet+0x7a>
    44ba:	e9 81       	ldd	r30, Y+1	; 0x01
    44bc:	fa 81       	ldd	r31, Y+2	; 0x02
    44be:	17 86       	std	Z+15, r1	; 0x0f
    44c0:	16 86       	std	Z+14, r1	; 0x0e
    44c2:	0f 90       	pop	r0
    44c4:	0f 90       	pop	r0
    44c6:	df 91       	pop	r29
    44c8:	cf 91       	pop	r28
    44ca:	1f 91       	pop	r17
    44cc:	0f 91       	pop	r16
    44ce:	08 95       	ret

000044d0 <_Z7contledii>:
    44d0:	20 91 8c 06 	lds	r18, 0x068C	; 0x80068c <leden>
    44d4:	30 91 8d 06 	lds	r19, 0x068D	; 0x80068d <leden+0x1>
    44d8:	23 2b       	or	r18, r19
    44da:	59 f1       	breq	.+86     	; 0x4532 <_Z7contledii+0x62>
    44dc:	63 30       	cpi	r22, 0x03	; 3
    44de:	71 05       	cpc	r23, r1
    44e0:	28 f4       	brcc	.+10     	; 0x44ec <_Z7contledii+0x1c>
    44e2:	fb 01       	movw	r30, r22
    44e4:	ef 53       	subi	r30, 0x3F	; 63
    44e6:	fd 4f       	sbci	r31, 0xFD	; 253
    44e8:	20 81       	ld	r18, Z
    44ea:	01 c0       	rjmp	.+2      	; 0x44ee <_Z7contledii+0x1e>
    44ec:	20 e0       	ldi	r18, 0x00	; 0
    44ee:	81 30       	cpi	r24, 0x01	; 1
    44f0:	91 05       	cpc	r25, r1
    44f2:	71 f0       	breq	.+28     	; 0x4510 <_Z7contledii+0x40>
    44f4:	82 30       	cpi	r24, 0x02	; 2
    44f6:	91 05       	cpc	r25, r1
    44f8:	91 f0       	breq	.+36     	; 0x451e <_Z7contledii+0x4e>
    44fa:	89 2b       	or	r24, r25
    44fc:	d1 f4       	brne	.+52     	; 0x4532 <_Z7contledii+0x62>
    44fe:	3b b1       	in	r19, 0x0b	; 11
    4500:	81 e0       	ldi	r24, 0x01	; 1
    4502:	90 e0       	ldi	r25, 0x00	; 0
    4504:	01 c0       	rjmp	.+2      	; 0x4508 <_Z7contledii+0x38>
    4506:	88 0f       	add	r24, r24
    4508:	2a 95       	dec	r18
    450a:	ea f7       	brpl	.-6      	; 0x4506 <_Z7contledii+0x36>
    450c:	83 27       	eor	r24, r19
    450e:	10 c0       	rjmp	.+32     	; 0x4530 <_Z7contledii+0x60>
    4510:	3b b1       	in	r19, 0x0b	; 11
    4512:	01 c0       	rjmp	.+2      	; 0x4516 <_Z7contledii+0x46>
    4514:	88 0f       	add	r24, r24
    4516:	2a 95       	dec	r18
    4518:	ea f7       	brpl	.-6      	; 0x4514 <_Z7contledii+0x44>
    451a:	83 2b       	or	r24, r19
    451c:	09 c0       	rjmp	.+18     	; 0x4530 <_Z7contledii+0x60>
    451e:	3b b1       	in	r19, 0x0b	; 11
    4520:	81 e0       	ldi	r24, 0x01	; 1
    4522:	90 e0       	ldi	r25, 0x00	; 0
    4524:	01 c0       	rjmp	.+2      	; 0x4528 <_Z7contledii+0x58>
    4526:	88 0f       	add	r24, r24
    4528:	2a 95       	dec	r18
    452a:	ea f7       	brpl	.-6      	; 0x4526 <_Z7contledii+0x56>
    452c:	80 95       	com	r24
    452e:	83 23       	and	r24, r19
    4530:	8b b9       	out	0x0b, r24	; 11
    4532:	08 95       	ret

00004534 <_Z12timeoutstarti>:
    4534:	9c 01       	movw	r18, r24
    4536:	f8 94       	cli
    4538:	e5 e6       	ldi	r30, 0x65	; 101
    453a:	f0 e0       	ldi	r31, 0x00	; 0
    453c:	90 81       	ld	r25, Z
    453e:	97 7f       	andi	r25, 0xF7	; 247
    4540:	90 83       	st	Z, r25
    4542:	10 92 90 00 	sts	0x0090, r1	; 0x800090 <__TEXT_REGION_LENGTH__+0x7c0090>
    4546:	e1 e9       	ldi	r30, 0x91	; 145
    4548:	f0 e0       	ldi	r31, 0x00	; 0
    454a:	10 82       	st	Z, r1
    454c:	10 92 95 00 	sts	0x0095, r1	; 0x800095 <__TEXT_REGION_LENGTH__+0x7c0095>
    4550:	10 92 94 00 	sts	0x0094, r1	; 0x800094 <__TEXT_REGION_LENGTH__+0x7c0094>
    4554:	30 93 99 00 	sts	0x0099, r19	; 0x800099 <__TEXT_REGION_LENGTH__+0x7c0099>
    4558:	20 93 98 00 	sts	0x0098, r18	; 0x800098 <__TEXT_REGION_LENGTH__+0x7c0098>
    455c:	80 81       	ld	r24, Z
    455e:	88 60       	ori	r24, 0x08	; 8
    4560:	80 83       	st	Z, r24
    4562:	80 81       	ld	r24, Z
    4564:	84 60       	ori	r24, 0x04	; 4
    4566:	80 83       	st	Z, r24
    4568:	c1 9a       	sbi	0x18, 1	; 24
    456a:	78 94       	sei
    456c:	08 95       	ret

0000456e <_Z12timeoutresetv>:
    456e:	10 92 95 00 	sts	0x0095, r1	; 0x800095 <__TEXT_REGION_LENGTH__+0x7c0095>
    4572:	10 92 94 00 	sts	0x0094, r1	; 0x800094 <__TEXT_REGION_LENGTH__+0x7c0094>
    4576:	08 95       	ret

00004578 <_Z12timeoutcheckv>:
    4578:	28 b3       	in	r18, 0x18	; 24
    457a:	21 fb       	bst	r18, 1
    457c:	88 27       	eor	r24, r24
    457e:	80 f9       	bld	r24, 0
    4580:	90 e0       	ldi	r25, 0x00	; 0
    4582:	21 ff       	sbrs	r18, 1
    4584:	11 c0       	rjmp	.+34     	; 0x45a8 <_Z12timeoutcheckv+0x30>
    4586:	f8 94       	cli
    4588:	10 92 90 00 	sts	0x0090, r1	; 0x800090 <__TEXT_REGION_LENGTH__+0x7c0090>
    458c:	10 92 91 00 	sts	0x0091, r1	; 0x800091 <__TEXT_REGION_LENGTH__+0x7c0091>
    4590:	10 92 95 00 	sts	0x0095, r1	; 0x800095 <__TEXT_REGION_LENGTH__+0x7c0095>
    4594:	10 92 94 00 	sts	0x0094, r1	; 0x800094 <__TEXT_REGION_LENGTH__+0x7c0094>
    4598:	c1 98       	cbi	0x18, 1	; 24
    459a:	80 91 65 00 	lds	r24, 0x0065	; 0x800065 <__TEXT_REGION_LENGTH__+0x7c0065>
    459e:	88 60       	ori	r24, 0x08	; 8
    45a0:	80 93 65 00 	sts	0x0065, r24	; 0x800065 <__TEXT_REGION_LENGTH__+0x7c0065>
    45a4:	78 94       	sei
    45a6:	81 e0       	ldi	r24, 0x01	; 1
    45a8:	08 95       	ret

000045aa <prvInsertBlockIntoFreeList>:
    45aa:	cf 93       	push	r28
    45ac:	df 93       	push	r29
    45ae:	fc 01       	movw	r30, r24
    45b0:	a6 e9       	ldi	r26, 0x96	; 150
    45b2:	b6 e0       	ldi	r27, 0x06	; 6
    45b4:	cd 91       	ld	r28, X+
    45b6:	dc 91       	ld	r29, X
    45b8:	11 97       	sbiw	r26, 0x01	; 1
    45ba:	ce 17       	cp	r28, r30
    45bc:	df 07       	cpc	r29, r31
    45be:	10 f4       	brcc	.+4      	; 0x45c4 <prvInsertBlockIntoFreeList+0x1a>
    45c0:	de 01       	movw	r26, r28
    45c2:	f8 cf       	rjmp	.-16     	; 0x45b4 <prvInsertBlockIntoFreeList+0xa>
    45c4:	12 96       	adiw	r26, 0x02	; 2
    45c6:	8d 91       	ld	r24, X+
    45c8:	9c 91       	ld	r25, X
    45ca:	13 97       	sbiw	r26, 0x03	; 3
    45cc:	9d 01       	movw	r18, r26
    45ce:	28 0f       	add	r18, r24
    45d0:	39 1f       	adc	r19, r25
    45d2:	e2 17       	cp	r30, r18
    45d4:	f3 07       	cpc	r31, r19
    45d6:	49 f4       	brne	.+18     	; 0x45ea <prvInsertBlockIntoFreeList+0x40>
    45d8:	22 81       	ldd	r18, Z+2	; 0x02
    45da:	33 81       	ldd	r19, Z+3	; 0x03
    45dc:	82 0f       	add	r24, r18
    45de:	93 1f       	adc	r25, r19
    45e0:	13 96       	adiw	r26, 0x03	; 3
    45e2:	9c 93       	st	X, r25
    45e4:	8e 93       	st	-X, r24
    45e6:	12 97       	sbiw	r26, 0x02	; 2
    45e8:	fd 01       	movw	r30, r26
    45ea:	82 81       	ldd	r24, Z+2	; 0x02
    45ec:	93 81       	ldd	r25, Z+3	; 0x03
    45ee:	9f 01       	movw	r18, r30
    45f0:	28 0f       	add	r18, r24
    45f2:	39 1f       	adc	r19, r25
    45f4:	c2 17       	cp	r28, r18
    45f6:	d3 07       	cpc	r29, r19
    45f8:	91 f4       	brne	.+36     	; 0x461e <prvInsertBlockIntoFreeList+0x74>
    45fa:	20 91 94 06 	lds	r18, 0x0694	; 0x800694 <pxEnd>
    45fe:	30 91 95 06 	lds	r19, 0x0695	; 0x800695 <pxEnd+0x1>
    4602:	c2 17       	cp	r28, r18
    4604:	d3 07       	cpc	r29, r19
    4606:	59 f0       	breq	.+22     	; 0x461e <prvInsertBlockIntoFreeList+0x74>
    4608:	2a 81       	ldd	r18, Y+2	; 0x02
    460a:	3b 81       	ldd	r19, Y+3	; 0x03
    460c:	82 0f       	add	r24, r18
    460e:	93 1f       	adc	r25, r19
    4610:	93 83       	std	Z+3, r25	; 0x03
    4612:	82 83       	std	Z+2, r24	; 0x02
    4614:	88 81       	ld	r24, Y
    4616:	99 81       	ldd	r25, Y+1	; 0x01
    4618:	91 83       	std	Z+1, r25	; 0x01
    461a:	80 83       	st	Z, r24
    461c:	02 c0       	rjmp	.+4      	; 0x4622 <prvInsertBlockIntoFreeList+0x78>
    461e:	d1 83       	std	Z+1, r29	; 0x01
    4620:	c0 83       	st	Z, r28
    4622:	ea 17       	cp	r30, r26
    4624:	fb 07       	cpc	r31, r27
    4626:	11 f0       	breq	.+4      	; 0x462c <prvInsertBlockIntoFreeList+0x82>
    4628:	ed 93       	st	X+, r30
    462a:	fc 93       	st	X, r31
    462c:	df 91       	pop	r29
    462e:	cf 91       	pop	r28
    4630:	08 95       	ret

00004632 <vPortFree>:
    4632:	cf 93       	push	r28
    4634:	df 93       	push	r29
    4636:	00 97       	sbiw	r24, 0x00	; 0
    4638:	59 f1       	breq	.+86     	; 0x4690 <vPortFree+0x5e>
    463a:	ec 01       	movw	r28, r24
    463c:	24 97       	sbiw	r28, 0x04	; 4
    463e:	8a 81       	ldd	r24, Y+2	; 0x02
    4640:	9b 81       	ldd	r25, Y+3	; 0x03
    4642:	20 91 8e 06 	lds	r18, 0x068E	; 0x80068e <xBlockAllocatedBit>
    4646:	30 91 8f 06 	lds	r19, 0x068F	; 0x80068f <xBlockAllocatedBit+0x1>
    464a:	ac 01       	movw	r20, r24
    464c:	42 23       	and	r20, r18
    464e:	53 23       	and	r21, r19
    4650:	45 2b       	or	r20, r21
    4652:	f1 f0       	breq	.+60     	; 0x4690 <vPortFree+0x5e>
    4654:	48 81       	ld	r20, Y
    4656:	59 81       	ldd	r21, Y+1	; 0x01
    4658:	45 2b       	or	r20, r21
    465a:	d1 f4       	brne	.+52     	; 0x4690 <vPortFree+0x5e>
    465c:	20 95       	com	r18
    465e:	30 95       	com	r19
    4660:	82 23       	and	r24, r18
    4662:	93 23       	and	r25, r19
    4664:	9b 83       	std	Y+3, r25	; 0x03
    4666:	8a 83       	std	Y+2, r24	; 0x02
    4668:	0e 94 7b 32 	call	0x64f6	; 0x64f6 <vTaskSuspendAll>
    466c:	20 91 92 06 	lds	r18, 0x0692	; 0x800692 <xFreeBytesRemaining>
    4670:	30 91 93 06 	lds	r19, 0x0693	; 0x800693 <xFreeBytesRemaining+0x1>
    4674:	8a 81       	ldd	r24, Y+2	; 0x02
    4676:	9b 81       	ldd	r25, Y+3	; 0x03
    4678:	82 0f       	add	r24, r18
    467a:	93 1f       	adc	r25, r19
    467c:	90 93 93 06 	sts	0x0693, r25	; 0x800693 <xFreeBytesRemaining+0x1>
    4680:	80 93 92 06 	sts	0x0692, r24	; 0x800692 <xFreeBytesRemaining>
    4684:	ce 01       	movw	r24, r28
    4686:	91 df       	rcall	.-222    	; 0x45aa <prvInsertBlockIntoFreeList>
    4688:	df 91       	pop	r29
    468a:	cf 91       	pop	r28
    468c:	0c 94 33 33 	jmp	0x6666	; 0x6666 <xTaskResumeAll>
    4690:	df 91       	pop	r29
    4692:	cf 91       	pop	r28
    4694:	08 95       	ret

00004696 <vApplicationMallocFailedHook>:
    4696:	84 ec       	ldi	r24, 0xC4	; 196
    4698:	92 e0       	ldi	r25, 0x02	; 2
    469a:	9f 93       	push	r25
    469c:	8f 93       	push	r24
    469e:	0e 94 6c 3c 	call	0x78d8	; 0x78d8 <printf>
    46a2:	0f 90       	pop	r0
    46a4:	0f 90       	pop	r0
    46a6:	ff cf       	rjmp	.-2      	; 0x46a6 <vApplicationMallocFailedHook+0x10>

000046a8 <pvPortMalloc>:
    46a8:	cf 92       	push	r12
    46aa:	df 92       	push	r13
    46ac:	ef 92       	push	r14
    46ae:	ff 92       	push	r15
    46b0:	0f 93       	push	r16
    46b2:	1f 93       	push	r17
    46b4:	cf 93       	push	r28
    46b6:	df 93       	push	r29
    46b8:	ec 01       	movw	r28, r24
    46ba:	0e 94 7b 32 	call	0x64f6	; 0x64f6 <vTaskSuspendAll>
    46be:	80 91 94 06 	lds	r24, 0x0694	; 0x800694 <pxEnd>
    46c2:	90 91 95 06 	lds	r25, 0x0695	; 0x800695 <pxEnd+0x1>
    46c6:	89 2b       	or	r24, r25
    46c8:	81 f5       	brne	.+96     	; 0x472a <pvPortMalloc+0x82>
    46ca:	8a e9       	ldi	r24, 0x9A	; 154
    46cc:	96 e0       	ldi	r25, 0x06	; 6
    46ce:	90 93 97 06 	sts	0x0697, r25	; 0x800697 <xStart+0x1>
    46d2:	80 93 96 06 	sts	0x0696, r24	; 0x800696 <xStart>
    46d6:	10 92 99 06 	sts	0x0699, r1	; 0x800699 <xStart+0x3>
    46da:	10 92 98 06 	sts	0x0698, r1	; 0x800698 <xStart+0x2>
    46de:	2a ef       	ldi	r18, 0xFA	; 250
    46e0:	3f e1       	ldi	r19, 0x1F	; 31
    46e2:	30 93 95 06 	sts	0x0695, r19	; 0x800695 <pxEnd+0x1>
    46e6:	20 93 94 06 	sts	0x0694, r18	; 0x800694 <pxEnd>
    46ea:	10 92 fd 1f 	sts	0x1FFD, r1	; 0x801ffd <ucHeap+0x1963>
    46ee:	10 92 fc 1f 	sts	0x1FFC, r1	; 0x801ffc <ucHeap+0x1962>
    46f2:	10 92 fb 1f 	sts	0x1FFB, r1	; 0x801ffb <ucHeap+0x1961>
    46f6:	10 92 fa 1f 	sts	0x1FFA, r1	; 0x801ffa <ucHeap+0x1960>
    46fa:	80 e6       	ldi	r24, 0x60	; 96
    46fc:	99 e1       	ldi	r25, 0x19	; 25
    46fe:	90 93 9d 06 	sts	0x069D, r25	; 0x80069d <ucHeap+0x3>
    4702:	80 93 9c 06 	sts	0x069C, r24	; 0x80069c <ucHeap+0x2>
    4706:	30 93 9b 06 	sts	0x069B, r19	; 0x80069b <ucHeap+0x1>
    470a:	20 93 9a 06 	sts	0x069A, r18	; 0x80069a <ucHeap>
    470e:	90 93 91 06 	sts	0x0691, r25	; 0x800691 <xMinimumEverFreeBytesRemaining+0x1>
    4712:	80 93 90 06 	sts	0x0690, r24	; 0x800690 <xMinimumEverFreeBytesRemaining>
    4716:	90 93 93 06 	sts	0x0693, r25	; 0x800693 <xFreeBytesRemaining+0x1>
    471a:	80 93 92 06 	sts	0x0692, r24	; 0x800692 <xFreeBytesRemaining>
    471e:	80 e0       	ldi	r24, 0x00	; 0
    4720:	90 e8       	ldi	r25, 0x80	; 128
    4722:	90 93 8f 06 	sts	0x068F, r25	; 0x80068f <xBlockAllocatedBit+0x1>
    4726:	80 93 8e 06 	sts	0x068E, r24	; 0x80068e <xBlockAllocatedBit>
    472a:	c0 90 8e 06 	lds	r12, 0x068E	; 0x80068e <xBlockAllocatedBit>
    472e:	d0 90 8f 06 	lds	r13, 0x068F	; 0x80068f <xBlockAllocatedBit+0x1>
    4732:	c6 01       	movw	r24, r12
    4734:	8c 23       	and	r24, r28
    4736:	9d 23       	and	r25, r29
    4738:	89 2b       	or	r24, r25
    473a:	09 f0       	breq	.+2      	; 0x473e <pvPortMalloc+0x96>
    473c:	5b c0       	rjmp	.+182    	; 0x47f4 <pvPortMalloc+0x14c>
    473e:	20 97       	sbiw	r28, 0x00	; 0
    4740:	09 f4       	brne	.+2      	; 0x4744 <pvPortMalloc+0x9c>
    4742:	58 c0       	rjmp	.+176    	; 0x47f4 <pvPortMalloc+0x14c>
    4744:	9e 01       	movw	r18, r28
    4746:	2c 5f       	subi	r18, 0xFC	; 252
    4748:	3f 4f       	sbci	r19, 0xFF	; 255
    474a:	09 f4       	brne	.+2      	; 0x474e <pvPortMalloc+0xa6>
    474c:	53 c0       	rjmp	.+166    	; 0x47f4 <pvPortMalloc+0x14c>
    474e:	e0 90 92 06 	lds	r14, 0x0692	; 0x800692 <xFreeBytesRemaining>
    4752:	f0 90 93 06 	lds	r15, 0x0693	; 0x800693 <xFreeBytesRemaining+0x1>
    4756:	e2 16       	cp	r14, r18
    4758:	f3 06       	cpc	r15, r19
    475a:	08 f4       	brcc	.+2      	; 0x475e <pvPortMalloc+0xb6>
    475c:	4b c0       	rjmp	.+150    	; 0x47f4 <pvPortMalloc+0x14c>
    475e:	c0 91 96 06 	lds	r28, 0x0696	; 0x800696 <xStart>
    4762:	d0 91 97 06 	lds	r29, 0x0697	; 0x800697 <xStart+0x1>
    4766:	e6 e9       	ldi	r30, 0x96	; 150
    4768:	f6 e0       	ldi	r31, 0x06	; 6
    476a:	4a 81       	ldd	r20, Y+2	; 0x02
    476c:	5b 81       	ldd	r21, Y+3	; 0x03
    476e:	42 17       	cp	r20, r18
    4770:	53 07       	cpc	r21, r19
    4772:	40 f0       	brcs	.+16     	; 0x4784 <pvPortMalloc+0xdc>
    4774:	80 91 94 06 	lds	r24, 0x0694	; 0x800694 <pxEnd>
    4778:	90 91 95 06 	lds	r25, 0x0695	; 0x800695 <pxEnd+0x1>
    477c:	c8 17       	cp	r28, r24
    477e:	d9 07       	cpc	r29, r25
    4780:	41 f4       	brne	.+16     	; 0x4792 <pvPortMalloc+0xea>
    4782:	38 c0       	rjmp	.+112    	; 0x47f4 <pvPortMalloc+0x14c>
    4784:	88 81       	ld	r24, Y
    4786:	99 81       	ldd	r25, Y+1	; 0x01
    4788:	00 97       	sbiw	r24, 0x00	; 0
    478a:	a1 f3       	breq	.-24     	; 0x4774 <pvPortMalloc+0xcc>
    478c:	fe 01       	movw	r30, r28
    478e:	ec 01       	movw	r28, r24
    4790:	ec cf       	rjmp	.-40     	; 0x476a <pvPortMalloc+0xc2>
    4792:	00 81       	ld	r16, Z
    4794:	11 81       	ldd	r17, Z+1	; 0x01
    4796:	0c 5f       	subi	r16, 0xFC	; 252
    4798:	1f 4f       	sbci	r17, 0xFF	; 255
    479a:	88 81       	ld	r24, Y
    479c:	99 81       	ldd	r25, Y+1	; 0x01
    479e:	91 83       	std	Z+1, r25	; 0x01
    47a0:	80 83       	st	Z, r24
    47a2:	42 1b       	sub	r20, r18
    47a4:	53 0b       	sbc	r21, r19
    47a6:	49 30       	cpi	r20, 0x09	; 9
    47a8:	51 05       	cpc	r21, r1
    47aa:	48 f0       	brcs	.+18     	; 0x47be <pvPortMalloc+0x116>
    47ac:	ce 01       	movw	r24, r28
    47ae:	82 0f       	add	r24, r18
    47b0:	93 1f       	adc	r25, r19
    47b2:	fc 01       	movw	r30, r24
    47b4:	53 83       	std	Z+3, r21	; 0x03
    47b6:	42 83       	std	Z+2, r20	; 0x02
    47b8:	3b 83       	std	Y+3, r19	; 0x03
    47ba:	2a 83       	std	Y+2, r18	; 0x02
    47bc:	f6 de       	rcall	.-532    	; 0x45aa <prvInsertBlockIntoFreeList>
    47be:	2a 81       	ldd	r18, Y+2	; 0x02
    47c0:	3b 81       	ldd	r19, Y+3	; 0x03
    47c2:	c7 01       	movw	r24, r14
    47c4:	82 1b       	sub	r24, r18
    47c6:	93 0b       	sbc	r25, r19
    47c8:	90 93 93 06 	sts	0x0693, r25	; 0x800693 <xFreeBytesRemaining+0x1>
    47cc:	80 93 92 06 	sts	0x0692, r24	; 0x800692 <xFreeBytesRemaining>
    47d0:	40 91 90 06 	lds	r20, 0x0690	; 0x800690 <xMinimumEverFreeBytesRemaining>
    47d4:	50 91 91 06 	lds	r21, 0x0691	; 0x800691 <xMinimumEverFreeBytesRemaining+0x1>
    47d8:	84 17       	cp	r24, r20
    47da:	95 07       	cpc	r25, r21
    47dc:	20 f4       	brcc	.+8      	; 0x47e6 <pvPortMalloc+0x13e>
    47de:	90 93 91 06 	sts	0x0691, r25	; 0x800691 <xMinimumEverFreeBytesRemaining+0x1>
    47e2:	80 93 90 06 	sts	0x0690, r24	; 0x800690 <xMinimumEverFreeBytesRemaining>
    47e6:	c2 2a       	or	r12, r18
    47e8:	d3 2a       	or	r13, r19
    47ea:	db 82       	std	Y+3, r13	; 0x03
    47ec:	ca 82       	std	Y+2, r12	; 0x02
    47ee:	19 82       	std	Y+1, r1	; 0x01
    47f0:	18 82       	st	Y, r1
    47f2:	02 c0       	rjmp	.+4      	; 0x47f8 <pvPortMalloc+0x150>
    47f4:	00 e0       	ldi	r16, 0x00	; 0
    47f6:	10 e0       	ldi	r17, 0x00	; 0
    47f8:	0e 94 33 33 	call	0x6666	; 0x6666 <xTaskResumeAll>
    47fc:	01 15       	cp	r16, r1
    47fe:	11 05       	cpc	r17, r1
    4800:	09 f4       	brne	.+2      	; 0x4804 <pvPortMalloc+0x15c>
    4802:	49 df       	rcall	.-366    	; 0x4696 <vApplicationMallocFailedHook>
    4804:	c8 01       	movw	r24, r16
    4806:	df 91       	pop	r29
    4808:	cf 91       	pop	r28
    480a:	1f 91       	pop	r17
    480c:	0f 91       	pop	r16
    480e:	ff 90       	pop	r15
    4810:	ef 90       	pop	r14
    4812:	df 90       	pop	r13
    4814:	cf 90       	pop	r12
    4816:	08 95       	ret

00004818 <vListInitialise>:
    4818:	fc 01       	movw	r30, r24
    481a:	03 96       	adiw	r24, 0x03	; 3
    481c:	92 83       	std	Z+2, r25	; 0x02
    481e:	81 83       	std	Z+1, r24	; 0x01
    4820:	2f ef       	ldi	r18, 0xFF	; 255
    4822:	3f ef       	ldi	r19, 0xFF	; 255
    4824:	34 83       	std	Z+4, r19	; 0x04
    4826:	23 83       	std	Z+3, r18	; 0x03
    4828:	96 83       	std	Z+6, r25	; 0x06
    482a:	85 83       	std	Z+5, r24	; 0x05
    482c:	90 87       	std	Z+8, r25	; 0x08
    482e:	87 83       	std	Z+7, r24	; 0x07
    4830:	10 82       	st	Z, r1
    4832:	08 95       	ret

00004834 <vListInitialiseItem>:
    4834:	fc 01       	movw	r30, r24
    4836:	11 86       	std	Z+9, r1	; 0x09
    4838:	10 86       	std	Z+8, r1	; 0x08
    483a:	08 95       	ret

0000483c <vListInsertEnd>:
    483c:	cf 93       	push	r28
    483e:	df 93       	push	r29
    4840:	9c 01       	movw	r18, r24
    4842:	fb 01       	movw	r30, r22
    4844:	dc 01       	movw	r26, r24
    4846:	11 96       	adiw	r26, 0x01	; 1
    4848:	cd 91       	ld	r28, X+
    484a:	dc 91       	ld	r29, X
    484c:	12 97       	sbiw	r26, 0x02	; 2
    484e:	d3 83       	std	Z+3, r29	; 0x03
    4850:	c2 83       	std	Z+2, r28	; 0x02
    4852:	8c 81       	ldd	r24, Y+4	; 0x04
    4854:	9d 81       	ldd	r25, Y+5	; 0x05
    4856:	95 83       	std	Z+5, r25	; 0x05
    4858:	84 83       	std	Z+4, r24	; 0x04
    485a:	8c 81       	ldd	r24, Y+4	; 0x04
    485c:	9d 81       	ldd	r25, Y+5	; 0x05
    485e:	dc 01       	movw	r26, r24
    4860:	13 96       	adiw	r26, 0x03	; 3
    4862:	7c 93       	st	X, r23
    4864:	6e 93       	st	-X, r22
    4866:	12 97       	sbiw	r26, 0x02	; 2
    4868:	7d 83       	std	Y+5, r23	; 0x05
    486a:	6c 83       	std	Y+4, r22	; 0x04
    486c:	31 87       	std	Z+9, r19	; 0x09
    486e:	20 87       	std	Z+8, r18	; 0x08
    4870:	f9 01       	movw	r30, r18
    4872:	80 81       	ld	r24, Z
    4874:	8f 5f       	subi	r24, 0xFF	; 255
    4876:	80 83       	st	Z, r24
    4878:	df 91       	pop	r29
    487a:	cf 91       	pop	r28
    487c:	08 95       	ret

0000487e <vListInsert>:
    487e:	0f 93       	push	r16
    4880:	1f 93       	push	r17
    4882:	cf 93       	push	r28
    4884:	df 93       	push	r29
    4886:	8c 01       	movw	r16, r24
    4888:	fb 01       	movw	r30, r22
    488a:	80 81       	ld	r24, Z
    488c:	91 81       	ldd	r25, Z+1	; 0x01
    488e:	8f 3f       	cpi	r24, 0xFF	; 255
    4890:	2f ef       	ldi	r18, 0xFF	; 255
    4892:	92 07       	cpc	r25, r18
    4894:	21 f4       	brne	.+8      	; 0x489e <vListInsert+0x20>
    4896:	e8 01       	movw	r28, r16
    4898:	af 81       	ldd	r26, Y+7	; 0x07
    489a:	b8 85       	ldd	r27, Y+8	; 0x08
    489c:	0e c0       	rjmp	.+28     	; 0x48ba <vListInsert+0x3c>
    489e:	d8 01       	movw	r26, r16
    48a0:	13 96       	adiw	r26, 0x03	; 3
    48a2:	12 96       	adiw	r26, 0x02	; 2
    48a4:	2d 91       	ld	r18, X+
    48a6:	3c 91       	ld	r19, X
    48a8:	13 97       	sbiw	r26, 0x03	; 3
    48aa:	e9 01       	movw	r28, r18
    48ac:	48 81       	ld	r20, Y
    48ae:	59 81       	ldd	r21, Y+1	; 0x01
    48b0:	84 17       	cp	r24, r20
    48b2:	95 07       	cpc	r25, r21
    48b4:	10 f0       	brcs	.+4      	; 0x48ba <vListInsert+0x3c>
    48b6:	d9 01       	movw	r26, r18
    48b8:	f4 cf       	rjmp	.-24     	; 0x48a2 <vListInsert+0x24>
    48ba:	12 96       	adiw	r26, 0x02	; 2
    48bc:	8d 91       	ld	r24, X+
    48be:	9c 91       	ld	r25, X
    48c0:	13 97       	sbiw	r26, 0x03	; 3
    48c2:	93 83       	std	Z+3, r25	; 0x03
    48c4:	82 83       	std	Z+2, r24	; 0x02
    48c6:	ec 01       	movw	r28, r24
    48c8:	fd 83       	std	Y+5, r31	; 0x05
    48ca:	ec 83       	std	Y+4, r30	; 0x04
    48cc:	b5 83       	std	Z+5, r27	; 0x05
    48ce:	a4 83       	std	Z+4, r26	; 0x04
    48d0:	13 96       	adiw	r26, 0x03	; 3
    48d2:	fc 93       	st	X, r31
    48d4:	ee 93       	st	-X, r30
    48d6:	12 97       	sbiw	r26, 0x02	; 2
    48d8:	11 87       	std	Z+9, r17	; 0x09
    48da:	00 87       	std	Z+8, r16	; 0x08
    48dc:	f8 01       	movw	r30, r16
    48de:	80 81       	ld	r24, Z
    48e0:	8f 5f       	subi	r24, 0xFF	; 255
    48e2:	80 83       	st	Z, r24
    48e4:	df 91       	pop	r29
    48e6:	cf 91       	pop	r28
    48e8:	1f 91       	pop	r17
    48ea:	0f 91       	pop	r16
    48ec:	08 95       	ret

000048ee <uxListRemove>:
    48ee:	cf 93       	push	r28
    48f0:	df 93       	push	r29
    48f2:	fc 01       	movw	r30, r24
    48f4:	a0 85       	ldd	r26, Z+8	; 0x08
    48f6:	b1 85       	ldd	r27, Z+9	; 0x09
    48f8:	82 81       	ldd	r24, Z+2	; 0x02
    48fa:	93 81       	ldd	r25, Z+3	; 0x03
    48fc:	24 81       	ldd	r18, Z+4	; 0x04
    48fe:	35 81       	ldd	r19, Z+5	; 0x05
    4900:	ec 01       	movw	r28, r24
    4902:	3d 83       	std	Y+5, r19	; 0x05
    4904:	2c 83       	std	Y+4, r18	; 0x04
    4906:	c4 81       	ldd	r28, Z+4	; 0x04
    4908:	d5 81       	ldd	r29, Z+5	; 0x05
    490a:	9b 83       	std	Y+3, r25	; 0x03
    490c:	8a 83       	std	Y+2, r24	; 0x02
    490e:	11 96       	adiw	r26, 0x01	; 1
    4910:	8d 91       	ld	r24, X+
    4912:	9c 91       	ld	r25, X
    4914:	12 97       	sbiw	r26, 0x02	; 2
    4916:	e8 17       	cp	r30, r24
    4918:	f9 07       	cpc	r31, r25
    491a:	21 f4       	brne	.+8      	; 0x4924 <uxListRemove+0x36>
    491c:	12 96       	adiw	r26, 0x02	; 2
    491e:	dc 93       	st	X, r29
    4920:	ce 93       	st	-X, r28
    4922:	11 97       	sbiw	r26, 0x01	; 1
    4924:	11 86       	std	Z+9, r1	; 0x09
    4926:	10 86       	std	Z+8, r1	; 0x08
    4928:	8c 91       	ld	r24, X
    492a:	81 50       	subi	r24, 0x01	; 1
    492c:	8c 93       	st	X, r24
    492e:	8c 91       	ld	r24, X
    4930:	df 91       	pop	r29
    4932:	cf 91       	pop	r28
    4934:	08 95       	ret

00004936 <_ZL4wdtrPv>:
    4936:	a8 95       	wdr
    4938:	0f b6       	in	r0, 0x3f	; 63
    493a:	f8 94       	cli
    493c:	a8 95       	wdr
    493e:	80 91 60 00 	lds	r24, 0x0060	; 0x800060 <__TEXT_REGION_LENGTH__+0x7c0060>
    4942:	88 61       	ori	r24, 0x18	; 24
    4944:	80 93 60 00 	sts	0x0060, r24	; 0x800060 <__TEXT_REGION_LENGTH__+0x7c0060>
    4948:	10 92 60 00 	sts	0x0060, r1	; 0x800060 <__TEXT_REGION_LENGTH__+0x7c0060>
    494c:	0f be       	out	0x3f, r0	; 63
    494e:	9c e0       	ldi	r25, 0x0C	; 12
    4950:	88 e1       	ldi	r24, 0x18	; 24
    4952:	0f b6       	in	r0, 0x3f	; 63
    4954:	f8 94       	cli
    4956:	a8 95       	wdr
    4958:	80 93 60 00 	sts	0x0060, r24	; 0x800060 <__TEXT_REGION_LENGTH__+0x7c0060>
    495c:	0f be       	out	0x3f, r0	; 63
    495e:	90 93 60 00 	sts	0x0060, r25	; 0x800060 <__TEXT_REGION_LENGTH__+0x7c0060>
    4962:	a8 95       	wdr
    4964:	84 e1       	ldi	r24, 0x14	; 20
    4966:	90 e0       	ldi	r25, 0x00	; 0
    4968:	0e 94 a0 33 	call	0x6740	; 0x6740 <vTaskDelay>
    496c:	60 e0       	ldi	r22, 0x00	; 0
    496e:	70 e0       	ldi	r23, 0x00	; 0
    4970:	80 e0       	ldi	r24, 0x00	; 0
    4972:	90 e0       	ldi	r25, 0x00	; 0
    4974:	ad dd       	rcall	.-1190   	; 0x44d0 <_Z7contledii>
    4976:	f5 cf       	rjmp	.-22     	; 0x4962 <_ZL4wdtrPv+0x2c>

00004978 <_Z11task_serverPv>:
    4978:	60 e0       	ldi	r22, 0x00	; 0
    497a:	70 e0       	ldi	r23, 0x00	; 0
    497c:	cb 01       	movw	r24, r22
    497e:	0e 94 34 17 	call	0x2e68	; 0x2e68 <csp_socket>
    4982:	7c 01       	movw	r14, r24
    4984:	60 e2       	ldi	r22, 0x20	; 32
    4986:	0e 94 43 19 	call	0x3286	; 0x3286 <csp_bind>
    498a:	6a e0       	ldi	r22, 0x0A	; 10
    498c:	70 e0       	ldi	r23, 0x00	; 0
    498e:	c7 01       	movw	r24, r14
    4990:	0e 94 27 19 	call	0x324e	; 0x324e <csp_listen>
    4994:	86 e8       	ldi	r24, 0x86	; 134
    4996:	c8 2e       	mov	r12, r24
    4998:	82 e1       	ldi	r24, 0x12	; 18
    499a:	d8 2e       	mov	r13, r24
    499c:	92 e0       	ldi	r25, 0x02	; 2
    499e:	99 2e       	mov	r9, r25
    49a0:	25 e6       	ldi	r18, 0x65	; 101
    49a2:	a2 2e       	mov	r10, r18
    49a4:	22 e1       	ldi	r18, 0x12	; 18
    49a6:	b2 2e       	mov	r11, r18
    49a8:	80 e0       	ldi	r24, 0x00	; 0
    49aa:	90 e0       	ldi	r25, 0x00	; 0
    49ac:	0e 94 54 36 	call	0x6ca8	; 0x6ca8 <uxTaskGetStackHighWaterMark2>
    49b0:	ec 01       	movw	r28, r24
    49b2:	80 e0       	ldi	r24, 0x00	; 0
    49b4:	90 e0       	ldi	r25, 0x00	; 0
    49b6:	0e 94 8e 32 	call	0x651c	; 0x651c <pcTaskGetName>
    49ba:	df 93       	push	r29
    49bc:	cf 93       	push	r28
    49be:	9f 93       	push	r25
    49c0:	8f 93       	push	r24
    49c2:	df 92       	push	r13
    49c4:	cf 92       	push	r12
    49c6:	9f 92       	push	r9
    49c8:	0e 94 fe 10 	call	0x21fc	; 0x21fc <do_csp_debug>
    49cc:	40 e1       	ldi	r20, 0x10	; 16
    49ce:	57 e2       	ldi	r21, 0x27	; 39
    49d0:	60 e0       	ldi	r22, 0x00	; 0
    49d2:	70 e0       	ldi	r23, 0x00	; 0
    49d4:	c7 01       	movw	r24, r14
    49d6:	0e 94 7f 17 	call	0x2efe	; 0x2efe <csp_accept>
    49da:	ec 01       	movw	r28, r24
    49dc:	8d b7       	in	r24, 0x3d	; 61
    49de:	9e b7       	in	r25, 0x3e	; 62
    49e0:	07 96       	adiw	r24, 0x07	; 7
    49e2:	0f b6       	in	r0, 0x3f	; 63
    49e4:	f8 94       	cli
    49e6:	9e bf       	out	0x3e, r25	; 62
    49e8:	0f be       	out	0x3f, r0	; 63
    49ea:	8d bf       	out	0x3d, r24	; 61
    49ec:	20 97       	sbiw	r28, 0x00	; 0
    49ee:	e1 f2       	breq	.-72     	; 0x49a8 <_Z11task_serverPv+0x30>
    49f0:	44 e6       	ldi	r20, 0x64	; 100
    49f2:	50 e0       	ldi	r21, 0x00	; 0
    49f4:	60 e0       	ldi	r22, 0x00	; 0
    49f6:	70 e0       	ldi	r23, 0x00	; 0
    49f8:	ce 01       	movw	r24, r28
    49fa:	0e 94 9e 17 	call	0x2f3c	; 0x2f3c <csp_read>
    49fe:	8c 01       	movw	r16, r24
    4a00:	ce 01       	movw	r24, r28
    4a02:	01 15       	cp	r16, r1
    4a04:	11 05       	cpc	r17, r1
    4a06:	c1 f0       	breq	.+48     	; 0x4a38 <_Z11task_serverPv+0xc0>
    4a08:	0e 94 cf 0f 	call	0x1f9e	; 0x1f9e <csp_conn_dport>
    4a0c:	0a 97       	sbiw	r24, 0x0a	; 10
    4a0e:	81 f4       	brne	.+32     	; 0x4a30 <_Z11task_serverPv+0xb8>
    4a10:	c8 01       	movw	r24, r16
    4a12:	0e 96       	adiw	r24, 0x0e	; 14
    4a14:	9f 93       	push	r25
    4a16:	8f 93       	push	r24
    4a18:	bf 92       	push	r11
    4a1a:	af 92       	push	r10
    4a1c:	0e 94 7f 3c 	call	0x78fe	; 0x78fe <printf_P>
    4a20:	c8 01       	movw	r24, r16
    4a22:	0e 94 ed 0c 	call	0x19da	; 0x19da <csp_buffer_free>
    4a26:	0f 90       	pop	r0
    4a28:	0f 90       	pop	r0
    4a2a:	0f 90       	pop	r0
    4a2c:	0f 90       	pop	r0
    4a2e:	e0 cf       	rjmp	.-64     	; 0x49f0 <_Z11task_serverPv+0x78>
    4a30:	b8 01       	movw	r22, r16
    4a32:	ce 01       	movw	r24, r28
    4a34:	d8 d9       	rcall	.-3152   	; 0x3de6 <csp_service_handler>
    4a36:	dc cf       	rjmp	.-72     	; 0x49f0 <_Z11task_serverPv+0x78>
    4a38:	0e 94 d6 0e 	call	0x1dac	; 0x1dac <csp_close>
    4a3c:	b5 cf       	rjmp	.-150    	; 0x49a8 <_Z11task_serverPv+0x30>

00004a3e <_Z11task_clientPv>:
    4a3e:	8e e5       	ldi	r24, 0x5E	; 94
    4a40:	c8 2e       	mov	r12, r24
    4a42:	82 e1       	ldi	r24, 0x12	; 18
    4a44:	d8 2e       	mov	r13, r24
    4a46:	c2 e0       	ldi	r28, 0x02	; 2
    4a48:	91 e5       	ldi	r25, 0x51	; 81
    4a4a:	a9 2e       	mov	r10, r25
    4a4c:	92 e1       	ldi	r25, 0x12	; 18
    4a4e:	b9 2e       	mov	r11, r25
    4a50:	24 e4       	ldi	r18, 0x44	; 68
    4a52:	82 2e       	mov	r8, r18
    4a54:	22 e1       	ldi	r18, 0x12	; 18
    4a56:	92 2e       	mov	r9, r18
    4a58:	3e e2       	ldi	r19, 0x2E	; 46
    4a5a:	e3 2e       	mov	r14, r19
    4a5c:	32 e1       	ldi	r19, 0x12	; 18
    4a5e:	f3 2e       	mov	r15, r19
    4a60:	80 e0       	ldi	r24, 0x00	; 0
    4a62:	90 e0       	ldi	r25, 0x00	; 0
    4a64:	0e 94 54 36 	call	0x6ca8	; 0x6ca8 <uxTaskGetStackHighWaterMark2>
    4a68:	18 2f       	mov	r17, r24
    4a6a:	09 2f       	mov	r16, r25
    4a6c:	80 e0       	ldi	r24, 0x00	; 0
    4a6e:	90 e0       	ldi	r25, 0x00	; 0
    4a70:	0e 94 8e 32 	call	0x651c	; 0x651c <pcTaskGetName>
    4a74:	0f 93       	push	r16
    4a76:	1f 93       	push	r17
    4a78:	9f 93       	push	r25
    4a7a:	8f 93       	push	r24
    4a7c:	df 92       	push	r13
    4a7e:	cf 92       	push	r12
    4a80:	cf 93       	push	r28
    4a82:	0e 94 fe 10 	call	0x21fc	; 0x21fc <do_csp_debug>
    4a86:	84 e6       	ldi	r24, 0x64	; 100
    4a88:	90 e0       	ldi	r25, 0x00	; 0
    4a8a:	0e 94 a0 33 	call	0x6740	; 0x6740 <vTaskDelay>
    4a8e:	ed b7       	in	r30, 0x3d	; 61
    4a90:	fe b7       	in	r31, 0x3e	; 62
    4a92:	80 81       	ld	r24, Z
    4a94:	91 81       	ldd	r25, Z+1	; 0x01
    4a96:	9f 93       	push	r25
    4a98:	8f 93       	push	r24
    4a9a:	bf 92       	push	r11
    4a9c:	af 92       	push	r10
    4a9e:	cf 93       	push	r28
    4aa0:	0e 94 fe 10 	call	0x21fc	; 0x21fc <do_csp_debug>
    4aa4:	00 e0       	ldi	r16, 0x00	; 0
    4aa6:	2a e0       	ldi	r18, 0x0A	; 10
    4aa8:	30 e0       	ldi	r19, 0x00	; 0
    4aaa:	44 e6       	ldi	r20, 0x64	; 100
    4aac:	50 e0       	ldi	r21, 0x00	; 0
    4aae:	60 e0       	ldi	r22, 0x00	; 0
    4ab0:	70 e0       	ldi	r23, 0x00	; 0
    4ab2:	81 e0       	ldi	r24, 0x01	; 1
    4ab4:	f6 d8       	rcall	.-3604   	; 0x3ca2 <csp_ping>
    4ab6:	8c 01       	movw	r16, r24
    4ab8:	8d b7       	in	r24, 0x3d	; 61
    4aba:	9e b7       	in	r25, 0x3e	; 62
    4abc:	0c 96       	adiw	r24, 0x0c	; 12
    4abe:	0f b6       	in	r0, 0x3f	; 63
    4ac0:	f8 94       	cli
    4ac2:	9e bf       	out	0x3e, r25	; 62
    4ac4:	0f be       	out	0x3f, r0	; 63
    4ac6:	8d bf       	out	0x3d, r24	; 61
    4ac8:	0f 3f       	cpi	r16, 0xFF	; 255
    4aca:	9f ef       	ldi	r25, 0xFF	; 255
    4acc:	19 07       	cpc	r17, r25
    4ace:	41 f4       	brne	.+16     	; 0x4ae0 <_Z11task_clientPv+0xa2>
    4ad0:	9f 92       	push	r9
    4ad2:	8f 92       	push	r8
    4ad4:	1f 92       	push	r1
    4ad6:	0e 94 fe 10 	call	0x21fc	; 0x21fc <do_csp_debug>
    4ada:	0f 90       	pop	r0
    4adc:	0f 90       	pop	r0
    4ade:	0f 90       	pop	r0
    4ae0:	1f 93       	push	r17
    4ae2:	0f 93       	push	r16
    4ae4:	ff 92       	push	r15
    4ae6:	ef 92       	push	r14
    4ae8:	cf 93       	push	r28
    4aea:	0e 94 fe 10 	call	0x21fc	; 0x21fc <do_csp_debug>
    4aee:	84 e6       	ldi	r24, 0x64	; 100
    4af0:	90 e0       	ldi	r25, 0x00	; 0
    4af2:	0e 94 a0 33 	call	0x6740	; 0x6740 <vTaskDelay>
    4af6:	0f 90       	pop	r0
    4af8:	0f 90       	pop	r0
    4afa:	0f 90       	pop	r0
    4afc:	0f 90       	pop	r0
    4afe:	0f 90       	pop	r0
    4b00:	af cf       	rjmp	.-162    	; 0x4a60 <_Z11task_clientPv+0x22>

00004b02 <main>:
    4b02:	ef 92       	push	r14
    4b04:	ff 92       	push	r15
    4b06:	0f 93       	push	r16
    4b08:	1f 93       	push	r17
    4b0a:	cf 93       	push	r28
    4b0c:	df 93       	push	r29
    4b0e:	00 d0       	rcall	.+0      	; 0x4b10 <main+0xe>
    4b10:	1f 92       	push	r1
    4b12:	cd b7       	in	r28, 0x3d	; 61
    4b14:	de b7       	in	r29, 0x3e	; 62
    4b16:	9f e0       	ldi	r25, 0x0F	; 15
    4b18:	88 e1       	ldi	r24, 0x18	; 24
    4b1a:	0f b6       	in	r0, 0x3f	; 63
    4b1c:	f8 94       	cli
    4b1e:	a8 95       	wdr
    4b20:	80 93 60 00 	sts	0x0060, r24	; 0x800060 <__TEXT_REGION_LENGTH__+0x7c0060>
    4b24:	0f be       	out	0x3f, r0	; 63
    4b26:	90 93 60 00 	sts	0x0060, r25	; 0x800060 <__TEXT_REGION_LENGTH__+0x7c0060>
    4b2a:	60 e0       	ldi	r22, 0x00	; 0
    4b2c:	70 e0       	ldi	r23, 0x00	; 0
    4b2e:	88 ec       	ldi	r24, 0xC8	; 200
    4b30:	99 e0       	ldi	r25, 0x09	; 9
    4b32:	0e 94 22 3c 	call	0x7844	; 0x7844 <fdevopen>
    4b36:	8f ef       	ldi	r24, 0xFF	; 255
    4b38:	9f ef       	ldi	r25, 0xFF	; 255
    4b3a:	0e 94 93 09 	call	0x1326	; 0x1326 <usart_init>
    4b3e:	62 e3       	ldi	r22, 0x32	; 50
    4b40:	70 e0       	ldi	r23, 0x00	; 0
    4b42:	84 e0       	ldi	r24, 0x04	; 4
    4b44:	90 e0       	ldi	r25, 0x00	; 0
    4b46:	0e 94 d9 0b 	call	0x17b2	; 0x17b2 <csp_buffer_init>
    4b4a:	86 e0       	ldi	r24, 0x06	; 6
    4b4c:	0e 94 12 17 	call	0x2e24	; 0x2e24 <csp_init>
    4b50:	6b e7       	ldi	r22, 0x7B	; 123
    4b52:	72 e0       	ldi	r23, 0x02	; 2
    4b54:	80 e0       	ldi	r24, 0x00	; 0
    4b56:	0e 94 1c 16 	call	0x2c38	; 0x2c38 <csp_can_init>
    4b5a:	2f ef       	ldi	r18, 0xFF	; 255
    4b5c:	41 e1       	ldi	r20, 0x11	; 17
    4b5e:	52 e0       	ldi	r21, 0x02	; 2
    4b60:	65 e0       	ldi	r22, 0x05	; 5
    4b62:	80 e2       	ldi	r24, 0x20	; 32
    4b64:	0e 94 38 1d 	call	0x3a70	; 0x3a70 <csp_rtable_set>
    4b68:	61 e0       	ldi	r22, 0x01	; 1
    4b6a:	70 e0       	ldi	r23, 0x00	; 0
    4b6c:	84 eb       	ldi	r24, 0xB4	; 180
    4b6e:	90 e0       	ldi	r25, 0x00	; 0
    4b70:	0e 94 e2 1c 	call	0x39c4	; 0x39c4 <csp_route_start_task>
    4b74:	ce 01       	movw	r24, r28
    4b76:	03 96       	adiw	r24, 0x03	; 3
    4b78:	7c 01       	movw	r14, r24
    4b7a:	02 e0       	ldi	r16, 0x02	; 2
    4b7c:	10 e0       	ldi	r17, 0x00	; 0
    4b7e:	20 e0       	ldi	r18, 0x00	; 0
    4b80:	30 e0       	ldi	r19, 0x00	; 0
    4b82:	4c ed       	ldi	r20, 0xDC	; 220
    4b84:	50 e0       	ldi	r21, 0x00	; 0
    4b86:	6b ec       	ldi	r22, 0xCB	; 203
    4b88:	72 e0       	ldi	r23, 0x02	; 2
    4b8a:	8c eb       	ldi	r24, 0xBC	; 188
    4b8c:	94 e2       	ldi	r25, 0x24	; 36
    4b8e:	33 dc       	rcall	.-1946   	; 0x43f6 <csp_thread_create>
    4b90:	ce 01       	movw	r24, r28
    4b92:	01 96       	adiw	r24, 0x01	; 1
    4b94:	7c 01       	movw	r14, r24
    4b96:	01 e0       	ldi	r16, 0x01	; 1
    4b98:	10 e0       	ldi	r17, 0x00	; 0
    4b9a:	20 e0       	ldi	r18, 0x00	; 0
    4b9c:	30 e0       	ldi	r19, 0x00	; 0
    4b9e:	4c ed       	ldi	r20, 0xDC	; 220
    4ba0:	50 e0       	ldi	r21, 0x00	; 0
    4ba2:	62 ed       	ldi	r22, 0xD2	; 210
    4ba4:	72 e0       	ldi	r23, 0x02	; 2
    4ba6:	8f e1       	ldi	r24, 0x1F	; 31
    4ba8:	95 e2       	ldi	r25, 0x25	; 37
    4baa:	25 dc       	rcall	.-1974   	; 0x43f6 <csp_thread_create>
    4bac:	8e ef       	ldi	r24, 0xFE	; 254
    4bae:	e8 2e       	mov	r14, r24
    4bb0:	8f e1       	ldi	r24, 0x1F	; 31
    4bb2:	f8 2e       	mov	r15, r24
    4bb4:	03 e0       	ldi	r16, 0x03	; 3
    4bb6:	10 e0       	ldi	r17, 0x00	; 0
    4bb8:	20 e0       	ldi	r18, 0x00	; 0
    4bba:	30 e0       	ldi	r19, 0x00	; 0
    4bbc:	44 eb       	ldi	r20, 0xB4	; 180
    4bbe:	50 e0       	ldi	r21, 0x00	; 0
    4bc0:	69 ed       	ldi	r22, 0xD9	; 217
    4bc2:	72 e0       	ldi	r23, 0x02	; 2
    4bc4:	8b eb       	ldi	r24, 0xBB	; 187
    4bc6:	9a e0       	ldi	r25, 0x0A	; 10
    4bc8:	16 dc       	rcall	.-2004   	; 0x43f6 <csp_thread_create>
    4bca:	81 eb       	ldi	r24, 0xB1	; 177
    4bcc:	92 e1       	ldi	r25, 0x12	; 18
    4bce:	9f 93       	push	r25
    4bd0:	8f 93       	push	r24
    4bd2:	0e 94 7f 3c 	call	0x78fe	; 0x78fe <printf_P>
    4bd6:	0e 94 dc 0f 	call	0x1fb8	; 0x1fb8 <csp_conn_print_table>
    4bda:	83 ea       	ldi	r24, 0xA3	; 163
    4bdc:	92 e1       	ldi	r25, 0x12	; 18
    4bde:	9f 93       	push	r25
    4be0:	8f 93       	push	r24
    4be2:	0e 94 7f 3c 	call	0x78fe	; 0x78fe <printf_P>
    4be6:	0e 94 6b 1d 	call	0x3ad6	; 0x3ad6 <csp_rtable_print>
    4bea:	86 e9       	ldi	r24, 0x96	; 150
    4bec:	92 e1       	ldi	r25, 0x12	; 18
    4bee:	9f 93       	push	r25
    4bf0:	8f 93       	push	r24
    4bf2:	0e 94 7f 3c 	call	0x78fe	; 0x78fe <printf_P>
    4bf6:	0e 94 db 11 	call	0x23b6	; 0x23b6 <csp_iflist_print>
    4bfa:	e1 2c       	mov	r14, r1
    4bfc:	f1 2c       	mov	r15, r1
    4bfe:	20 e0       	ldi	r18, 0x00	; 0
    4c00:	30 e0       	ldi	r19, 0x00	; 0
    4c02:	44 e6       	ldi	r20, 0x64	; 100
    4c04:	50 e0       	ldi	r21, 0x00	; 0
    4c06:	6f ed       	ldi	r22, 0xDF	; 223
    4c08:	72 e0       	ldi	r23, 0x02	; 2
    4c0a:	8b e9       	ldi	r24, 0x9B	; 155
    4c0c:	94 e2       	ldi	r25, 0x24	; 36
    4c0e:	0e 94 bb 30 	call	0x6176	; 0x6176 <xTaskCreate>
    4c12:	61 e0       	ldi	r22, 0x01	; 1
    4c14:	70 e0       	ldi	r23, 0x00	; 0
    4c16:	8d e8       	ldi	r24, 0x8D	; 141
    4c18:	92 e1       	ldi	r25, 0x12	; 18
    4c1a:	0e 94 aa 09 	call	0x1354	; 0x1354 <usart_pstr_p>
    4c1e:	0e 94 50 32 	call	0x64a0	; 0x64a0 <vTaskStartScheduler>
    4c22:	0f 90       	pop	r0
    4c24:	0f 90       	pop	r0
    4c26:	0f 90       	pop	r0
    4c28:	0f 90       	pop	r0
    4c2a:	0f 90       	pop	r0
    4c2c:	0f 90       	pop	r0
    4c2e:	80 e0       	ldi	r24, 0x00	; 0
    4c30:	90 e0       	ldi	r25, 0x00	; 0
    4c32:	0f 90       	pop	r0
    4c34:	0f 90       	pop	r0
    4c36:	0f 90       	pop	r0
    4c38:	0f 90       	pop	r0
    4c3a:	df 91       	pop	r29
    4c3c:	cf 91       	pop	r28
    4c3e:	1f 91       	pop	r17
    4c40:	0f 91       	pop	r16
    4c42:	ff 90       	pop	r15
    4c44:	ef 90       	pop	r14
    4c46:	08 95       	ret

00004c48 <__vector_3>:
    4c48:	1f 92       	push	r1
    4c4a:	0f 92       	push	r0
    4c4c:	0f b6       	in	r0, 0x3f	; 63
    4c4e:	0f 92       	push	r0
    4c50:	11 24       	eor	r1, r1
    4c52:	0b b6       	in	r0, 0x3b	; 59
    4c54:	0f 92       	push	r0
    4c56:	2f 93       	push	r18
    4c58:	3f 93       	push	r19
    4c5a:	4f 93       	push	r20
    4c5c:	5f 93       	push	r21
    4c5e:	6f 93       	push	r22
    4c60:	7f 93       	push	r23
    4c62:	8f 93       	push	r24
    4c64:	9f 93       	push	r25
    4c66:	af 93       	push	r26
    4c68:	bf 93       	push	r27
    4c6a:	ef 93       	push	r30
    4c6c:	ff 93       	push	r31
    4c6e:	cf 93       	push	r28
    4c70:	df 93       	push	r29
    4c72:	1f 92       	push	r1
    4c74:	cd b7       	in	r28, 0x3d	; 61
    4c76:	de b7       	in	r29, 0x3e	; 62
    4c78:	d8 98       	cbi	0x1b, 0	; 27
    4c7a:	80 91 fe 1f 	lds	r24, 0x1FFE	; 0x801ffe <handle_canrx>
    4c7e:	90 91 ff 1f 	lds	r25, 0x1FFF	; 0x801fff <handle_canrx+0x1>
    4c82:	0e 94 08 32 	call	0x6410	; 0x6410 <xTaskResumeFromISR>
    4c86:	89 83       	std	Y+1, r24	; 0x01
    4c88:	89 81       	ldd	r24, Y+1	; 0x01
    4c8a:	81 30       	cpi	r24, 0x01	; 1
    4c8c:	09 f4       	brne	.+2      	; 0x4c90 <__vector_3+0x48>
    4c8e:	f9 d4       	rcall	.+2546   	; 0x5682 <vPortYield>
    4c90:	0f 90       	pop	r0
    4c92:	df 91       	pop	r29
    4c94:	cf 91       	pop	r28
    4c96:	ff 91       	pop	r31
    4c98:	ef 91       	pop	r30
    4c9a:	bf 91       	pop	r27
    4c9c:	af 91       	pop	r26
    4c9e:	9f 91       	pop	r25
    4ca0:	8f 91       	pop	r24
    4ca2:	7f 91       	pop	r23
    4ca4:	6f 91       	pop	r22
    4ca6:	5f 91       	pop	r21
    4ca8:	4f 91       	pop	r20
    4caa:	3f 91       	pop	r19
    4cac:	2f 91       	pop	r18
    4cae:	0f 90       	pop	r0
    4cb0:	0b be       	out	0x3b, r0	; 59
    4cb2:	0f 90       	pop	r0
    4cb4:	0f be       	out	0x3f, r0	; 63
    4cb6:	0f 90       	pop	r0
    4cb8:	1f 90       	pop	r1
    4cba:	18 95       	reti

00004cbc <__vector_default>:
    4cbc:	1f 92       	push	r1
    4cbe:	0f 92       	push	r0
    4cc0:	0f b6       	in	r0, 0x3f	; 63
    4cc2:	0f 92       	push	r0
    4cc4:	11 24       	eor	r1, r1
    4cc6:	61 e0       	ldi	r22, 0x01	; 1
    4cc8:	70 e0       	ldi	r23, 0x00	; 0
    4cca:	82 e2       	ldi	r24, 0x22	; 34
    4ccc:	92 e1       	ldi	r25, 0x12	; 18
    4cce:	0e 94 aa 09 	call	0x1354	; 0x1354 <usart_pstr_p>
    4cd2:	ff cf       	rjmp	.-2      	; 0x4cd2 <__vector_default+0x16>

00004cd4 <_ZN8SPIClass8transferEh>:
    4cd4:	8e bd       	out	0x2e, r24	; 46
    4cd6:	00 00       	nop
    4cd8:	0d b4       	in	r0, 0x2d	; 45
    4cda:	07 fe       	sbrs	r0, 7
    4cdc:	fd cf       	rjmp	.-6      	; 0x4cd8 <_ZN8SPIClass8transferEh+0x4>
    4cde:	8e b5       	in	r24, 0x2e	; 46
    4ce0:	08 95       	ret

00004ce2 <_ZN7MCP25158startSPIEv>:
    4ce2:	81 e0       	ldi	r24, 0x01	; 1
    4ce4:	80 93 00 20 	sts	0x2000, r24	; 0x802000 <_ZZN11SPISettings17init_AlwaysInlineEmhhE8clockDiv>
    4ce8:	80 91 07 20 	lds	r24, 0x2007	; 0x802007 <_ZN8SPIClass13interruptModeE>
    4cec:	88 23       	and	r24, r24
    4cee:	99 f0       	breq	.+38     	; 0x4d16 <_ZN7MCP25158startSPIEv+0x34>
    4cf0:	2f b7       	in	r18, 0x3f	; 63
    4cf2:	f8 94       	cli
    4cf4:	80 91 07 20 	lds	r24, 0x2007	; 0x802007 <_ZN8SPIClass13interruptModeE>
    4cf8:	81 30       	cpi	r24, 0x01	; 1
    4cfa:	59 f4       	brne	.+22     	; 0x4d12 <_ZN7MCP25158startSPIEv+0x30>
    4cfc:	8d b3       	in	r24, 0x1d	; 29
    4cfe:	80 93 05 20 	sts	0x2005, r24	; 0x802005 <_ZN8SPIClass13interruptSaveE>
    4d02:	9d b3       	in	r25, 0x1d	; 29
    4d04:	80 91 06 20 	lds	r24, 0x2006	; 0x802006 <_ZN8SPIClass13interruptMaskE>
    4d08:	80 95       	com	r24
    4d0a:	89 23       	and	r24, r25
    4d0c:	8d bb       	out	0x1d, r24	; 29
    4d0e:	2f bf       	out	0x3f, r18	; 63
    4d10:	02 c0       	rjmp	.+4      	; 0x4d16 <_ZN7MCP25158startSPIEv+0x34>
    4d12:	20 93 05 20 	sts	0x2005, r18	; 0x802005 <_ZN8SPIClass13interruptSaveE>
    4d16:	80 e5       	ldi	r24, 0x50	; 80
    4d18:	8c bd       	out	0x2c, r24	; 44
    4d1a:	81 e0       	ldi	r24, 0x01	; 1
    4d1c:	8d bd       	out	0x2d, r24	; 45
    4d1e:	2c 98       	cbi	0x05, 4	; 5
    4d20:	08 95       	ret

00004d22 <_ZN7MCP25156endSPIEv>:
    4d22:	2c 9a       	sbi	0x05, 4	; 5
    4d24:	80 91 07 20 	lds	r24, 0x2007	; 0x802007 <_ZN8SPIClass13interruptModeE>
    4d28:	88 23       	and	r24, r24
    4d2a:	61 f0       	breq	.+24     	; 0x4d44 <_ZN7MCP25156endSPIEv+0x22>
    4d2c:	9f b7       	in	r25, 0x3f	; 63
    4d2e:	f8 94       	cli
    4d30:	20 91 07 20 	lds	r18, 0x2007	; 0x802007 <_ZN8SPIClass13interruptModeE>
    4d34:	80 91 05 20 	lds	r24, 0x2005	; 0x802005 <_ZN8SPIClass13interruptSaveE>
    4d38:	21 30       	cpi	r18, 0x01	; 1
    4d3a:	19 f4       	brne	.+6      	; 0x4d42 <_ZN7MCP25156endSPIEv+0x20>
    4d3c:	8d bb       	out	0x1d, r24	; 29
    4d3e:	9f bf       	out	0x3f, r25	; 63
    4d40:	08 95       	ret
    4d42:	8f bf       	out	0x3f, r24	; 63
    4d44:	08 95       	ret

00004d46 <_ZN7MCP2515C1Ev>:
    4d46:	cf 93       	push	r28
    4d48:	df 93       	push	r29
    4d4a:	ec 01       	movw	r28, r24
    4d4c:	0e 94 fd 2f 	call	0x5ffa	; 0x5ffa <_ZN8SPIClass5beginEv>
    4d50:	24 9a       	sbi	0x04, 4	; 4
    4d52:	ce 01       	movw	r24, r28
    4d54:	df 91       	pop	r29
    4d56:	cf 91       	pop	r28
    4d58:	e4 cf       	rjmp	.-56     	; 0x4d22 <_ZN7MCP25156endSPIEv>

00004d5a <_ZN7MCP251512readRegisterENS_8REGISTERE>:
    4d5a:	1f 93       	push	r17
    4d5c:	cf 93       	push	r28
    4d5e:	df 93       	push	r29
    4d60:	ec 01       	movw	r28, r24
    4d62:	16 2f       	mov	r17, r22
    4d64:	be df       	rcall	.-132    	; 0x4ce2 <_ZN7MCP25158startSPIEv>
    4d66:	83 e0       	ldi	r24, 0x03	; 3
    4d68:	b5 df       	rcall	.-150    	; 0x4cd4 <_ZN8SPIClass8transferEh>
    4d6a:	81 2f       	mov	r24, r17
    4d6c:	b3 df       	rcall	.-154    	; 0x4cd4 <_ZN8SPIClass8transferEh>
    4d6e:	80 e0       	ldi	r24, 0x00	; 0
    4d70:	b1 df       	rcall	.-158    	; 0x4cd4 <_ZN8SPIClass8transferEh>
    4d72:	18 2f       	mov	r17, r24
    4d74:	ce 01       	movw	r24, r28
    4d76:	d5 df       	rcall	.-86     	; 0x4d22 <_ZN7MCP25156endSPIEv>
    4d78:	81 2f       	mov	r24, r17
    4d7a:	df 91       	pop	r29
    4d7c:	cf 91       	pop	r28
    4d7e:	1f 91       	pop	r17
    4d80:	08 95       	ret

00004d82 <_ZN7MCP251513readRegistersENS_8REGISTEREPhh>:
    4d82:	df 92       	push	r13
    4d84:	ef 92       	push	r14
    4d86:	ff 92       	push	r15
    4d88:	0f 93       	push	r16
    4d8a:	1f 93       	push	r17
    4d8c:	cf 93       	push	r28
    4d8e:	df 93       	push	r29
    4d90:	8c 01       	movw	r16, r24
    4d92:	c6 2f       	mov	r28, r22
    4d94:	d4 2e       	mov	r13, r20
    4d96:	e5 2e       	mov	r14, r21
    4d98:	f2 2e       	mov	r15, r18
    4d9a:	a3 df       	rcall	.-186    	; 0x4ce2 <_ZN7MCP25158startSPIEv>
    4d9c:	83 e0       	ldi	r24, 0x03	; 3
    4d9e:	9a df       	rcall	.-204    	; 0x4cd4 <_ZN8SPIClass8transferEh>
    4da0:	8c 2f       	mov	r24, r28
    4da2:	98 df       	rcall	.-208    	; 0x4cd4 <_ZN8SPIClass8transferEh>
    4da4:	cd 2d       	mov	r28, r13
    4da6:	de 2d       	mov	r29, r14
    4da8:	ce 01       	movw	r24, r28
    4daa:	8f 0d       	add	r24, r15
    4dac:	91 1d       	adc	r25, r1
    4dae:	7c 01       	movw	r14, r24
    4db0:	ce 15       	cp	r28, r14
    4db2:	df 05       	cpc	r29, r15
    4db4:	21 f0       	breq	.+8      	; 0x4dbe <_ZN7MCP251513readRegistersENS_8REGISTEREPhh+0x3c>
    4db6:	80 e0       	ldi	r24, 0x00	; 0
    4db8:	8d df       	rcall	.-230    	; 0x4cd4 <_ZN8SPIClass8transferEh>
    4dba:	89 93       	st	Y+, r24
    4dbc:	f9 cf       	rjmp	.-14     	; 0x4db0 <_ZN7MCP251513readRegistersENS_8REGISTEREPhh+0x2e>
    4dbe:	c8 01       	movw	r24, r16
    4dc0:	df 91       	pop	r29
    4dc2:	cf 91       	pop	r28
    4dc4:	1f 91       	pop	r17
    4dc6:	0f 91       	pop	r16
    4dc8:	ff 90       	pop	r15
    4dca:	ef 90       	pop	r14
    4dcc:	df 90       	pop	r13
    4dce:	a9 cf       	rjmp	.-174    	; 0x4d22 <_ZN7MCP25156endSPIEv>

00004dd0 <_ZN7MCP251511setRegisterENS_8REGISTEREh>:
    4dd0:	0f 93       	push	r16
    4dd2:	1f 93       	push	r17
    4dd4:	cf 93       	push	r28
    4dd6:	df 93       	push	r29
    4dd8:	ec 01       	movw	r28, r24
    4dda:	06 2f       	mov	r16, r22
    4ddc:	14 2f       	mov	r17, r20
    4dde:	81 df       	rcall	.-254    	; 0x4ce2 <_ZN7MCP25158startSPIEv>
    4de0:	82 e0       	ldi	r24, 0x02	; 2
    4de2:	78 df       	rcall	.-272    	; 0x4cd4 <_ZN8SPIClass8transferEh>
    4de4:	80 2f       	mov	r24, r16
    4de6:	76 df       	rcall	.-276    	; 0x4cd4 <_ZN8SPIClass8transferEh>
    4de8:	81 2f       	mov	r24, r17
    4dea:	74 df       	rcall	.-280    	; 0x4cd4 <_ZN8SPIClass8transferEh>
    4dec:	ce 01       	movw	r24, r28
    4dee:	df 91       	pop	r29
    4df0:	cf 91       	pop	r28
    4df2:	1f 91       	pop	r17
    4df4:	0f 91       	pop	r16
    4df6:	95 cf       	rjmp	.-214    	; 0x4d22 <_ZN7MCP25156endSPIEv>

00004df8 <_ZN7MCP251512setRegistersENS_8REGISTEREPKhh>:
    4df8:	df 92       	push	r13
    4dfa:	ef 92       	push	r14
    4dfc:	ff 92       	push	r15
    4dfe:	0f 93       	push	r16
    4e00:	1f 93       	push	r17
    4e02:	cf 93       	push	r28
    4e04:	df 93       	push	r29
    4e06:	8c 01       	movw	r16, r24
    4e08:	c6 2f       	mov	r28, r22
    4e0a:	d4 2e       	mov	r13, r20
    4e0c:	e5 2e       	mov	r14, r21
    4e0e:	f2 2e       	mov	r15, r18
    4e10:	68 df       	rcall	.-304    	; 0x4ce2 <_ZN7MCP25158startSPIEv>
    4e12:	82 e0       	ldi	r24, 0x02	; 2
    4e14:	5f df       	rcall	.-322    	; 0x4cd4 <_ZN8SPIClass8transferEh>
    4e16:	8c 2f       	mov	r24, r28
    4e18:	5d df       	rcall	.-326    	; 0x4cd4 <_ZN8SPIClass8transferEh>
    4e1a:	cd 2d       	mov	r28, r13
    4e1c:	de 2d       	mov	r29, r14
    4e1e:	ce 01       	movw	r24, r28
    4e20:	8f 0d       	add	r24, r15
    4e22:	91 1d       	adc	r25, r1
    4e24:	7c 01       	movw	r14, r24
    4e26:	ce 15       	cp	r28, r14
    4e28:	df 05       	cpc	r29, r15
    4e2a:	19 f0       	breq	.+6      	; 0x4e32 <_ZN7MCP251512setRegistersENS_8REGISTEREPKhh+0x3a>
    4e2c:	89 91       	ld	r24, Y+
    4e2e:	52 df       	rcall	.-348    	; 0x4cd4 <_ZN8SPIClass8transferEh>
    4e30:	fa cf       	rjmp	.-12     	; 0x4e26 <_ZN7MCP251512setRegistersENS_8REGISTEREPKhh+0x2e>
    4e32:	c8 01       	movw	r24, r16
    4e34:	df 91       	pop	r29
    4e36:	cf 91       	pop	r28
    4e38:	1f 91       	pop	r17
    4e3a:	0f 91       	pop	r16
    4e3c:	ff 90       	pop	r15
    4e3e:	ef 90       	pop	r14
    4e40:	df 90       	pop	r13
    4e42:	6f cf       	rjmp	.-290    	; 0x4d22 <_ZN7MCP25156endSPIEv>

00004e44 <_ZN7MCP251514modifyRegisterENS_8REGISTEREhh>:
    4e44:	ff 92       	push	r15
    4e46:	0f 93       	push	r16
    4e48:	1f 93       	push	r17
    4e4a:	cf 93       	push	r28
    4e4c:	df 93       	push	r29
    4e4e:	ec 01       	movw	r28, r24
    4e50:	f6 2e       	mov	r15, r22
    4e52:	04 2f       	mov	r16, r20
    4e54:	12 2f       	mov	r17, r18
    4e56:	45 df       	rcall	.-374    	; 0x4ce2 <_ZN7MCP25158startSPIEv>
    4e58:	85 e0       	ldi	r24, 0x05	; 5
    4e5a:	3c df       	rcall	.-392    	; 0x4cd4 <_ZN8SPIClass8transferEh>
    4e5c:	8f 2d       	mov	r24, r15
    4e5e:	3a df       	rcall	.-396    	; 0x4cd4 <_ZN8SPIClass8transferEh>
    4e60:	80 2f       	mov	r24, r16
    4e62:	38 df       	rcall	.-400    	; 0x4cd4 <_ZN8SPIClass8transferEh>
    4e64:	81 2f       	mov	r24, r17
    4e66:	36 df       	rcall	.-404    	; 0x4cd4 <_ZN8SPIClass8transferEh>
    4e68:	ce 01       	movw	r24, r28
    4e6a:	df 91       	pop	r29
    4e6c:	cf 91       	pop	r28
    4e6e:	1f 91       	pop	r17
    4e70:	0f 91       	pop	r16
    4e72:	ff 90       	pop	r15
    4e74:	56 cf       	rjmp	.-340    	; 0x4d22 <_ZN7MCP25156endSPIEv>

00004e76 <_ZN7MCP25155resetEv>:
    4e76:	ef 92       	push	r14
    4e78:	ff 92       	push	r15
    4e7a:	0f 93       	push	r16
    4e7c:	1f 93       	push	r17
    4e7e:	cf 93       	push	r28
    4e80:	df 93       	push	r29
    4e82:	cd b7       	in	r28, 0x3d	; 61
    4e84:	de b7       	in	r29, 0x3e	; 62
    4e86:	2e 97       	sbiw	r28, 0x0e	; 14
    4e88:	0f b6       	in	r0, 0x3f	; 63
    4e8a:	f8 94       	cli
    4e8c:	de bf       	out	0x3e, r29	; 62
    4e8e:	0f be       	out	0x3f, r0	; 63
    4e90:	cd bf       	out	0x3d, r28	; 61
    4e92:	8c 01       	movw	r16, r24
    4e94:	26 df       	rcall	.-436    	; 0x4ce2 <_ZN7MCP25158startSPIEv>
    4e96:	80 ec       	ldi	r24, 0xC0	; 192
    4e98:	1d df       	rcall	.-454    	; 0x4cd4 <_ZN8SPIClass8transferEh>
    4e9a:	c8 01       	movw	r24, r16
    4e9c:	42 df       	rcall	.-380    	; 0x4d22 <_ZN7MCP25156endSPIEv>
    4e9e:	83 ec       	ldi	r24, 0xC3	; 195
    4ea0:	99 e0       	ldi	r25, 0x09	; 9
    4ea2:	01 97       	sbiw	r24, 0x01	; 1
    4ea4:	f1 f7       	brne	.-4      	; 0x4ea2 <_ZN7MCP25155resetEv+0x2c>
    4ea6:	00 c0       	rjmp	.+0      	; 0x4ea8 <_ZN7MCP25155resetEv+0x32>
    4ea8:	00 00       	nop
    4eaa:	fe 01       	movw	r30, r28
    4eac:	31 96       	adiw	r30, 0x01	; 1
    4eae:	7f 01       	movw	r14, r30
    4eb0:	8e e0       	ldi	r24, 0x0E	; 14
    4eb2:	11 92       	st	Z+, r1
    4eb4:	8a 95       	dec	r24
    4eb6:	e9 f7       	brne	.-6      	; 0x4eb2 <_ZN7MCP25155resetEv+0x3c>
    4eb8:	2e e0       	ldi	r18, 0x0E	; 14
    4eba:	a7 01       	movw	r20, r14
    4ebc:	60 e3       	ldi	r22, 0x30	; 48
    4ebe:	c8 01       	movw	r24, r16
    4ec0:	9b df       	rcall	.-202    	; 0x4df8 <_ZN7MCP251512setRegistersENS_8REGISTEREPKhh>
    4ec2:	2e e0       	ldi	r18, 0x0E	; 14
    4ec4:	a7 01       	movw	r20, r14
    4ec6:	60 e4       	ldi	r22, 0x40	; 64
    4ec8:	c8 01       	movw	r24, r16
    4eca:	96 df       	rcall	.-212    	; 0x4df8 <_ZN7MCP251512setRegistersENS_8REGISTEREPKhh>
    4ecc:	2e e0       	ldi	r18, 0x0E	; 14
    4ece:	a7 01       	movw	r20, r14
    4ed0:	60 e5       	ldi	r22, 0x50	; 80
    4ed2:	c8 01       	movw	r24, r16
    4ed4:	91 df       	rcall	.-222    	; 0x4df8 <_ZN7MCP251512setRegistersENS_8REGISTEREPKhh>
    4ed6:	40 e0       	ldi	r20, 0x00	; 0
    4ed8:	60 e6       	ldi	r22, 0x60	; 96
    4eda:	c8 01       	movw	r24, r16
    4edc:	79 df       	rcall	.-270    	; 0x4dd0 <_ZN7MCP251511setRegisterENS_8REGISTEREh>
    4ede:	40 e0       	ldi	r20, 0x00	; 0
    4ee0:	60 e7       	ldi	r22, 0x70	; 112
    4ee2:	c8 01       	movw	r24, r16
    4ee4:	75 df       	rcall	.-278    	; 0x4dd0 <_ZN7MCP251511setRegisterENS_8REGISTEREh>
    4ee6:	43 e0       	ldi	r20, 0x03	; 3
    4ee8:	6b e2       	ldi	r22, 0x2B	; 43
    4eea:	c8 01       	movw	r24, r16
    4eec:	71 df       	rcall	.-286    	; 0x4dd0 <_ZN7MCP251511setRegisterENS_8REGISTEREh>
    4eee:	24 e0       	ldi	r18, 0x04	; 4
    4ef0:	44 e6       	ldi	r20, 0x64	; 100
    4ef2:	60 e6       	ldi	r22, 0x60	; 96
    4ef4:	c8 01       	movw	r24, r16
    4ef6:	a6 df       	rcall	.-180    	; 0x4e44 <_ZN7MCP251514modifyRegisterENS_8REGISTEREhh>
    4ef8:	20 e0       	ldi	r18, 0x00	; 0
    4efa:	40 e6       	ldi	r20, 0x60	; 96
    4efc:	60 e7       	ldi	r22, 0x70	; 112
    4efe:	c8 01       	movw	r24, r16
    4f00:	a1 df       	rcall	.-190    	; 0x4e44 <_ZN7MCP251514modifyRegisterENS_8REGISTEREhh>
    4f02:	80 e0       	ldi	r24, 0x00	; 0
    4f04:	2e 96       	adiw	r28, 0x0e	; 14
    4f06:	0f b6       	in	r0, 0x3f	; 63
    4f08:	f8 94       	cli
    4f0a:	de bf       	out	0x3e, r29	; 62
    4f0c:	0f be       	out	0x3f, r0	; 63
    4f0e:	cd bf       	out	0x3d, r28	; 61
    4f10:	df 91       	pop	r29
    4f12:	cf 91       	pop	r28
    4f14:	1f 91       	pop	r17
    4f16:	0f 91       	pop	r16
    4f18:	ff 90       	pop	r15
    4f1a:	ef 90       	pop	r14
    4f1c:	08 95       	ret

00004f1e <_ZN7MCP25159getStatusEv>:
    4f1e:	1f 93       	push	r17
    4f20:	cf 93       	push	r28
    4f22:	df 93       	push	r29
    4f24:	ec 01       	movw	r28, r24
    4f26:	dd de       	rcall	.-582    	; 0x4ce2 <_ZN7MCP25158startSPIEv>
    4f28:	80 ea       	ldi	r24, 0xA0	; 160
    4f2a:	d4 de       	rcall	.-600    	; 0x4cd4 <_ZN8SPIClass8transferEh>
    4f2c:	80 e0       	ldi	r24, 0x00	; 0
    4f2e:	d2 de       	rcall	.-604    	; 0x4cd4 <_ZN8SPIClass8transferEh>
    4f30:	18 2f       	mov	r17, r24
    4f32:	ce 01       	movw	r24, r28
    4f34:	f6 de       	rcall	.-532    	; 0x4d22 <_ZN7MCP25156endSPIEv>
    4f36:	81 2f       	mov	r24, r17
    4f38:	df 91       	pop	r29
    4f3a:	cf 91       	pop	r28
    4f3c:	1f 91       	pop	r17
    4f3e:	08 95       	ret

00004f40 <_ZN7MCP25157setModeENS_18CANCTRL_REQOP_MODEE>:
    4f40:	0f 93       	push	r16
    4f42:	1f 93       	push	r17
    4f44:	cf 93       	push	r28
    4f46:	df 93       	push	r29
    4f48:	8c 01       	movw	r16, r24
    4f4a:	c6 2f       	mov	r28, r22
    4f4c:	df b7       	in	r29, 0x3f	; 63
    4f4e:	26 2f       	mov	r18, r22
    4f50:	40 ee       	ldi	r20, 0xE0	; 224
    4f52:	6f e0       	ldi	r22, 0x0F	; 15
    4f54:	77 df       	rcall	.-274    	; 0x4e44 <_ZN7MCP251514modifyRegisterENS_8REGISTEREhh>
    4f56:	78 94       	sei
    4f58:	80 e7       	ldi	r24, 0x70	; 112
    4f5a:	92 e0       	ldi	r25, 0x02	; 2
    4f5c:	eb da       	rcall	.-2602   	; 0x4534 <_Z12timeoutstarti>
    4f5e:	0c db       	rcall	.-2536   	; 0x4578 <_Z12timeoutcheckv>
    4f60:	01 96       	adiw	r24, 0x01	; 1
    4f62:	41 f0       	breq	.+16     	; 0x4f74 <_ZN7MCP25157setModeENS_18CANCTRL_REQOP_MODEE+0x34>
    4f64:	6e e0       	ldi	r22, 0x0E	; 14
    4f66:	c8 01       	movw	r24, r16
    4f68:	f8 de       	rcall	.-528    	; 0x4d5a <_ZN7MCP251512readRegisterENS_8REGISTERE>
    4f6a:	80 7e       	andi	r24, 0xE0	; 224
    4f6c:	c8 13       	cpse	r28, r24
    4f6e:	f7 cf       	rjmp	.-18     	; 0x4f5e <_ZN7MCP25157setModeENS_18CANCTRL_REQOP_MODEE+0x1e>
    4f70:	81 e0       	ldi	r24, 0x01	; 1
    4f72:	01 c0       	rjmp	.+2      	; 0x4f76 <_ZN7MCP25157setModeENS_18CANCTRL_REQOP_MODEE+0x36>
    4f74:	80 e0       	ldi	r24, 0x00	; 0
    4f76:	df bf       	out	0x3f, r29	; 63
    4f78:	91 e0       	ldi	r25, 0x01	; 1
    4f7a:	89 27       	eor	r24, r25
    4f7c:	df 91       	pop	r29
    4f7e:	cf 91       	pop	r28
    4f80:	1f 91       	pop	r17
    4f82:	0f 91       	pop	r16
    4f84:	08 95       	ret

00004f86 <_ZN7MCP251513setConfigModeEv>:
    4f86:	60 e8       	ldi	r22, 0x80	; 128
    4f88:	db cf       	rjmp	.-74     	; 0x4f40 <_ZN7MCP25157setModeENS_18CANCTRL_REQOP_MODEE>

00004f8a <_ZN7MCP251513setNormalModeEv>:
    4f8a:	60 e0       	ldi	r22, 0x00	; 0
    4f8c:	d9 cf       	rjmp	.-78     	; 0x4f40 <_ZN7MCP25157setModeENS_18CANCTRL_REQOP_MODEE>

00004f8e <_ZN7MCP251510setBitrateE9CAN_SPEED9CAN_CLOCK>:
    4f8e:	0f 93       	push	r16
    4f90:	1f 93       	push	r17
    4f92:	cf 93       	push	r28
    4f94:	df 93       	push	r29
    4f96:	8c 01       	movw	r16, r24
    4f98:	c6 2f       	mov	r28, r22
    4f9a:	d4 2f       	mov	r29, r20
    4f9c:	f4 df       	rcall	.-24     	; 0x4f86 <_ZN7MCP251513setConfigModeEv>
    4f9e:	81 11       	cpse	r24, r1
    4fa0:	ba c0       	rjmp	.+372    	; 0x5116 <_ZN7MCP251510setBitrateE9CAN_SPEED9CAN_CLOCK+0x188>
    4fa2:	d1 30       	cpi	r29, 0x01	; 1
    4fa4:	b9 f1       	breq	.+110    	; 0x5014 <_ZN7MCP251510setBitrateE9CAN_SPEED9CAN_CLOCK+0x86>
    4fa6:	08 f4       	brcc	.+2      	; 0x4faa <_ZN7MCP251510setBitrateE9CAN_SPEED9CAN_CLOCK+0x1c>
    4fa8:	68 c0       	rjmp	.+208    	; 0x507a <_ZN7MCP251510setBitrateE9CAN_SPEED9CAN_CLOCK+0xec>
    4faa:	d2 30       	cpi	r29, 0x02	; 2
    4fac:	09 f0       	breq	.+2      	; 0x4fb0 <_ZN7MCP251510setBitrateE9CAN_SPEED9CAN_CLOCK+0x22>
    4fae:	96 c0       	rjmp	.+300    	; 0x50dc <_ZN7MCP251510setBitrateE9CAN_SPEED9CAN_CLOCK+0x14e>
    4fb0:	8c 2f       	mov	r24, r28
    4fb2:	90 e0       	ldi	r25, 0x00	; 0
    4fb4:	80 31       	cpi	r24, 0x10	; 16
    4fb6:	91 05       	cpc	r25, r1
    4fb8:	08 f0       	brcs	.+2      	; 0x4fbc <_ZN7MCP251510setBitrateE9CAN_SPEED9CAN_CLOCK+0x2e>
    4fba:	90 c0       	rjmp	.+288    	; 0x50dc <_ZN7MCP251510setBitrateE9CAN_SPEED9CAN_CLOCK+0x14e>
    4fbc:	fc 01       	movw	r30, r24
    4fbe:	88 27       	eor	r24, r24
    4fc0:	e7 58       	subi	r30, 0x87	; 135
    4fc2:	ff 4f       	sbci	r31, 0xFF	; 255
    4fc4:	8f 4f       	sbci	r24, 0xFF	; 255
    4fc6:	0c 94 53 3b 	jmp	0x76a6	; 0x76a6 <__tablejump2__>
    4fca:	c7 e8       	ldi	r28, 0x87	; 135
    4fcc:	df eb       	ldi	r29, 0xBF	; 191
    4fce:	34 c0       	rjmp	.+104    	; 0x5038 <_ZN7MCP251510setBitrateE9CAN_SPEED9CAN_CLOCK+0xaa>
    4fd0:	c4 e8       	ldi	r28, 0x84	; 132
    4fd2:	d4 ea       	ldi	r29, 0xA4	; 164
    4fd4:	8b c0       	rjmp	.+278    	; 0x50ec <_ZN7MCP251510setBitrateE9CAN_SPEED9CAN_CLOCK+0x15e>
    4fd6:	c5 e8       	ldi	r28, 0x85	; 133
    4fd8:	d2 ee       	ldi	r29, 0xE2	; 226
    4fda:	47 e4       	ldi	r20, 0x47	; 71
    4fdc:	90 c0       	rjmp	.+288    	; 0x50fe <_ZN7MCP251510setBitrateE9CAN_SPEED9CAN_CLOCK+0x170>
    4fde:	c7 e8       	ldi	r28, 0x87	; 135
    4fe0:	df eb       	ldi	r29, 0xBF	; 191
    4fe2:	6b c0       	rjmp	.+214    	; 0x50ba <_ZN7MCP251510setBitrateE9CAN_SPEED9CAN_CLOCK+0x12c>
    4fe4:	c6 e8       	ldi	r28, 0x86	; 134
    4fe6:	d4 eb       	ldi	r29, 0xB4	; 180
    4fe8:	68 c0       	rjmp	.+208    	; 0x50ba <_ZN7MCP251510setBitrateE9CAN_SPEED9CAN_CLOCK+0x12c>
    4fea:	c7 e8       	ldi	r28, 0x87	; 135
    4fec:	df eb       	ldi	r29, 0xBF	; 191
    4fee:	69 c0       	rjmp	.+210    	; 0x50c2 <_ZN7MCP251510setBitrateE9CAN_SPEED9CAN_CLOCK+0x134>
    4ff0:	c6 e8       	ldi	r28, 0x86	; 134
    4ff2:	d4 eb       	ldi	r29, 0xB4	; 180
    4ff4:	66 c0       	rjmp	.+204    	; 0x50c2 <_ZN7MCP251510setBitrateE9CAN_SPEED9CAN_CLOCK+0x134>
    4ff6:	c5 e8       	ldi	r28, 0x85	; 133
    4ff8:	d1 eb       	ldi	r29, 0xB1	; 177
    4ffa:	63 c0       	rjmp	.+198    	; 0x50c2 <_ZN7MCP251510setBitrateE9CAN_SPEED9CAN_CLOCK+0x134>
    4ffc:	c6 e8       	ldi	r28, 0x86	; 134
    4ffe:	d4 eb       	ldi	r29, 0xB4	; 180
    5000:	68 c0       	rjmp	.+208    	; 0x50d2 <_ZN7MCP251510setBitrateE9CAN_SPEED9CAN_CLOCK+0x144>
    5002:	c5 e8       	ldi	r28, 0x85	; 133
    5004:	d1 eb       	ldi	r29, 0xB1	; 177
    5006:	65 c0       	rjmp	.+202    	; 0x50d2 <_ZN7MCP251510setBitrateE9CAN_SPEED9CAN_CLOCK+0x144>
    5008:	c2 e8       	ldi	r28, 0x82	; 130
    500a:	d0 e9       	ldi	r29, 0x90	; 144
    500c:	62 c0       	rjmp	.+196    	; 0x50d2 <_ZN7MCP251510setBitrateE9CAN_SPEED9CAN_CLOCK+0x144>
    500e:	c0 e8       	ldi	r28, 0x80	; 128
    5010:	d0 e8       	ldi	r29, 0x80	; 128
    5012:	5f c0       	rjmp	.+190    	; 0x50d2 <_ZN7MCP251510setBitrateE9CAN_SPEED9CAN_CLOCK+0x144>
    5014:	8c 2f       	mov	r24, r28
    5016:	90 e0       	ldi	r25, 0x00	; 0
    5018:	80 31       	cpi	r24, 0x10	; 16
    501a:	91 05       	cpc	r25, r1
    501c:	08 f0       	brcs	.+2      	; 0x5020 <_ZN7MCP251510setBitrateE9CAN_SPEED9CAN_CLOCK+0x92>
    501e:	5e c0       	rjmp	.+188    	; 0x50dc <_ZN7MCP251510setBitrateE9CAN_SPEED9CAN_CLOCK+0x14e>
    5020:	fc 01       	movw	r30, r24
    5022:	88 27       	eor	r24, r24
    5024:	e7 57       	subi	r30, 0x77	; 119
    5026:	ff 4f       	sbci	r31, 0xFF	; 255
    5028:	8f 4f       	sbci	r24, 0xFF	; 255
    502a:	0c 94 53 3b 	jmp	0x76a6	; 0x76a6 <__tablejump2__>
    502e:	c7 e8       	ldi	r28, 0x87	; 135
    5030:	df ef       	ldi	r29, 0xFF	; 255
    5032:	58 c0       	rjmp	.+176    	; 0x50e4 <_ZN7MCP251510setBitrateE9CAN_SPEED9CAN_CLOCK+0x156>
    5034:	c7 e8       	ldi	r28, 0x87	; 135
    5036:	df ef       	ldi	r29, 0xFF	; 255
    5038:	4f e0       	ldi	r20, 0x0F	; 15
    503a:	61 c0       	rjmp	.+194    	; 0x50fe <_ZN7MCP251510setBitrateE9CAN_SPEED9CAN_CLOCK+0x170>
    503c:	c5 e8       	ldi	r28, 0x85	; 133
    503e:	d1 ef       	ldi	r29, 0xF1	; 241
    5040:	4e e4       	ldi	r20, 0x4E	; 78
    5042:	5d c0       	rjmp	.+186    	; 0x50fe <_ZN7MCP251510setBitrateE9CAN_SPEED9CAN_CLOCK+0x170>
    5044:	c7 e8       	ldi	r28, 0x87	; 135
    5046:	df ef       	ldi	r29, 0xFF	; 255
    5048:	51 c0       	rjmp	.+162    	; 0x50ec <_ZN7MCP251510setBitrateE9CAN_SPEED9CAN_CLOCK+0x15e>
    504a:	c7 e8       	ldi	r28, 0x87	; 135
    504c:	da ef       	ldi	r29, 0xFA	; 250
    504e:	4e c0       	rjmp	.+156    	; 0x50ec <_ZN7MCP251510setBitrateE9CAN_SPEED9CAN_CLOCK+0x15e>
    5050:	c7 e8       	ldi	r28, 0x87	; 135
    5052:	df ef       	ldi	r29, 0xFF	; 255
    5054:	32 c0       	rjmp	.+100    	; 0x50ba <_ZN7MCP251510setBitrateE9CAN_SPEED9CAN_CLOCK+0x12c>
    5056:	c7 e0       	ldi	r28, 0x07	; 7
    5058:	de eb       	ldi	r29, 0xBE	; 190
    505a:	2f c0       	rjmp	.+94     	; 0x50ba <_ZN7MCP251510setBitrateE9CAN_SPEED9CAN_CLOCK+0x12c>
    505c:	c6 e8       	ldi	r28, 0x86	; 134
    505e:	d0 ef       	ldi	r29, 0xF0	; 240
    5060:	2c c0       	rjmp	.+88     	; 0x50ba <_ZN7MCP251510setBitrateE9CAN_SPEED9CAN_CLOCK+0x12c>
    5062:	c7 e8       	ldi	r28, 0x87	; 135
    5064:	da ef       	ldi	r29, 0xFA	; 250
    5066:	2d c0       	rjmp	.+90     	; 0x50c2 <_ZN7MCP251510setBitrateE9CAN_SPEED9CAN_CLOCK+0x134>
    5068:	c5 e8       	ldi	r28, 0x85	; 133
    506a:	d1 ef       	ldi	r29, 0xF1	; 241
    506c:	2e c0       	rjmp	.+92     	; 0x50ca <_ZN7MCP251510setBitrateE9CAN_SPEED9CAN_CLOCK+0x13c>
    506e:	c6 e8       	ldi	r28, 0x86	; 134
    5070:	d0 ef       	ldi	r29, 0xF0	; 240
    5072:	2f c0       	rjmp	.+94     	; 0x50d2 <_ZN7MCP251510setBitrateE9CAN_SPEED9CAN_CLOCK+0x144>
    5074:	c2 e8       	ldi	r28, 0x82	; 130
    5076:	d0 ed       	ldi	r29, 0xD0	; 208
    5078:	2c c0       	rjmp	.+88     	; 0x50d2 <_ZN7MCP251510setBitrateE9CAN_SPEED9CAN_CLOCK+0x144>
    507a:	8c 2f       	mov	r24, r28
    507c:	90 e0       	ldi	r25, 0x00	; 0
    507e:	fc 01       	movw	r30, r24
    5080:	34 97       	sbiw	r30, 0x04	; 4
    5082:	ec 30       	cpi	r30, 0x0C	; 12
    5084:	f1 05       	cpc	r31, r1
    5086:	50 f5       	brcc	.+84     	; 0x50dc <_ZN7MCP251510setBitrateE9CAN_SPEED9CAN_CLOCK+0x14e>
    5088:	88 27       	eor	r24, r24
    508a:	e7 56       	subi	r30, 0x67	; 103
    508c:	ff 4f       	sbci	r31, 0xFF	; 255
    508e:	8f 4f       	sbci	r24, 0xFF	; 255
    5090:	0c 94 53 3b 	jmp	0x76a6	; 0x76a6 <__tablejump2__>
    5094:	c7 e8       	ldi	r28, 0x87	; 135
    5096:	df ef       	ldi	r29, 0xFF	; 255
    5098:	02 c0       	rjmp	.+4      	; 0x509e <_ZN7MCP251510setBitrateE9CAN_SPEED9CAN_CLOCK+0x110>
    509a:	c7 e8       	ldi	r28, 0x87	; 135
    509c:	da ef       	ldi	r29, 0xFA	; 250
    509e:	49 e0       	ldi	r20, 0x09	; 9
    50a0:	2e c0       	rjmp	.+92     	; 0x50fe <_ZN7MCP251510setBitrateE9CAN_SPEED9CAN_CLOCK+0x170>
    50a2:	c7 e8       	ldi	r28, 0x87	; 135
    50a4:	df ef       	ldi	r29, 0xFF	; 255
    50a6:	02 c0       	rjmp	.+4      	; 0x50ac <_ZN7MCP251510setBitrateE9CAN_SPEED9CAN_CLOCK+0x11e>
    50a8:	c7 e8       	ldi	r28, 0x87	; 135
    50aa:	de ef       	ldi	r29, 0xFE	; 254
    50ac:	44 e0       	ldi	r20, 0x04	; 4
    50ae:	27 c0       	rjmp	.+78     	; 0x50fe <_ZN7MCP251510setBitrateE9CAN_SPEED9CAN_CLOCK+0x170>
    50b0:	c7 e8       	ldi	r28, 0x87	; 135
    50b2:	da ef       	ldi	r29, 0xFA	; 250
    50b4:	fb cf       	rjmp	.-10     	; 0x50ac <_ZN7MCP251510setBitrateE9CAN_SPEED9CAN_CLOCK+0x11e>
    50b6:	c7 e8       	ldi	r28, 0x87	; 135
    50b8:	da ef       	ldi	r29, 0xFA	; 250
    50ba:	43 e0       	ldi	r20, 0x03	; 3
    50bc:	20 c0       	rjmp	.+64     	; 0x50fe <_ZN7MCP251510setBitrateE9CAN_SPEED9CAN_CLOCK+0x170>
    50be:	c7 e8       	ldi	r28, 0x87	; 135
    50c0:	df ef       	ldi	r29, 0xFF	; 255
    50c2:	41 e0       	ldi	r20, 0x01	; 1
    50c4:	1c c0       	rjmp	.+56     	; 0x50fe <_ZN7MCP251510setBitrateE9CAN_SPEED9CAN_CLOCK+0x170>
    50c6:	c6 e8       	ldi	r28, 0x86	; 134
    50c8:	db ef       	ldi	r29, 0xFB	; 251
    50ca:	41 e4       	ldi	r20, 0x41	; 65
    50cc:	18 c0       	rjmp	.+48     	; 0x50fe <_ZN7MCP251510setBitrateE9CAN_SPEED9CAN_CLOCK+0x170>
    50ce:	c7 e8       	ldi	r28, 0x87	; 135
    50d0:	da ef       	ldi	r29, 0xFA	; 250
    50d2:	40 e0       	ldi	r20, 0x00	; 0
    50d4:	14 c0       	rjmp	.+40     	; 0x50fe <_ZN7MCP251510setBitrateE9CAN_SPEED9CAN_CLOCK+0x170>
    50d6:	c2 e8       	ldi	r28, 0x82	; 130
    50d8:	d9 ed       	ldi	r29, 0xD9	; 217
    50da:	fb cf       	rjmp	.-10     	; 0x50d2 <_ZN7MCP251510setBitrateE9CAN_SPEED9CAN_CLOCK+0x144>
    50dc:	81 e0       	ldi	r24, 0x01	; 1
    50de:	1b c0       	rjmp	.+54     	; 0x5116 <_ZN7MCP251510setBitrateE9CAN_SPEED9CAN_CLOCK+0x188>
    50e0:	c7 e8       	ldi	r28, 0x87	; 135
    50e2:	df eb       	ldi	r29, 0xBF	; 191
    50e4:	4f e1       	ldi	r20, 0x1F	; 31
    50e6:	0b c0       	rjmp	.+22     	; 0x50fe <_ZN7MCP251510setBitrateE9CAN_SPEED9CAN_CLOCK+0x170>
    50e8:	c7 e8       	ldi	r28, 0x87	; 135
    50ea:	df eb       	ldi	r29, 0xBF	; 191
    50ec:	47 e0       	ldi	r20, 0x07	; 7
    50ee:	07 c0       	rjmp	.+14     	; 0x50fe <_ZN7MCP251510setBitrateE9CAN_SPEED9CAN_CLOCK+0x170>
    50f0:	c7 e8       	ldi	r28, 0x87	; 135
    50f2:	df ef       	ldi	r29, 0xFF	; 255
    50f4:	4f e3       	ldi	r20, 0x3F	; 63
    50f6:	03 c0       	rjmp	.+6      	; 0x50fe <_ZN7MCP251510setBitrateE9CAN_SPEED9CAN_CLOCK+0x170>
    50f8:	c7 e8       	ldi	r28, 0x87	; 135
    50fa:	df ef       	ldi	r29, 0xFF	; 255
    50fc:	4b e0       	ldi	r20, 0x0B	; 11
    50fe:	6a e2       	ldi	r22, 0x2A	; 42
    5100:	c8 01       	movw	r24, r16
    5102:	66 de       	rcall	.-820    	; 0x4dd0 <_ZN7MCP251511setRegisterENS_8REGISTEREh>
    5104:	4d 2f       	mov	r20, r29
    5106:	69 e2       	ldi	r22, 0x29	; 41
    5108:	c8 01       	movw	r24, r16
    510a:	62 de       	rcall	.-828    	; 0x4dd0 <_ZN7MCP251511setRegisterENS_8REGISTEREh>
    510c:	4c 2f       	mov	r20, r28
    510e:	68 e2       	ldi	r22, 0x28	; 40
    5110:	c8 01       	movw	r24, r16
    5112:	5e de       	rcall	.-836    	; 0x4dd0 <_ZN7MCP251511setRegisterENS_8REGISTEREh>
    5114:	80 e0       	ldi	r24, 0x00	; 0
    5116:	df 91       	pop	r29
    5118:	cf 91       	pop	r28
    511a:	1f 91       	pop	r17
    511c:	0f 91       	pop	r16
    511e:	08 95       	ret

00005120 <_ZN7MCP251510setBitrateE9CAN_SPEED>:
    5120:	41 e0       	ldi	r20, 0x01	; 1
    5122:	35 cf       	rjmp	.-406    	; 0x4f8e <_ZN7MCP251510setBitrateE9CAN_SPEED9CAN_CLOCK>

00005124 <_ZN7MCP25159prepareIdEPhbm>:
    5124:	0f 93       	push	r16
    5126:	1f 93       	push	r17
    5128:	fb 01       	movw	r30, r22
    512a:	44 23       	and	r20, r20
    512c:	b1 f0       	breq	.+44     	; 0x515a <_ZN7MCP25159prepareIdEPhbm+0x36>
    512e:	03 83       	std	Z+3, r16	; 0x03
    5130:	12 83       	std	Z+2, r17	; 0x02
    5132:	89 01       	movw	r16, r18
    5134:	22 27       	eor	r18, r18
    5136:	33 27       	eor	r19, r19
    5138:	90 2f       	mov	r25, r16
    513a:	9c 71       	andi	r25, 0x1C	; 28
    513c:	80 2f       	mov	r24, r16
    513e:	83 70       	andi	r24, 0x03	; 3
    5140:	48 e0       	ldi	r20, 0x08	; 8
    5142:	94 9f       	mul	r25, r20
    5144:	80 0d       	add	r24, r0
    5146:	11 24       	eor	r1, r1
    5148:	88 60       	ori	r24, 0x08	; 8
    514a:	81 83       	std	Z+1, r24	; 0x01
    514c:	55 e0       	ldi	r21, 0x05	; 5
    514e:	16 95       	lsr	r17
    5150:	07 95       	ror	r16
    5152:	5a 95       	dec	r21
    5154:	e1 f7       	brne	.-8      	; 0x514e <_ZN7MCP25159prepareIdEPhbm+0x2a>
    5156:	00 83       	st	Z, r16
    5158:	0d c0       	rjmp	.+26     	; 0x5174 <_ZN7MCP25159prepareIdEPhbm+0x50>
    515a:	c8 01       	movw	r24, r16
    515c:	23 e0       	ldi	r18, 0x03	; 3
    515e:	96 95       	lsr	r25
    5160:	87 95       	ror	r24
    5162:	2a 95       	dec	r18
    5164:	e1 f7       	brne	.-8      	; 0x515e <_ZN7MCP25159prepareIdEPhbm+0x3a>
    5166:	80 83       	st	Z, r24
    5168:	02 95       	swap	r16
    516a:	00 0f       	add	r16, r16
    516c:	00 7e       	andi	r16, 0xE0	; 224
    516e:	01 83       	std	Z+1, r16	; 0x01
    5170:	13 82       	std	Z+3, r1	; 0x03
    5172:	12 82       	std	Z+2, r1	; 0x02
    5174:	1f 91       	pop	r17
    5176:	0f 91       	pop	r16
    5178:	08 95       	ret

0000517a <_ZN7MCP251513setFilterMaskENS_4MASKEbm>:
    517a:	8f 92       	push	r8
    517c:	9f 92       	push	r9
    517e:	af 92       	push	r10
    5180:	bf 92       	push	r11
    5182:	cf 92       	push	r12
    5184:	df 92       	push	r13
    5186:	ef 92       	push	r14
    5188:	ff 92       	push	r15
    518a:	0f 93       	push	r16
    518c:	1f 93       	push	r17
    518e:	cf 93       	push	r28
    5190:	df 93       	push	r29
    5192:	00 d0       	rcall	.+0      	; 0x5194 <_ZN7MCP251513setFilterMaskENS_4MASKEbm+0x1a>
    5194:	1f 92       	push	r1
    5196:	cd b7       	in	r28, 0x3d	; 61
    5198:	de b7       	in	r29, 0x3e	; 62
    519a:	7c 01       	movw	r14, r24
    519c:	d6 2e       	mov	r13, r22
    519e:	c4 2e       	mov	r12, r20
    51a0:	48 01       	movw	r8, r16
    51a2:	59 01       	movw	r10, r18
    51a4:	f0 de       	rcall	.-544    	; 0x4f86 <_ZN7MCP251513setConfigModeEv>
    51a6:	81 11       	cpse	r24, r1
    51a8:	19 c0       	rjmp	.+50     	; 0x51dc <_ZN7MCP251513setFilterMaskENS_4MASKEbm+0x62>
    51aa:	95 01       	movw	r18, r10
    51ac:	84 01       	movw	r16, r8
    51ae:	4c 2d       	mov	r20, r12
    51b0:	be 01       	movw	r22, r28
    51b2:	6f 5f       	subi	r22, 0xFF	; 255
    51b4:	7f 4f       	sbci	r23, 0xFF	; 255
    51b6:	c7 01       	movw	r24, r14
    51b8:	b5 df       	rcall	.-150    	; 0x5124 <_ZN7MCP25159prepareIdEPhbm>
    51ba:	dd 20       	and	r13, r13
    51bc:	29 f0       	breq	.+10     	; 0x51c8 <_ZN7MCP251513setFilterMaskENS_4MASKEbm+0x4e>
    51be:	81 e0       	ldi	r24, 0x01	; 1
    51c0:	d8 12       	cpse	r13, r24
    51c2:	0b c0       	rjmp	.+22     	; 0x51da <_ZN7MCP251513setFilterMaskENS_4MASKEbm+0x60>
    51c4:	64 e2       	ldi	r22, 0x24	; 36
    51c6:	01 c0       	rjmp	.+2      	; 0x51ca <_ZN7MCP251513setFilterMaskENS_4MASKEbm+0x50>
    51c8:	60 e2       	ldi	r22, 0x20	; 32
    51ca:	24 e0       	ldi	r18, 0x04	; 4
    51cc:	ae 01       	movw	r20, r28
    51ce:	4f 5f       	subi	r20, 0xFF	; 255
    51d0:	5f 4f       	sbci	r21, 0xFF	; 255
    51d2:	c7 01       	movw	r24, r14
    51d4:	11 de       	rcall	.-990    	; 0x4df8 <_ZN7MCP251512setRegistersENS_8REGISTEREPKhh>
    51d6:	80 e0       	ldi	r24, 0x00	; 0
    51d8:	01 c0       	rjmp	.+2      	; 0x51dc <_ZN7MCP251513setFilterMaskENS_4MASKEbm+0x62>
    51da:	81 e0       	ldi	r24, 0x01	; 1
    51dc:	0f 90       	pop	r0
    51de:	0f 90       	pop	r0
    51e0:	0f 90       	pop	r0
    51e2:	0f 90       	pop	r0
    51e4:	df 91       	pop	r29
    51e6:	cf 91       	pop	r28
    51e8:	1f 91       	pop	r17
    51ea:	0f 91       	pop	r16
    51ec:	ff 90       	pop	r15
    51ee:	ef 90       	pop	r14
    51f0:	df 90       	pop	r13
    51f2:	cf 90       	pop	r12
    51f4:	bf 90       	pop	r11
    51f6:	af 90       	pop	r10
    51f8:	9f 90       	pop	r9
    51fa:	8f 90       	pop	r8
    51fc:	08 95       	ret

000051fe <_ZN7MCP25159setFilterENS_3RXFEbm>:
    51fe:	8f 92       	push	r8
    5200:	9f 92       	push	r9
    5202:	af 92       	push	r10
    5204:	bf 92       	push	r11
    5206:	cf 92       	push	r12
    5208:	df 92       	push	r13
    520a:	ef 92       	push	r14
    520c:	ff 92       	push	r15
    520e:	0f 93       	push	r16
    5210:	1f 93       	push	r17
    5212:	cf 93       	push	r28
    5214:	df 93       	push	r29
    5216:	00 d0       	rcall	.+0      	; 0x5218 <_ZN7MCP25159setFilterENS_3RXFEbm+0x1a>
    5218:	1f 92       	push	r1
    521a:	cd b7       	in	r28, 0x3d	; 61
    521c:	de b7       	in	r29, 0x3e	; 62
    521e:	6c 01       	movw	r12, r24
    5220:	f6 2e       	mov	r15, r22
    5222:	e4 2e       	mov	r14, r20
    5224:	48 01       	movw	r8, r16
    5226:	59 01       	movw	r10, r18
    5228:	ae de       	rcall	.-676    	; 0x4f86 <_ZN7MCP251513setConfigModeEv>
    522a:	81 11       	cpse	r24, r1
    522c:	34 c0       	rjmp	.+104    	; 0x5296 <_ZN7MCP25159setFilterENS_3RXFEbm+0x98>
    522e:	82 e0       	ldi	r24, 0x02	; 2
    5230:	f8 16       	cp	r15, r24
    5232:	a9 f0       	breq	.+42     	; 0x525e <_ZN7MCP25159setFilterENS_3RXFEbm+0x60>
    5234:	8f 15       	cp	r24, r15
    5236:	40 f0       	brcs	.+16     	; 0x5248 <_ZN7MCP25159setFilterENS_3RXFEbm+0x4a>
    5238:	ff 20       	and	r15, r15
    523a:	d1 f0       	breq	.+52     	; 0x5270 <_ZN7MCP25159setFilterENS_3RXFEbm+0x72>
    523c:	81 e0       	ldi	r24, 0x01	; 1
    523e:	f8 12       	cpse	r15, r24
    5240:	29 c0       	rjmp	.+82     	; 0x5294 <_ZN7MCP25159setFilterENS_3RXFEbm+0x96>
    5242:	44 e0       	ldi	r20, 0x04	; 4
    5244:	f4 2e       	mov	r15, r20
    5246:	15 c0       	rjmp	.+42     	; 0x5272 <_ZN7MCP25159setFilterENS_3RXFEbm+0x74>
    5248:	84 e0       	ldi	r24, 0x04	; 4
    524a:	f8 16       	cp	r15, r24
    524c:	71 f0       	breq	.+28     	; 0x526a <_ZN7MCP25159setFilterENS_3RXFEbm+0x6c>
    524e:	f8 16       	cp	r15, r24
    5250:	48 f0       	brcs	.+18     	; 0x5264 <_ZN7MCP25159setFilterENS_3RXFEbm+0x66>
    5252:	85 e0       	ldi	r24, 0x05	; 5
    5254:	f8 12       	cpse	r15, r24
    5256:	1e c0       	rjmp	.+60     	; 0x5294 <_ZN7MCP25159setFilterENS_3RXFEbm+0x96>
    5258:	88 e1       	ldi	r24, 0x18	; 24
    525a:	f8 2e       	mov	r15, r24
    525c:	0a c0       	rjmp	.+20     	; 0x5272 <_ZN7MCP25159setFilterENS_3RXFEbm+0x74>
    525e:	38 e0       	ldi	r19, 0x08	; 8
    5260:	f3 2e       	mov	r15, r19
    5262:	07 c0       	rjmp	.+14     	; 0x5272 <_ZN7MCP25159setFilterENS_3RXFEbm+0x74>
    5264:	20 e1       	ldi	r18, 0x10	; 16
    5266:	f2 2e       	mov	r15, r18
    5268:	04 c0       	rjmp	.+8      	; 0x5272 <_ZN7MCP25159setFilterENS_3RXFEbm+0x74>
    526a:	94 e1       	ldi	r25, 0x14	; 20
    526c:	f9 2e       	mov	r15, r25
    526e:	01 c0       	rjmp	.+2      	; 0x5272 <_ZN7MCP25159setFilterENS_3RXFEbm+0x74>
    5270:	f1 2c       	mov	r15, r1
    5272:	95 01       	movw	r18, r10
    5274:	84 01       	movw	r16, r8
    5276:	4e 2d       	mov	r20, r14
    5278:	be 01       	movw	r22, r28
    527a:	6f 5f       	subi	r22, 0xFF	; 255
    527c:	7f 4f       	sbci	r23, 0xFF	; 255
    527e:	c6 01       	movw	r24, r12
    5280:	51 df       	rcall	.-350    	; 0x5124 <_ZN7MCP25159prepareIdEPhbm>
    5282:	24 e0       	ldi	r18, 0x04	; 4
    5284:	ae 01       	movw	r20, r28
    5286:	4f 5f       	subi	r20, 0xFF	; 255
    5288:	5f 4f       	sbci	r21, 0xFF	; 255
    528a:	6f 2d       	mov	r22, r15
    528c:	c6 01       	movw	r24, r12
    528e:	b4 dd       	rcall	.-1176   	; 0x4df8 <_ZN7MCP251512setRegistersENS_8REGISTEREPKhh>
    5290:	80 e0       	ldi	r24, 0x00	; 0
    5292:	01 c0       	rjmp	.+2      	; 0x5296 <_ZN7MCP25159setFilterENS_3RXFEbm+0x98>
    5294:	81 e0       	ldi	r24, 0x01	; 1
    5296:	0f 90       	pop	r0
    5298:	0f 90       	pop	r0
    529a:	0f 90       	pop	r0
    529c:	0f 90       	pop	r0
    529e:	df 91       	pop	r29
    52a0:	cf 91       	pop	r28
    52a2:	1f 91       	pop	r17
    52a4:	0f 91       	pop	r16
    52a6:	ff 90       	pop	r15
    52a8:	ef 90       	pop	r14
    52aa:	df 90       	pop	r13
    52ac:	cf 90       	pop	r12
    52ae:	bf 90       	pop	r11
    52b0:	af 90       	pop	r10
    52b2:	9f 90       	pop	r9
    52b4:	8f 90       	pop	r8
    52b6:	08 95       	ret

000052b8 <_ZN7MCP251511sendMessageENS_4TXBnEPK9can_frame>:
    52b8:	4f 92       	push	r4
    52ba:	5f 92       	push	r5
    52bc:	6f 92       	push	r6
    52be:	7f 92       	push	r7
    52c0:	af 92       	push	r10
    52c2:	bf 92       	push	r11
    52c4:	cf 92       	push	r12
    52c6:	df 92       	push	r13
    52c8:	ef 92       	push	r14
    52ca:	ff 92       	push	r15
    52cc:	0f 93       	push	r16
    52ce:	1f 93       	push	r17
    52d0:	cf 93       	push	r28
    52d2:	df 93       	push	r29
    52d4:	cd b7       	in	r28, 0x3d	; 61
    52d6:	de b7       	in	r29, 0x3e	; 62
    52d8:	2d 97       	sbiw	r28, 0x0d	; 13
    52da:	0f b6       	in	r0, 0x3f	; 63
    52dc:	f8 94       	cli
    52de:	de bf       	out	0x3e, r29	; 62
    52e0:	0f be       	out	0x3f, r0	; 63
    52e2:	cd bf       	out	0x3d, r28	; 61
    52e4:	6c 01       	movw	r12, r24
    52e6:	5a 01       	movw	r10, r20
    52e8:	e6 2e       	mov	r14, r22
    52ea:	f1 2c       	mov	r15, r1
    52ec:	fa 01       	movw	r30, r20
    52ee:	00 81       	ld	r16, Z
    52f0:	11 81       	ldd	r17, Z+1	; 0x01
    52f2:	22 81       	ldd	r18, Z+2	; 0x02
    52f4:	33 81       	ldd	r19, Z+3	; 0x03
    52f6:	b9 01       	movw	r22, r18
    52f8:	a8 01       	movw	r20, r16
    52fa:	44 27       	eor	r20, r20
    52fc:	77 fd       	sbrc	r23, 7
    52fe:	43 95       	inc	r20
    5300:	55 27       	eor	r21, r21
    5302:	66 27       	eor	r22, r22
    5304:	77 27       	eor	r23, r23
    5306:	28 01       	movw	r4, r16
    5308:	39 01       	movw	r6, r18
    530a:	44 24       	eor	r4, r4
    530c:	55 24       	eor	r5, r5
    530e:	66 24       	eor	r6, r6
    5310:	f0 e4       	ldi	r31, 0x40	; 64
    5312:	7f 22       	and	r7, r31
    5314:	37 fd       	sbrc	r19, 7
    5316:	05 c0       	rjmp	.+10     	; 0x5322 <_ZN7MCP251511sendMessageENS_4TXBnEPK9can_frame+0x6a>
    5318:	8f ef       	ldi	r24, 0xFF	; 255
    531a:	97 e0       	ldi	r25, 0x07	; 7
    531c:	a0 e0       	ldi	r26, 0x00	; 0
    531e:	b0 e0       	ldi	r27, 0x00	; 0
    5320:	04 c0       	rjmp	.+8      	; 0x532a <_ZN7MCP251511sendMessageENS_4TXBnEPK9can_frame+0x72>
    5322:	8f ef       	ldi	r24, 0xFF	; 255
    5324:	9f ef       	ldi	r25, 0xFF	; 255
    5326:	af ef       	ldi	r26, 0xFF	; 255
    5328:	bf e1       	ldi	r27, 0x1F	; 31
    532a:	08 23       	and	r16, r24
    532c:	19 23       	and	r17, r25
    532e:	2a 23       	and	r18, r26
    5330:	3b 23       	and	r19, r27
    5332:	be 01       	movw	r22, r28
    5334:	6f 5f       	subi	r22, 0xFF	; 255
    5336:	7f 4f       	sbci	r23, 0xFF	; 255
    5338:	c6 01       	movw	r24, r12
    533a:	f4 de       	rcall	.-536    	; 0x5124 <_ZN7MCP25159prepareIdEPhbm>
    533c:	f5 01       	movw	r30, r10
    533e:	14 81       	ldd	r17, Z+4	; 0x04
    5340:	81 2f       	mov	r24, r17
    5342:	45 28       	or	r4, r5
    5344:	46 28       	or	r4, r6
    5346:	47 28       	or	r4, r7
    5348:	09 f0       	breq	.+2      	; 0x534c <_ZN7MCP251511sendMessageENS_4TXBnEPK9can_frame+0x94>
    534a:	80 64       	ori	r24, 0x40	; 64
    534c:	8d 83       	std	Y+5, r24	; 0x05
    534e:	41 2f       	mov	r20, r17
    5350:	50 e0       	ldi	r21, 0x00	; 0
    5352:	b5 01       	movw	r22, r10
    5354:	68 5f       	subi	r22, 0xF8	; 248
    5356:	7f 4f       	sbci	r23, 0xFF	; 255
    5358:	ce 01       	movw	r24, r28
    535a:	06 96       	adiw	r24, 0x06	; 6
    535c:	0e 94 e3 3b 	call	0x77c6	; 0x77c6 <memcpy>
    5360:	25 e0       	ldi	r18, 0x05	; 5
    5362:	21 0f       	add	r18, r17
    5364:	87 01       	movw	r16, r14
    5366:	00 0f       	add	r16, r16
    5368:	11 1f       	adc	r17, r17
    536a:	0e 0d       	add	r16, r14
    536c:	1f 1d       	adc	r17, r15
    536e:	00 51       	subi	r16, 0x10	; 16
    5370:	1d 4f       	sbci	r17, 0xFD	; 253
    5372:	ae 01       	movw	r20, r28
    5374:	4f 5f       	subi	r20, 0xFF	; 255
    5376:	5f 4f       	sbci	r21, 0xFF	; 255
    5378:	f8 01       	movw	r30, r16
    537a:	61 81       	ldd	r22, Z+1	; 0x01
    537c:	c6 01       	movw	r24, r12
    537e:	3c dd       	rcall	.-1416   	; 0x4df8 <_ZN7MCP251512setRegistersENS_8REGISTEREPKhh>
    5380:	28 e0       	ldi	r18, 0x08	; 8
    5382:	48 e0       	ldi	r20, 0x08	; 8
    5384:	f8 01       	movw	r30, r16
    5386:	60 81       	ld	r22, Z
    5388:	c6 01       	movw	r24, r12
    538a:	5c dd       	rcall	.-1352   	; 0x4e44 <_ZN7MCP251514modifyRegisterENS_8REGISTEREhh>
    538c:	80 e0       	ldi	r24, 0x00	; 0
    538e:	2d 96       	adiw	r28, 0x0d	; 13
    5390:	0f b6       	in	r0, 0x3f	; 63
    5392:	f8 94       	cli
    5394:	de bf       	out	0x3e, r29	; 62
    5396:	0f be       	out	0x3f, r0	; 63
    5398:	cd bf       	out	0x3d, r28	; 61
    539a:	df 91       	pop	r29
    539c:	cf 91       	pop	r28
    539e:	1f 91       	pop	r17
    53a0:	0f 91       	pop	r16
    53a2:	ff 90       	pop	r15
    53a4:	ef 90       	pop	r14
    53a6:	df 90       	pop	r13
    53a8:	cf 90       	pop	r12
    53aa:	bf 90       	pop	r11
    53ac:	af 90       	pop	r10
    53ae:	7f 90       	pop	r7
    53b0:	6f 90       	pop	r6
    53b2:	5f 90       	pop	r5
    53b4:	4f 90       	pop	r4
    53b6:	08 95       	ret

000053b8 <_ZN7MCP251511readMessageENS_4RXBnEP9can_frame>:
    53b8:	7f 92       	push	r7
    53ba:	8f 92       	push	r8
    53bc:	9f 92       	push	r9
    53be:	af 92       	push	r10
    53c0:	bf 92       	push	r11
    53c2:	cf 92       	push	r12
    53c4:	df 92       	push	r13
    53c6:	ef 92       	push	r14
    53c8:	ff 92       	push	r15
    53ca:	0f 93       	push	r16
    53cc:	1f 93       	push	r17
    53ce:	cf 93       	push	r28
    53d0:	df 93       	push	r29
    53d2:	00 d0       	rcall	.+0      	; 0x53d4 <_ZN7MCP251511readMessageENS_4RXBnEP9can_frame+0x1c>
    53d4:	1f 92       	push	r1
    53d6:	1f 92       	push	r1
    53d8:	cd b7       	in	r28, 0x3d	; 61
    53da:	de b7       	in	r29, 0x3e	; 62
    53dc:	4c 01       	movw	r8, r24
    53de:	5a 01       	movw	r10, r20
    53e0:	24 e0       	ldi	r18, 0x04	; 4
    53e2:	62 9f       	mul	r22, r18
    53e4:	80 01       	movw	r16, r0
    53e6:	11 24       	eor	r1, r1
    53e8:	f8 01       	movw	r30, r16
    53ea:	e8 51       	subi	r30, 0x18	; 24
    53ec:	fd 4f       	sbci	r31, 0xFD	; 253
    53ee:	25 e0       	ldi	r18, 0x05	; 5
    53f0:	ae 01       	movw	r20, r28
    53f2:	4f 5f       	subi	r20, 0xFF	; 255
    53f4:	5f 4f       	sbci	r21, 0xFF	; 255
    53f6:	61 81       	ldd	r22, Z+1	; 0x01
    53f8:	c4 dc       	rcall	.-1656   	; 0x4d82 <_ZN7MCP251513readRegistersENS_8REGISTEREPhh>
    53fa:	8a 81       	ldd	r24, Y+2	; 0x02
    53fc:	99 81       	ldd	r25, Y+1	; 0x01
    53fe:	c8 2e       	mov	r12, r24
    5400:	d1 2c       	mov	r13, r1
    5402:	45 e0       	ldi	r20, 0x05	; 5
    5404:	d5 94       	asr	r13
    5406:	c7 94       	ror	r12
    5408:	4a 95       	dec	r20
    540a:	e1 f7       	brne	.-8      	; 0x5404 <_ZN7MCP251511readMessageENS_4RXBnEP9can_frame+0x4c>
    540c:	e8 e0       	ldi	r30, 0x08	; 8
    540e:	9e 9f       	mul	r25, r30
    5410:	c0 0c       	add	r12, r0
    5412:	d1 1c       	adc	r13, r1
    5414:	11 24       	eor	r1, r1
    5416:	0d 2c       	mov	r0, r13
    5418:	00 0c       	add	r0, r0
    541a:	ee 08       	sbc	r14, r14
    541c:	ff 08       	sbc	r15, r15
    541e:	83 ff       	sbrs	r24, 3
    5420:	20 c0       	rjmp	.+64     	; 0x5462 <_ZN7MCP251511readMessageENS_4RXBnEP9can_frame+0xaa>
    5422:	92 e0       	ldi	r25, 0x02	; 2
    5424:	cc 0c       	add	r12, r12
    5426:	dd 1c       	adc	r13, r13
    5428:	ee 1c       	adc	r14, r14
    542a:	ff 1c       	adc	r15, r15
    542c:	9a 95       	dec	r25
    542e:	d1 f7       	brne	.-12     	; 0x5424 <_ZN7MCP251511readMessageENS_4RXBnEP9can_frame+0x6c>
    5430:	83 70       	andi	r24, 0x03	; 3
    5432:	c8 0e       	add	r12, r24
    5434:	d1 1c       	adc	r13, r1
    5436:	e1 1c       	adc	r14, r1
    5438:	f1 1c       	adc	r15, r1
    543a:	fe 2c       	mov	r15, r14
    543c:	ed 2c       	mov	r14, r13
    543e:	dc 2c       	mov	r13, r12
    5440:	cc 24       	eor	r12, r12
    5442:	8b 81       	ldd	r24, Y+3	; 0x03
    5444:	c8 0e       	add	r12, r24
    5446:	d1 1c       	adc	r13, r1
    5448:	e1 1c       	adc	r14, r1
    544a:	f1 1c       	adc	r15, r1
    544c:	fe 2c       	mov	r15, r14
    544e:	ed 2c       	mov	r14, r13
    5450:	dc 2c       	mov	r13, r12
    5452:	cc 24       	eor	r12, r12
    5454:	8c 81       	ldd	r24, Y+4	; 0x04
    5456:	c8 0e       	add	r12, r24
    5458:	d1 1c       	adc	r13, r1
    545a:	e1 1c       	adc	r14, r1
    545c:	f1 1c       	adc	r15, r1
    545e:	68 94       	set
    5460:	f7 f8       	bld	r15, 7
    5462:	8d 81       	ldd	r24, Y+5	; 0x05
    5464:	8f 70       	andi	r24, 0x0F	; 15
    5466:	78 2e       	mov	r7, r24
    5468:	f8 e0       	ldi	r31, 0x08	; 8
    546a:	f8 17       	cp	r31, r24
    546c:	10 f1       	brcs	.+68     	; 0x54b2 <_ZN7MCP251511readMessageENS_4RXBnEP9can_frame+0xfa>
    546e:	f8 01       	movw	r30, r16
    5470:	e8 51       	subi	r30, 0x18	; 24
    5472:	fd 4f       	sbci	r31, 0xFD	; 253
    5474:	60 81       	ld	r22, Z
    5476:	c4 01       	movw	r24, r8
    5478:	70 dc       	rcall	.-1824   	; 0x4d5a <_ZN7MCP251512readRegisterENS_8REGISTERE>
    547a:	83 ff       	sbrs	r24, 3
    547c:	02 c0       	rjmp	.+4      	; 0x5482 <_ZN7MCP251511readMessageENS_4RXBnEP9can_frame+0xca>
    547e:	68 94       	set
    5480:	f6 f8       	bld	r15, 6
    5482:	f5 01       	movw	r30, r10
    5484:	c0 82       	st	Z, r12
    5486:	d1 82       	std	Z+1, r13	; 0x01
    5488:	e2 82       	std	Z+2, r14	; 0x02
    548a:	f3 82       	std	Z+3, r15	; 0x03
    548c:	74 82       	std	Z+4, r7	; 0x04
    548e:	a5 01       	movw	r20, r10
    5490:	48 5f       	subi	r20, 0xF8	; 248
    5492:	5f 4f       	sbci	r21, 0xFF	; 255
    5494:	08 51       	subi	r16, 0x18	; 24
    5496:	1d 4f       	sbci	r17, 0xFD	; 253
    5498:	27 2d       	mov	r18, r7
    549a:	f8 01       	movw	r30, r16
    549c:	62 81       	ldd	r22, Z+2	; 0x02
    549e:	c4 01       	movw	r24, r8
    54a0:	70 dc       	rcall	.-1824   	; 0x4d82 <_ZN7MCP251513readRegistersENS_8REGISTEREPhh>
    54a2:	20 e0       	ldi	r18, 0x00	; 0
    54a4:	f8 01       	movw	r30, r16
    54a6:	43 81       	ldd	r20, Z+3	; 0x03
    54a8:	6c e2       	ldi	r22, 0x2C	; 44
    54aa:	c4 01       	movw	r24, r8
    54ac:	cb dc       	rcall	.-1642   	; 0x4e44 <_ZN7MCP251514modifyRegisterENS_8REGISTEREhh>
    54ae:	80 e0       	ldi	r24, 0x00	; 0
    54b0:	01 c0       	rjmp	.+2      	; 0x54b4 <_ZN7MCP251511readMessageENS_4RXBnEP9can_frame+0xfc>
    54b2:	81 e0       	ldi	r24, 0x01	; 1
    54b4:	0f 90       	pop	r0
    54b6:	0f 90       	pop	r0
    54b8:	0f 90       	pop	r0
    54ba:	0f 90       	pop	r0
    54bc:	0f 90       	pop	r0
    54be:	df 91       	pop	r29
    54c0:	cf 91       	pop	r28
    54c2:	1f 91       	pop	r17
    54c4:	0f 91       	pop	r16
    54c6:	ff 90       	pop	r15
    54c8:	ef 90       	pop	r14
    54ca:	df 90       	pop	r13
    54cc:	cf 90       	pop	r12
    54ce:	bf 90       	pop	r11
    54d0:	af 90       	pop	r10
    54d2:	9f 90       	pop	r9
    54d4:	8f 90       	pop	r8
    54d6:	7f 90       	pop	r7
    54d8:	08 95       	ret

000054da <_ZN7MCP251511readMessageEP9can_frame>:
    54da:	0f 93       	push	r16
    54dc:	1f 93       	push	r17
    54de:	cf 93       	push	r28
    54e0:	df 93       	push	r29
    54e2:	ec 01       	movw	r28, r24
    54e4:	8b 01       	movw	r16, r22
    54e6:	1b dd       	rcall	.-1482   	; 0x4f1e <_ZN7MCP25159getStatusEv>
    54e8:	80 ff       	sbrs	r24, 0
    54ea:	03 c0       	rjmp	.+6      	; 0x54f2 <_ZN7MCP251511readMessageEP9can_frame+0x18>
    54ec:	a8 01       	movw	r20, r16
    54ee:	60 e0       	ldi	r22, 0x00	; 0
    54f0:	04 c0       	rjmp	.+8      	; 0x54fa <_ZN7MCP251511readMessageEP9can_frame+0x20>
    54f2:	81 ff       	sbrs	r24, 1
    54f4:	08 c0       	rjmp	.+16     	; 0x5506 <_ZN7MCP251511readMessageEP9can_frame+0x2c>
    54f6:	a8 01       	movw	r20, r16
    54f8:	61 e0       	ldi	r22, 0x01	; 1
    54fa:	ce 01       	movw	r24, r28
    54fc:	df 91       	pop	r29
    54fe:	cf 91       	pop	r28
    5500:	1f 91       	pop	r17
    5502:	0f 91       	pop	r16
    5504:	59 cf       	rjmp	.-334    	; 0x53b8 <_ZN7MCP251511readMessageENS_4RXBnEP9can_frame>
    5506:	85 e0       	ldi	r24, 0x05	; 5
    5508:	df 91       	pop	r29
    550a:	cf 91       	pop	r28
    550c:	1f 91       	pop	r17
    550e:	0f 91       	pop	r16
    5510:	08 95       	ret

00005512 <_ZN7MCP251515clearInterruptsEv>:
    5512:	40 e0       	ldi	r20, 0x00	; 0
    5514:	6c e2       	ldi	r22, 0x2C	; 44
    5516:	5c cc       	rjmp	.-1864   	; 0x4dd0 <_ZN7MCP251511setRegisterENS_8REGISTEREh>

00005518 <_ZN7MCP251510checktxavaEv>:
    5518:	60 e3       	ldi	r22, 0x30	; 48
    551a:	1f dc       	rcall	.-1986   	; 0x4d5a <_ZN7MCP251512readRegisterENS_8REGISTERE>
    551c:	80 e0       	ldi	r24, 0x00	; 0
    551e:	08 95       	ret

00005520 <pxPortInitialiseStack>:
    5520:	31 e1       	ldi	r19, 0x11	; 17
    5522:	fc 01       	movw	r30, r24
    5524:	30 83       	st	Z, r19
    5526:	31 97       	sbiw	r30, 0x01	; 1
    5528:	22 e2       	ldi	r18, 0x22	; 34
    552a:	20 83       	st	Z, r18
    552c:	31 97       	sbiw	r30, 0x01	; 1
    552e:	a3 e3       	ldi	r26, 0x33	; 51
    5530:	a0 83       	st	Z, r26
    5532:	31 97       	sbiw	r30, 0x01	; 1
    5534:	60 83       	st	Z, r22
    5536:	31 97       	sbiw	r30, 0x01	; 1
    5538:	70 83       	st	Z, r23
    553a:	31 97       	sbiw	r30, 0x01	; 1
    553c:	10 82       	st	Z, r1
    553e:	31 97       	sbiw	r30, 0x01	; 1
    5540:	10 82       	st	Z, r1
    5542:	31 97       	sbiw	r30, 0x01	; 1
    5544:	60 e8       	ldi	r22, 0x80	; 128
    5546:	60 83       	st	Z, r22
    5548:	31 97       	sbiw	r30, 0x01	; 1
    554a:	10 82       	st	Z, r1
    554c:	31 97       	sbiw	r30, 0x01	; 1
    554e:	10 82       	st	Z, r1
    5550:	31 97       	sbiw	r30, 0x01	; 1
    5552:	10 82       	st	Z, r1
    5554:	31 97       	sbiw	r30, 0x01	; 1
    5556:	62 e0       	ldi	r22, 0x02	; 2
    5558:	60 83       	st	Z, r22
    555a:	31 97       	sbiw	r30, 0x01	; 1
    555c:	63 e0       	ldi	r22, 0x03	; 3
    555e:	60 83       	st	Z, r22
    5560:	31 97       	sbiw	r30, 0x01	; 1
    5562:	64 e0       	ldi	r22, 0x04	; 4
    5564:	60 83       	st	Z, r22
    5566:	31 97       	sbiw	r30, 0x01	; 1
    5568:	65 e0       	ldi	r22, 0x05	; 5
    556a:	60 83       	st	Z, r22
    556c:	31 97       	sbiw	r30, 0x01	; 1
    556e:	66 e0       	ldi	r22, 0x06	; 6
    5570:	60 83       	st	Z, r22
    5572:	31 97       	sbiw	r30, 0x01	; 1
    5574:	67 e0       	ldi	r22, 0x07	; 7
    5576:	60 83       	st	Z, r22
    5578:	31 97       	sbiw	r30, 0x01	; 1
    557a:	68 e0       	ldi	r22, 0x08	; 8
    557c:	60 83       	st	Z, r22
    557e:	31 97       	sbiw	r30, 0x01	; 1
    5580:	69 e0       	ldi	r22, 0x09	; 9
    5582:	60 83       	st	Z, r22
    5584:	31 97       	sbiw	r30, 0x01	; 1
    5586:	60 e1       	ldi	r22, 0x10	; 16
    5588:	60 83       	st	Z, r22
    558a:	31 97       	sbiw	r30, 0x01	; 1
    558c:	30 83       	st	Z, r19
    558e:	31 97       	sbiw	r30, 0x01	; 1
    5590:	32 e1       	ldi	r19, 0x12	; 18
    5592:	30 83       	st	Z, r19
    5594:	31 97       	sbiw	r30, 0x01	; 1
    5596:	33 e1       	ldi	r19, 0x13	; 19
    5598:	30 83       	st	Z, r19
    559a:	31 97       	sbiw	r30, 0x01	; 1
    559c:	34 e1       	ldi	r19, 0x14	; 20
    559e:	30 83       	st	Z, r19
    55a0:	31 97       	sbiw	r30, 0x01	; 1
    55a2:	35 e1       	ldi	r19, 0x15	; 21
    55a4:	30 83       	st	Z, r19
    55a6:	31 97       	sbiw	r30, 0x01	; 1
    55a8:	36 e1       	ldi	r19, 0x16	; 22
    55aa:	30 83       	st	Z, r19
    55ac:	31 97       	sbiw	r30, 0x01	; 1
    55ae:	37 e1       	ldi	r19, 0x17	; 23
    55b0:	30 83       	st	Z, r19
    55b2:	31 97       	sbiw	r30, 0x01	; 1
    55b4:	38 e1       	ldi	r19, 0x18	; 24
    55b6:	30 83       	st	Z, r19
    55b8:	31 97       	sbiw	r30, 0x01	; 1
    55ba:	39 e1       	ldi	r19, 0x19	; 25
    55bc:	30 83       	st	Z, r19
    55be:	31 97       	sbiw	r30, 0x01	; 1
    55c0:	30 e2       	ldi	r19, 0x20	; 32
    55c2:	30 83       	st	Z, r19
    55c4:	31 97       	sbiw	r30, 0x01	; 1
    55c6:	31 e2       	ldi	r19, 0x21	; 33
    55c8:	30 83       	st	Z, r19
    55ca:	31 97       	sbiw	r30, 0x01	; 1
    55cc:	20 83       	st	Z, r18
    55ce:	31 97       	sbiw	r30, 0x01	; 1
    55d0:	23 e2       	ldi	r18, 0x23	; 35
    55d2:	20 83       	st	Z, r18
    55d4:	31 97       	sbiw	r30, 0x01	; 1
    55d6:	40 83       	st	Z, r20
    55d8:	31 97       	sbiw	r30, 0x01	; 1
    55da:	50 83       	st	Z, r21
    55dc:	31 97       	sbiw	r30, 0x01	; 1
    55de:	26 e2       	ldi	r18, 0x26	; 38
    55e0:	20 83       	st	Z, r18
    55e2:	31 97       	sbiw	r30, 0x01	; 1
    55e4:	27 e2       	ldi	r18, 0x27	; 39
    55e6:	20 83       	st	Z, r18
    55e8:	31 97       	sbiw	r30, 0x01	; 1
    55ea:	28 e2       	ldi	r18, 0x28	; 40
    55ec:	20 83       	st	Z, r18
    55ee:	31 97       	sbiw	r30, 0x01	; 1
    55f0:	29 e2       	ldi	r18, 0x29	; 41
    55f2:	20 83       	st	Z, r18
    55f4:	31 97       	sbiw	r30, 0x01	; 1
    55f6:	20 e3       	ldi	r18, 0x30	; 48
    55f8:	20 83       	st	Z, r18
    55fa:	31 97       	sbiw	r30, 0x01	; 1
    55fc:	21 e3       	ldi	r18, 0x31	; 49
    55fe:	20 83       	st	Z, r18
    5600:	89 97       	sbiw	r24, 0x29	; 41
    5602:	08 95       	ret

00005604 <xPortStartScheduler>:
    5604:	89 e0       	ldi	r24, 0x09	; 9
    5606:	80 93 89 00 	sts	0x0089, r24	; 0x800089 <__TEXT_REGION_LENGTH__+0x7c0089>
    560a:	83 ec       	ldi	r24, 0xC3	; 195
    560c:	80 93 88 00 	sts	0x0088, r24	; 0x800088 <__TEXT_REGION_LENGTH__+0x7c0088>
    5610:	8b e0       	ldi	r24, 0x0B	; 11
    5612:	80 93 81 00 	sts	0x0081, r24	; 0x800081 <__TEXT_REGION_LENGTH__+0x7c0081>
    5616:	ef e6       	ldi	r30, 0x6F	; 111
    5618:	f0 e0       	ldi	r31, 0x00	; 0
    561a:	80 81       	ld	r24, Z
    561c:	82 60       	ori	r24, 0x02	; 2
    561e:	80 83       	st	Z, r24
    5620:	a0 91 6d 20 	lds	r26, 0x206D	; 0x80206d <pxCurrentTCB>
    5624:	b0 91 6e 20 	lds	r27, 0x206E	; 0x80206e <pxCurrentTCB+0x1>
    5628:	cd 91       	ld	r28, X+
    562a:	cd bf       	out	0x3d, r28	; 61
    562c:	dd 91       	ld	r29, X+
    562e:	de bf       	out	0x3e, r29	; 62
    5630:	ff 91       	pop	r31
    5632:	ef 91       	pop	r30
    5634:	df 91       	pop	r29
    5636:	cf 91       	pop	r28
    5638:	bf 91       	pop	r27
    563a:	af 91       	pop	r26
    563c:	9f 91       	pop	r25
    563e:	8f 91       	pop	r24
    5640:	7f 91       	pop	r23
    5642:	6f 91       	pop	r22
    5644:	5f 91       	pop	r21
    5646:	4f 91       	pop	r20
    5648:	3f 91       	pop	r19
    564a:	2f 91       	pop	r18
    564c:	1f 91       	pop	r17
    564e:	0f 91       	pop	r16
    5650:	ff 90       	pop	r15
    5652:	ef 90       	pop	r14
    5654:	df 90       	pop	r13
    5656:	cf 90       	pop	r12
    5658:	bf 90       	pop	r11
    565a:	af 90       	pop	r10
    565c:	9f 90       	pop	r9
    565e:	8f 90       	pop	r8
    5660:	7f 90       	pop	r7
    5662:	6f 90       	pop	r6
    5664:	5f 90       	pop	r5
    5666:	4f 90       	pop	r4
    5668:	3f 90       	pop	r3
    566a:	2f 90       	pop	r2
    566c:	1f 90       	pop	r1
    566e:	0f 90       	pop	r0
    5670:	0c be       	out	0x3c, r0	; 60
    5672:	0f 90       	pop	r0
    5674:	0b be       	out	0x3b, r0	; 59
    5676:	0f 90       	pop	r0
    5678:	0f be       	out	0x3f, r0	; 63
    567a:	0f 90       	pop	r0
    567c:	08 95       	ret
    567e:	81 e0       	ldi	r24, 0x01	; 1
    5680:	08 95       	ret

00005682 <vPortYield>:
    5682:	0f 92       	push	r0
    5684:	0f b6       	in	r0, 0x3f	; 63
    5686:	f8 94       	cli
    5688:	0f 92       	push	r0
    568a:	0b b6       	in	r0, 0x3b	; 59
    568c:	0f 92       	push	r0
    568e:	0c b6       	in	r0, 0x3c	; 60
    5690:	0f 92       	push	r0
    5692:	1f 92       	push	r1
    5694:	11 24       	eor	r1, r1
    5696:	2f 92       	push	r2
    5698:	3f 92       	push	r3
    569a:	4f 92       	push	r4
    569c:	5f 92       	push	r5
    569e:	6f 92       	push	r6
    56a0:	7f 92       	push	r7
    56a2:	8f 92       	push	r8
    56a4:	9f 92       	push	r9
    56a6:	af 92       	push	r10
    56a8:	bf 92       	push	r11
    56aa:	cf 92       	push	r12
    56ac:	df 92       	push	r13
    56ae:	ef 92       	push	r14
    56b0:	ff 92       	push	r15
    56b2:	0f 93       	push	r16
    56b4:	1f 93       	push	r17
    56b6:	2f 93       	push	r18
    56b8:	3f 93       	push	r19
    56ba:	4f 93       	push	r20
    56bc:	5f 93       	push	r21
    56be:	6f 93       	push	r22
    56c0:	7f 93       	push	r23
    56c2:	8f 93       	push	r24
    56c4:	9f 93       	push	r25
    56c6:	af 93       	push	r26
    56c8:	bf 93       	push	r27
    56ca:	cf 93       	push	r28
    56cc:	df 93       	push	r29
    56ce:	ef 93       	push	r30
    56d0:	ff 93       	push	r31
    56d2:	a0 91 6d 20 	lds	r26, 0x206D	; 0x80206d <pxCurrentTCB>
    56d6:	b0 91 6e 20 	lds	r27, 0x206E	; 0x80206e <pxCurrentTCB+0x1>
    56da:	0d b6       	in	r0, 0x3d	; 61
    56dc:	0d 92       	st	X+, r0
    56de:	0e b6       	in	r0, 0x3e	; 62
    56e0:	0d 92       	st	X+, r0
    56e2:	0e 94 b2 33 	call	0x6764	; 0x6764 <vTaskSwitchContext>
    56e6:	a0 91 6d 20 	lds	r26, 0x206D	; 0x80206d <pxCurrentTCB>
    56ea:	b0 91 6e 20 	lds	r27, 0x206E	; 0x80206e <pxCurrentTCB+0x1>
    56ee:	cd 91       	ld	r28, X+
    56f0:	cd bf       	out	0x3d, r28	; 61
    56f2:	dd 91       	ld	r29, X+
    56f4:	de bf       	out	0x3e, r29	; 62
    56f6:	ff 91       	pop	r31
    56f8:	ef 91       	pop	r30
    56fa:	df 91       	pop	r29
    56fc:	cf 91       	pop	r28
    56fe:	bf 91       	pop	r27
    5700:	af 91       	pop	r26
    5702:	9f 91       	pop	r25
    5704:	8f 91       	pop	r24
    5706:	7f 91       	pop	r23
    5708:	6f 91       	pop	r22
    570a:	5f 91       	pop	r21
    570c:	4f 91       	pop	r20
    570e:	3f 91       	pop	r19
    5710:	2f 91       	pop	r18
    5712:	1f 91       	pop	r17
    5714:	0f 91       	pop	r16
    5716:	ff 90       	pop	r15
    5718:	ef 90       	pop	r14
    571a:	df 90       	pop	r13
    571c:	cf 90       	pop	r12
    571e:	bf 90       	pop	r11
    5720:	af 90       	pop	r10
    5722:	9f 90       	pop	r9
    5724:	8f 90       	pop	r8
    5726:	7f 90       	pop	r7
    5728:	6f 90       	pop	r6
    572a:	5f 90       	pop	r5
    572c:	4f 90       	pop	r4
    572e:	3f 90       	pop	r3
    5730:	2f 90       	pop	r2
    5732:	1f 90       	pop	r1
    5734:	0f 90       	pop	r0
    5736:	0c be       	out	0x3c, r0	; 60
    5738:	0f 90       	pop	r0
    573a:	0b be       	out	0x3b, r0	; 59
    573c:	0f 90       	pop	r0
    573e:	0f be       	out	0x3f, r0	; 63
    5740:	0f 90       	pop	r0
    5742:	08 95       	ret

00005744 <vPortYieldFromTick>:
    5744:	0f 92       	push	r0
    5746:	0f b6       	in	r0, 0x3f	; 63
    5748:	f8 94       	cli
    574a:	0f 92       	push	r0
    574c:	0b b6       	in	r0, 0x3b	; 59
    574e:	0f 92       	push	r0
    5750:	0c b6       	in	r0, 0x3c	; 60
    5752:	0f 92       	push	r0
    5754:	1f 92       	push	r1
    5756:	11 24       	eor	r1, r1
    5758:	2f 92       	push	r2
    575a:	3f 92       	push	r3
    575c:	4f 92       	push	r4
    575e:	5f 92       	push	r5
    5760:	6f 92       	push	r6
    5762:	7f 92       	push	r7
    5764:	8f 92       	push	r8
    5766:	9f 92       	push	r9
    5768:	af 92       	push	r10
    576a:	bf 92       	push	r11
    576c:	cf 92       	push	r12
    576e:	df 92       	push	r13
    5770:	ef 92       	push	r14
    5772:	ff 92       	push	r15
    5774:	0f 93       	push	r16
    5776:	1f 93       	push	r17
    5778:	2f 93       	push	r18
    577a:	3f 93       	push	r19
    577c:	4f 93       	push	r20
    577e:	5f 93       	push	r21
    5780:	6f 93       	push	r22
    5782:	7f 93       	push	r23
    5784:	8f 93       	push	r24
    5786:	9f 93       	push	r25
    5788:	af 93       	push	r26
    578a:	bf 93       	push	r27
    578c:	cf 93       	push	r28
    578e:	df 93       	push	r29
    5790:	ef 93       	push	r30
    5792:	ff 93       	push	r31
    5794:	a0 91 6d 20 	lds	r26, 0x206D	; 0x80206d <pxCurrentTCB>
    5798:	b0 91 6e 20 	lds	r27, 0x206E	; 0x80206e <pxCurrentTCB+0x1>
    579c:	0d b6       	in	r0, 0x3d	; 61
    579e:	0d 92       	st	X+, r0
    57a0:	0e b6       	in	r0, 0x3e	; 62
    57a2:	0d 92       	st	X+, r0
    57a4:	c3 d6       	rcall	.+3462   	; 0x652c <xTaskIncrementTick>
    57a6:	81 11       	cpse	r24, r1
    57a8:	dd d7       	rcall	.+4026   	; 0x6764 <vTaskSwitchContext>
    57aa:	a0 91 6d 20 	lds	r26, 0x206D	; 0x80206d <pxCurrentTCB>
    57ae:	b0 91 6e 20 	lds	r27, 0x206E	; 0x80206e <pxCurrentTCB+0x1>
    57b2:	cd 91       	ld	r28, X+
    57b4:	cd bf       	out	0x3d, r28	; 61
    57b6:	dd 91       	ld	r29, X+
    57b8:	de bf       	out	0x3e, r29	; 62
    57ba:	ff 91       	pop	r31
    57bc:	ef 91       	pop	r30
    57be:	df 91       	pop	r29
    57c0:	cf 91       	pop	r28
    57c2:	bf 91       	pop	r27
    57c4:	af 91       	pop	r26
    57c6:	9f 91       	pop	r25
    57c8:	8f 91       	pop	r24
    57ca:	7f 91       	pop	r23
    57cc:	6f 91       	pop	r22
    57ce:	5f 91       	pop	r21
    57d0:	4f 91       	pop	r20
    57d2:	3f 91       	pop	r19
    57d4:	2f 91       	pop	r18
    57d6:	1f 91       	pop	r17
    57d8:	0f 91       	pop	r16
    57da:	ff 90       	pop	r15
    57dc:	ef 90       	pop	r14
    57de:	df 90       	pop	r13
    57e0:	cf 90       	pop	r12
    57e2:	bf 90       	pop	r11
    57e4:	af 90       	pop	r10
    57e6:	9f 90       	pop	r9
    57e8:	8f 90       	pop	r8
    57ea:	7f 90       	pop	r7
    57ec:	6f 90       	pop	r6
    57ee:	5f 90       	pop	r5
    57f0:	4f 90       	pop	r4
    57f2:	3f 90       	pop	r3
    57f4:	2f 90       	pop	r2
    57f6:	1f 90       	pop	r1
    57f8:	0f 90       	pop	r0
    57fa:	0c be       	out	0x3c, r0	; 60
    57fc:	0f 90       	pop	r0
    57fe:	0b be       	out	0x3b, r0	; 59
    5800:	0f 90       	pop	r0
    5802:	0f be       	out	0x3f, r0	; 63
    5804:	0f 90       	pop	r0
    5806:	08 95       	ret

00005808 <__vector_17>:
    5808:	9d df       	rcall	.-198    	; 0x5744 <vPortYieldFromTick>
    580a:	18 95       	reti

0000580c <prvIsQueueEmpty>:
    580c:	0f b6       	in	r0, 0x3f	; 63
    580e:	f8 94       	cli
    5810:	0f 92       	push	r0
    5812:	fc 01       	movw	r30, r24
    5814:	92 8d       	ldd	r25, Z+26	; 0x1a
    5816:	0f 90       	pop	r0
    5818:	0f be       	out	0x3f, r0	; 63
    581a:	81 e0       	ldi	r24, 0x01	; 1
    581c:	91 11       	cpse	r25, r1
    581e:	80 e0       	ldi	r24, 0x00	; 0
    5820:	08 95       	ret

00005822 <prvCopyDataToQueue>:
    5822:	0f 93       	push	r16
    5824:	1f 93       	push	r17
    5826:	cf 93       	push	r28
    5828:	df 93       	push	r29
    582a:	ec 01       	movw	r28, r24
    582c:	04 2f       	mov	r16, r20
    582e:	1a 8d       	ldd	r17, Y+26	; 0x1a
    5830:	4c 8d       	ldd	r20, Y+28	; 0x1c
    5832:	41 11       	cpse	r20, r1
    5834:	0b c0       	rjmp	.+22     	; 0x584c <prvCopyDataToQueue+0x2a>
    5836:	88 81       	ld	r24, Y
    5838:	99 81       	ldd	r25, Y+1	; 0x01
    583a:	89 2b       	or	r24, r25
    583c:	e9 f5       	brne	.+122    	; 0x58b8 <prvCopyDataToQueue+0x96>
    583e:	8c 81       	ldd	r24, Y+4	; 0x04
    5840:	9d 81       	ldd	r25, Y+5	; 0x05
    5842:	0e 94 db 36 	call	0x6db6	; 0x6db6 <xTaskPriorityDisinherit>
    5846:	1d 82       	std	Y+5, r1	; 0x05
    5848:	1c 82       	std	Y+4, r1	; 0x04
    584a:	37 c0       	rjmp	.+110    	; 0x58ba <prvCopyDataToQueue+0x98>
    584c:	50 e0       	ldi	r21, 0x00	; 0
    584e:	01 11       	cpse	r16, r1
    5850:	15 c0       	rjmp	.+42     	; 0x587c <prvCopyDataToQueue+0x5a>
    5852:	8a 81       	ldd	r24, Y+2	; 0x02
    5854:	9b 81       	ldd	r25, Y+3	; 0x03
    5856:	0e 94 e3 3b 	call	0x77c6	; 0x77c6 <memcpy>
    585a:	2c 8d       	ldd	r18, Y+28	; 0x1c
    585c:	8a 81       	ldd	r24, Y+2	; 0x02
    585e:	9b 81       	ldd	r25, Y+3	; 0x03
    5860:	82 0f       	add	r24, r18
    5862:	91 1d       	adc	r25, r1
    5864:	9b 83       	std	Y+3, r25	; 0x03
    5866:	8a 83       	std	Y+2, r24	; 0x02
    5868:	2c 81       	ldd	r18, Y+4	; 0x04
    586a:	3d 81       	ldd	r19, Y+5	; 0x05
    586c:	82 17       	cp	r24, r18
    586e:	93 07       	cpc	r25, r19
    5870:	18 f1       	brcs	.+70     	; 0x58b8 <prvCopyDataToQueue+0x96>
    5872:	88 81       	ld	r24, Y
    5874:	99 81       	ldd	r25, Y+1	; 0x01
    5876:	9b 83       	std	Y+3, r25	; 0x03
    5878:	8a 83       	std	Y+2, r24	; 0x02
    587a:	1e c0       	rjmp	.+60     	; 0x58b8 <prvCopyDataToQueue+0x96>
    587c:	8e 81       	ldd	r24, Y+6	; 0x06
    587e:	9f 81       	ldd	r25, Y+7	; 0x07
    5880:	0e 94 e3 3b 	call	0x77c6	; 0x77c6 <memcpy>
    5884:	8c 8d       	ldd	r24, Y+28	; 0x1c
    5886:	90 e0       	ldi	r25, 0x00	; 0
    5888:	91 95       	neg	r25
    588a:	81 95       	neg	r24
    588c:	91 09       	sbc	r25, r1
    588e:	2e 81       	ldd	r18, Y+6	; 0x06
    5890:	3f 81       	ldd	r19, Y+7	; 0x07
    5892:	28 0f       	add	r18, r24
    5894:	39 1f       	adc	r19, r25
    5896:	3f 83       	std	Y+7, r19	; 0x07
    5898:	2e 83       	std	Y+6, r18	; 0x06
    589a:	48 81       	ld	r20, Y
    589c:	59 81       	ldd	r21, Y+1	; 0x01
    589e:	24 17       	cp	r18, r20
    58a0:	35 07       	cpc	r19, r21
    58a2:	30 f4       	brcc	.+12     	; 0x58b0 <prvCopyDataToQueue+0x8e>
    58a4:	2c 81       	ldd	r18, Y+4	; 0x04
    58a6:	3d 81       	ldd	r19, Y+5	; 0x05
    58a8:	82 0f       	add	r24, r18
    58aa:	93 1f       	adc	r25, r19
    58ac:	9f 83       	std	Y+7, r25	; 0x07
    58ae:	8e 83       	std	Y+6, r24	; 0x06
    58b0:	02 30       	cpi	r16, 0x02	; 2
    58b2:	11 f4       	brne	.+4      	; 0x58b8 <prvCopyDataToQueue+0x96>
    58b4:	11 11       	cpse	r17, r1
    58b6:	11 50       	subi	r17, 0x01	; 1
    58b8:	80 e0       	ldi	r24, 0x00	; 0
    58ba:	1f 5f       	subi	r17, 0xFF	; 255
    58bc:	1a 8f       	std	Y+26, r17	; 0x1a
    58be:	df 91       	pop	r29
    58c0:	cf 91       	pop	r28
    58c2:	1f 91       	pop	r17
    58c4:	0f 91       	pop	r16
    58c6:	08 95       	ret

000058c8 <prvCopyDataFromQueue>:
    58c8:	fc 01       	movw	r30, r24
    58ca:	cb 01       	movw	r24, r22
    58cc:	44 8d       	ldd	r20, Z+28	; 0x1c
    58ce:	44 23       	and	r20, r20
    58d0:	a1 f0       	breq	.+40     	; 0x58fa <prvCopyDataFromQueue+0x32>
    58d2:	50 e0       	ldi	r21, 0x00	; 0
    58d4:	26 81       	ldd	r18, Z+6	; 0x06
    58d6:	37 81       	ldd	r19, Z+7	; 0x07
    58d8:	24 0f       	add	r18, r20
    58da:	35 1f       	adc	r19, r21
    58dc:	37 83       	std	Z+7, r19	; 0x07
    58de:	26 83       	std	Z+6, r18	; 0x06
    58e0:	64 81       	ldd	r22, Z+4	; 0x04
    58e2:	75 81       	ldd	r23, Z+5	; 0x05
    58e4:	26 17       	cp	r18, r22
    58e6:	37 07       	cpc	r19, r23
    58e8:	20 f0       	brcs	.+8      	; 0x58f2 <prvCopyDataFromQueue+0x2a>
    58ea:	20 81       	ld	r18, Z
    58ec:	31 81       	ldd	r19, Z+1	; 0x01
    58ee:	37 83       	std	Z+7, r19	; 0x07
    58f0:	26 83       	std	Z+6, r18	; 0x06
    58f2:	66 81       	ldd	r22, Z+6	; 0x06
    58f4:	77 81       	ldd	r23, Z+7	; 0x07
    58f6:	0c 94 e3 3b 	jmp	0x77c6	; 0x77c6 <memcpy>
    58fa:	08 95       	ret

000058fc <prvUnlockQueue>:
    58fc:	ef 92       	push	r14
    58fe:	ff 92       	push	r15
    5900:	1f 93       	push	r17
    5902:	cf 93       	push	r28
    5904:	df 93       	push	r29
    5906:	ec 01       	movw	r28, r24
    5908:	0f b6       	in	r0, 0x3f	; 63
    590a:	f8 94       	cli
    590c:	0f 92       	push	r0
    590e:	1e 8d       	ldd	r17, Y+30	; 0x1e
    5910:	7c 01       	movw	r14, r24
    5912:	81 e1       	ldi	r24, 0x11	; 17
    5914:	e8 0e       	add	r14, r24
    5916:	f1 1c       	adc	r15, r1
    5918:	11 16       	cp	r1, r17
    591a:	5c f4       	brge	.+22     	; 0x5932 <prvUnlockQueue+0x36>
    591c:	89 89       	ldd	r24, Y+17	; 0x11
    591e:	88 23       	and	r24, r24
    5920:	41 f0       	breq	.+16     	; 0x5932 <prvUnlockQueue+0x36>
    5922:	c7 01       	movw	r24, r14
    5924:	0e 94 b1 34 	call	0x6962	; 0x6962 <xTaskRemoveFromEventList>
    5928:	81 11       	cpse	r24, r1
    592a:	0e 94 2e 35 	call	0x6a5c	; 0x6a5c <vTaskMissedYield>
    592e:	11 50       	subi	r17, 0x01	; 1
    5930:	f3 cf       	rjmp	.-26     	; 0x5918 <prvUnlockQueue+0x1c>
    5932:	8f ef       	ldi	r24, 0xFF	; 255
    5934:	8e 8f       	std	Y+30, r24	; 0x1e
    5936:	0f 90       	pop	r0
    5938:	0f be       	out	0x3f, r0	; 63
    593a:	0f b6       	in	r0, 0x3f	; 63
    593c:	f8 94       	cli
    593e:	0f 92       	push	r0
    5940:	1d 8d       	ldd	r17, Y+29	; 0x1d
    5942:	7e 01       	movw	r14, r28
    5944:	88 e0       	ldi	r24, 0x08	; 8
    5946:	e8 0e       	add	r14, r24
    5948:	f1 1c       	adc	r15, r1
    594a:	11 16       	cp	r1, r17
    594c:	5c f4       	brge	.+22     	; 0x5964 <prvUnlockQueue+0x68>
    594e:	88 85       	ldd	r24, Y+8	; 0x08
    5950:	88 23       	and	r24, r24
    5952:	41 f0       	breq	.+16     	; 0x5964 <prvUnlockQueue+0x68>
    5954:	c7 01       	movw	r24, r14
    5956:	0e 94 b1 34 	call	0x6962	; 0x6962 <xTaskRemoveFromEventList>
    595a:	81 11       	cpse	r24, r1
    595c:	0e 94 2e 35 	call	0x6a5c	; 0x6a5c <vTaskMissedYield>
    5960:	11 50       	subi	r17, 0x01	; 1
    5962:	f3 cf       	rjmp	.-26     	; 0x594a <prvUnlockQueue+0x4e>
    5964:	8f ef       	ldi	r24, 0xFF	; 255
    5966:	8d 8f       	std	Y+29, r24	; 0x1d
    5968:	0f 90       	pop	r0
    596a:	0f be       	out	0x3f, r0	; 63
    596c:	df 91       	pop	r29
    596e:	cf 91       	pop	r28
    5970:	1f 91       	pop	r17
    5972:	ff 90       	pop	r15
    5974:	ef 90       	pop	r14
    5976:	08 95       	ret

00005978 <xQueueGenericReset>:
    5978:	cf 93       	push	r28
    597a:	df 93       	push	r29
    597c:	ec 01       	movw	r28, r24
    597e:	0f b6       	in	r0, 0x3f	; 63
    5980:	f8 94       	cli
    5982:	0f 92       	push	r0
    5984:	48 81       	ld	r20, Y
    5986:	59 81       	ldd	r21, Y+1	; 0x01
    5988:	8b 8d       	ldd	r24, Y+27	; 0x1b
    598a:	7c 8d       	ldd	r23, Y+28	; 0x1c
    598c:	9a 01       	movw	r18, r20
    598e:	87 9f       	mul	r24, r23
    5990:	20 0d       	add	r18, r0
    5992:	31 1d       	adc	r19, r1
    5994:	11 24       	eor	r1, r1
    5996:	3d 83       	std	Y+5, r19	; 0x05
    5998:	2c 83       	std	Y+4, r18	; 0x04
    599a:	1a 8e       	std	Y+26, r1	; 0x1a
    599c:	5b 83       	std	Y+3, r21	; 0x03
    599e:	4a 83       	std	Y+2, r20	; 0x02
    59a0:	90 e0       	ldi	r25, 0x00	; 0
    59a2:	01 97       	sbiw	r24, 0x01	; 1
    59a4:	78 9f       	mul	r23, r24
    59a6:	90 01       	movw	r18, r0
    59a8:	79 9f       	mul	r23, r25
    59aa:	30 0d       	add	r19, r0
    59ac:	11 24       	eor	r1, r1
    59ae:	ca 01       	movw	r24, r20
    59b0:	82 0f       	add	r24, r18
    59b2:	93 1f       	adc	r25, r19
    59b4:	9f 83       	std	Y+7, r25	; 0x07
    59b6:	8e 83       	std	Y+6, r24	; 0x06
    59b8:	8f ef       	ldi	r24, 0xFF	; 255
    59ba:	8d 8f       	std	Y+29, r24	; 0x1d
    59bc:	8e 8f       	std	Y+30, r24	; 0x1e
    59be:	61 11       	cpse	r22, r1
    59c0:	0a c0       	rjmp	.+20     	; 0x59d6 <xQueueGenericReset+0x5e>
    59c2:	88 85       	ldd	r24, Y+8	; 0x08
    59c4:	88 23       	and	r24, r24
    59c6:	79 f0       	breq	.+30     	; 0x59e6 <xQueueGenericReset+0x6e>
    59c8:	ce 01       	movw	r24, r28
    59ca:	08 96       	adiw	r24, 0x08	; 8
    59cc:	ca d7       	rcall	.+3988   	; 0x6962 <xTaskRemoveFromEventList>
    59ce:	88 23       	and	r24, r24
    59d0:	51 f0       	breq	.+20     	; 0x59e6 <xQueueGenericReset+0x6e>
    59d2:	57 de       	rcall	.-850    	; 0x5682 <vPortYield>
    59d4:	08 c0       	rjmp	.+16     	; 0x59e6 <xQueueGenericReset+0x6e>
    59d6:	ce 01       	movw	r24, r28
    59d8:	08 96       	adiw	r24, 0x08	; 8
    59da:	0e 94 0c 24 	call	0x4818	; 0x4818 <vListInitialise>
    59de:	ce 01       	movw	r24, r28
    59e0:	41 96       	adiw	r24, 0x11	; 17
    59e2:	0e 94 0c 24 	call	0x4818	; 0x4818 <vListInitialise>
    59e6:	0f 90       	pop	r0
    59e8:	0f be       	out	0x3f, r0	; 63
    59ea:	81 e0       	ldi	r24, 0x01	; 1
    59ec:	df 91       	pop	r29
    59ee:	cf 91       	pop	r28
    59f0:	08 95       	ret

000059f2 <xQueueGenericCreate>:
    59f2:	ff 92       	push	r15
    59f4:	0f 93       	push	r16
    59f6:	1f 93       	push	r17
    59f8:	cf 93       	push	r28
    59fa:	df 93       	push	r29
    59fc:	08 2f       	mov	r16, r24
    59fe:	16 2f       	mov	r17, r22
    5a00:	f4 2e       	mov	r15, r20
    5a02:	66 23       	and	r22, r22
    5a04:	21 f0       	breq	.+8      	; 0x5a0e <xQueueGenericCreate+0x1c>
    5a06:	86 9f       	mul	r24, r22
    5a08:	c0 01       	movw	r24, r0
    5a0a:	11 24       	eor	r1, r1
    5a0c:	02 c0       	rjmp	.+4      	; 0x5a12 <xQueueGenericCreate+0x20>
    5a0e:	80 e0       	ldi	r24, 0x00	; 0
    5a10:	90 e0       	ldi	r25, 0x00	; 0
    5a12:	81 96       	adiw	r24, 0x21	; 33
    5a14:	0e 94 54 23 	call	0x46a8	; 0x46a8 <pvPortMalloc>
    5a18:	ec 01       	movw	r28, r24
    5a1a:	00 97       	sbiw	r24, 0x00	; 0
    5a1c:	71 f0       	breq	.+28     	; 0x5a3a <xQueueGenericCreate+0x48>
    5a1e:	11 11       	cpse	r17, r1
    5a20:	03 c0       	rjmp	.+6      	; 0x5a28 <xQueueGenericCreate+0x36>
    5a22:	99 83       	std	Y+1, r25	; 0x01
    5a24:	88 83       	st	Y, r24
    5a26:	03 c0       	rjmp	.+6      	; 0x5a2e <xQueueGenericCreate+0x3c>
    5a28:	81 96       	adiw	r24, 0x21	; 33
    5a2a:	99 83       	std	Y+1, r25	; 0x01
    5a2c:	88 83       	st	Y, r24
    5a2e:	0b 8f       	std	Y+27, r16	; 0x1b
    5a30:	1c 8f       	std	Y+28, r17	; 0x1c
    5a32:	61 e0       	ldi	r22, 0x01	; 1
    5a34:	ce 01       	movw	r24, r28
    5a36:	a0 df       	rcall	.-192    	; 0x5978 <xQueueGenericReset>
    5a38:	f8 a2       	std	Y+32, r15	; 0x20
    5a3a:	ce 01       	movw	r24, r28
    5a3c:	df 91       	pop	r29
    5a3e:	cf 91       	pop	r28
    5a40:	1f 91       	pop	r17
    5a42:	0f 91       	pop	r16
    5a44:	ff 90       	pop	r15
    5a46:	08 95       	ret

00005a48 <xQueueGenericSend>:
    5a48:	af 92       	push	r10
    5a4a:	bf 92       	push	r11
    5a4c:	cf 92       	push	r12
    5a4e:	df 92       	push	r13
    5a50:	ff 92       	push	r15
    5a52:	0f 93       	push	r16
    5a54:	1f 93       	push	r17
    5a56:	cf 93       	push	r28
    5a58:	df 93       	push	r29
    5a5a:	00 d0       	rcall	.+0      	; 0x5a5c <xQueueGenericSend+0x14>
    5a5c:	1f 92       	push	r1
    5a5e:	1f 92       	push	r1
    5a60:	cd b7       	in	r28, 0x3d	; 61
    5a62:	de b7       	in	r29, 0x3e	; 62
    5a64:	8c 01       	movw	r16, r24
    5a66:	6b 01       	movw	r12, r22
    5a68:	5d 83       	std	Y+5, r21	; 0x05
    5a6a:	4c 83       	std	Y+4, r20	; 0x04
    5a6c:	f2 2e       	mov	r15, r18
    5a6e:	80 e0       	ldi	r24, 0x00	; 0
    5a70:	58 01       	movw	r10, r16
    5a72:	98 e0       	ldi	r25, 0x08	; 8
    5a74:	a9 0e       	add	r10, r25
    5a76:	b1 1c       	adc	r11, r1
    5a78:	0f b6       	in	r0, 0x3f	; 63
    5a7a:	f8 94       	cli
    5a7c:	0f 92       	push	r0
    5a7e:	f8 01       	movw	r30, r16
    5a80:	22 8d       	ldd	r18, Z+26	; 0x1a
    5a82:	93 8d       	ldd	r25, Z+27	; 0x1b
    5a84:	29 17       	cp	r18, r25
    5a86:	18 f0       	brcs	.+6      	; 0x5a8e <xQueueGenericSend+0x46>
    5a88:	f2 e0       	ldi	r31, 0x02	; 2
    5a8a:	ff 12       	cpse	r15, r31
    5a8c:	11 c0       	rjmp	.+34     	; 0x5ab0 <xQueueGenericSend+0x68>
    5a8e:	4f 2d       	mov	r20, r15
    5a90:	b6 01       	movw	r22, r12
    5a92:	c8 01       	movw	r24, r16
    5a94:	c6 de       	rcall	.-628    	; 0x5822 <prvCopyDataToQueue>
    5a96:	f8 01       	movw	r30, r16
    5a98:	91 89       	ldd	r25, Z+17	; 0x11
    5a9a:	99 23       	and	r25, r25
    5a9c:	19 f0       	breq	.+6      	; 0x5aa4 <xQueueGenericSend+0x5c>
    5a9e:	c8 01       	movw	r24, r16
    5aa0:	41 96       	adiw	r24, 0x11	; 17
    5aa2:	5f d7       	rcall	.+3774   	; 0x6962 <xTaskRemoveFromEventList>
    5aa4:	81 11       	cpse	r24, r1
    5aa6:	ed dd       	rcall	.-1062   	; 0x5682 <vPortYield>
    5aa8:	0f 90       	pop	r0
    5aaa:	0f be       	out	0x3f, r0	; 63
    5aac:	81 e0       	ldi	r24, 0x01	; 1
    5aae:	45 c0       	rjmp	.+138    	; 0x5b3a <xQueueGenericSend+0xf2>
    5ab0:	2c 81       	ldd	r18, Y+4	; 0x04
    5ab2:	3d 81       	ldd	r19, Y+5	; 0x05
    5ab4:	23 2b       	or	r18, r19
    5ab6:	19 f4       	brne	.+6      	; 0x5abe <xQueueGenericSend+0x76>
    5ab8:	0f 90       	pop	r0
    5aba:	0f be       	out	0x3f, r0	; 63
    5abc:	3d c0       	rjmp	.+122    	; 0x5b38 <xQueueGenericSend+0xf0>
    5abe:	81 11       	cpse	r24, r1
    5ac0:	03 c0       	rjmp	.+6      	; 0x5ac8 <xQueueGenericSend+0x80>
    5ac2:	ce 01       	movw	r24, r28
    5ac4:	01 96       	adiw	r24, 0x01	; 1
    5ac6:	8d d7       	rcall	.+3866   	; 0x69e2 <vTaskInternalSetTimeOutState>
    5ac8:	0f 90       	pop	r0
    5aca:	0f be       	out	0x3f, r0	; 63
    5acc:	14 d5       	rcall	.+2600   	; 0x64f6 <vTaskSuspendAll>
    5ace:	0f b6       	in	r0, 0x3f	; 63
    5ad0:	f8 94       	cli
    5ad2:	0f 92       	push	r0
    5ad4:	f8 01       	movw	r30, r16
    5ad6:	85 8d       	ldd	r24, Z+29	; 0x1d
    5ad8:	8f 3f       	cpi	r24, 0xFF	; 255
    5ada:	09 f4       	brne	.+2      	; 0x5ade <xQueueGenericSend+0x96>
    5adc:	15 8e       	std	Z+29, r1	; 0x1d
    5ade:	f8 01       	movw	r30, r16
    5ae0:	86 8d       	ldd	r24, Z+30	; 0x1e
    5ae2:	8f 3f       	cpi	r24, 0xFF	; 255
    5ae4:	09 f4       	brne	.+2      	; 0x5ae8 <xQueueGenericSend+0xa0>
    5ae6:	16 8e       	std	Z+30, r1	; 0x1e
    5ae8:	0f 90       	pop	r0
    5aea:	0f be       	out	0x3f, r0	; 63
    5aec:	be 01       	movw	r22, r28
    5aee:	6c 5f       	subi	r22, 0xFC	; 252
    5af0:	7f 4f       	sbci	r23, 0xFF	; 255
    5af2:	ce 01       	movw	r24, r28
    5af4:	01 96       	adiw	r24, 0x01	; 1
    5af6:	80 d7       	rcall	.+3840   	; 0x69f8 <xTaskCheckForTimeOut>
    5af8:	81 11       	cpse	r24, r1
    5afa:	1b c0       	rjmp	.+54     	; 0x5b32 <xQueueGenericSend+0xea>
    5afc:	0f b6       	in	r0, 0x3f	; 63
    5afe:	f8 94       	cli
    5b00:	0f 92       	push	r0
    5b02:	f8 01       	movw	r30, r16
    5b04:	92 8d       	ldd	r25, Z+26	; 0x1a
    5b06:	0f 90       	pop	r0
    5b08:	0f be       	out	0x3f, r0	; 63
    5b0a:	83 8d       	ldd	r24, Z+27	; 0x1b
    5b0c:	98 13       	cpse	r25, r24
    5b0e:	0d c0       	rjmp	.+26     	; 0x5b2a <xQueueGenericSend+0xe2>
    5b10:	6c 81       	ldd	r22, Y+4	; 0x04
    5b12:	7d 81       	ldd	r23, Y+5	; 0x05
    5b14:	c5 01       	movw	r24, r10
    5b16:	fe d6       	rcall	.+3580   	; 0x6914 <vTaskPlaceOnEventList>
    5b18:	c8 01       	movw	r24, r16
    5b1a:	f0 de       	rcall	.-544    	; 0x58fc <prvUnlockQueue>
    5b1c:	a4 d5       	rcall	.+2888   	; 0x6666 <xTaskResumeAll>
    5b1e:	88 23       	and	r24, r24
    5b20:	11 f0       	breq	.+4      	; 0x5b26 <xQueueGenericSend+0xde>
    5b22:	81 e0       	ldi	r24, 0x01	; 1
    5b24:	a9 cf       	rjmp	.-174    	; 0x5a78 <xQueueGenericSend+0x30>
    5b26:	ad dd       	rcall	.-1190   	; 0x5682 <vPortYield>
    5b28:	fc cf       	rjmp	.-8      	; 0x5b22 <xQueueGenericSend+0xda>
    5b2a:	c8 01       	movw	r24, r16
    5b2c:	e7 de       	rcall	.-562    	; 0x58fc <prvUnlockQueue>
    5b2e:	9b d5       	rcall	.+2870   	; 0x6666 <xTaskResumeAll>
    5b30:	f8 cf       	rjmp	.-16     	; 0x5b22 <xQueueGenericSend+0xda>
    5b32:	c8 01       	movw	r24, r16
    5b34:	e3 de       	rcall	.-570    	; 0x58fc <prvUnlockQueue>
    5b36:	97 d5       	rcall	.+2862   	; 0x6666 <xTaskResumeAll>
    5b38:	80 e0       	ldi	r24, 0x00	; 0
    5b3a:	0f 90       	pop	r0
    5b3c:	0f 90       	pop	r0
    5b3e:	0f 90       	pop	r0
    5b40:	0f 90       	pop	r0
    5b42:	0f 90       	pop	r0
    5b44:	df 91       	pop	r29
    5b46:	cf 91       	pop	r28
    5b48:	1f 91       	pop	r17
    5b4a:	0f 91       	pop	r16
    5b4c:	ff 90       	pop	r15
    5b4e:	df 90       	pop	r13
    5b50:	cf 90       	pop	r12
    5b52:	bf 90       	pop	r11
    5b54:	af 90       	pop	r10
    5b56:	08 95       	ret

00005b58 <xQueueCreateMutex>:
    5b58:	cf 93       	push	r28
    5b5a:	df 93       	push	r29
    5b5c:	48 2f       	mov	r20, r24
    5b5e:	60 e0       	ldi	r22, 0x00	; 0
    5b60:	81 e0       	ldi	r24, 0x01	; 1
    5b62:	47 df       	rcall	.-370    	; 0x59f2 <xQueueGenericCreate>
    5b64:	ec 01       	movw	r28, r24
    5b66:	00 97       	sbiw	r24, 0x00	; 0
    5b68:	59 f0       	breq	.+22     	; 0x5b80 <xQueueCreateMutex+0x28>
    5b6a:	1d 82       	std	Y+5, r1	; 0x05
    5b6c:	1c 82       	std	Y+4, r1	; 0x04
    5b6e:	19 82       	std	Y+1, r1	; 0x01
    5b70:	18 82       	st	Y, r1
    5b72:	1e 82       	std	Y+6, r1	; 0x06
    5b74:	20 e0       	ldi	r18, 0x00	; 0
    5b76:	40 e0       	ldi	r20, 0x00	; 0
    5b78:	50 e0       	ldi	r21, 0x00	; 0
    5b7a:	60 e0       	ldi	r22, 0x00	; 0
    5b7c:	70 e0       	ldi	r23, 0x00	; 0
    5b7e:	64 df       	rcall	.-312    	; 0x5a48 <xQueueGenericSend>
    5b80:	ce 01       	movw	r24, r28
    5b82:	df 91       	pop	r29
    5b84:	cf 91       	pop	r28
    5b86:	08 95       	ret

00005b88 <xQueueGenericSendFromISR>:
    5b88:	ef 92       	push	r14
    5b8a:	ff 92       	push	r15
    5b8c:	1f 93       	push	r17
    5b8e:	cf 93       	push	r28
    5b90:	df 93       	push	r29
    5b92:	ec 01       	movw	r28, r24
    5b94:	9a 8d       	ldd	r25, Y+26	; 0x1a
    5b96:	8b 8d       	ldd	r24, Y+27	; 0x1b
    5b98:	98 17       	cp	r25, r24
    5b9a:	10 f0       	brcs	.+4      	; 0x5ba0 <xQueueGenericSendFromISR+0x18>
    5b9c:	22 30       	cpi	r18, 0x02	; 2
    5b9e:	d1 f4       	brne	.+52     	; 0x5bd4 <xQueueGenericSendFromISR+0x4c>
    5ba0:	7a 01       	movw	r14, r20
    5ba2:	1e 8d       	ldd	r17, Y+30	; 0x1e
    5ba4:	42 2f       	mov	r20, r18
    5ba6:	ce 01       	movw	r24, r28
    5ba8:	3c de       	rcall	.-904    	; 0x5822 <prvCopyDataToQueue>
    5baa:	1f 3f       	cpi	r17, 0xFF	; 255
    5bac:	79 f4       	brne	.+30     	; 0x5bcc <xQueueGenericSendFromISR+0x44>
    5bae:	89 89       	ldd	r24, Y+17	; 0x11
    5bb0:	88 23       	and	r24, r24
    5bb2:	71 f0       	breq	.+28     	; 0x5bd0 <xQueueGenericSendFromISR+0x48>
    5bb4:	ce 01       	movw	r24, r28
    5bb6:	41 96       	adiw	r24, 0x11	; 17
    5bb8:	d4 d6       	rcall	.+3496   	; 0x6962 <xTaskRemoveFromEventList>
    5bba:	88 23       	and	r24, r24
    5bbc:	49 f0       	breq	.+18     	; 0x5bd0 <xQueueGenericSendFromISR+0x48>
    5bbe:	e1 14       	cp	r14, r1
    5bc0:	f1 04       	cpc	r15, r1
    5bc2:	31 f0       	breq	.+12     	; 0x5bd0 <xQueueGenericSendFromISR+0x48>
    5bc4:	81 e0       	ldi	r24, 0x01	; 1
    5bc6:	f7 01       	movw	r30, r14
    5bc8:	80 83       	st	Z, r24
    5bca:	05 c0       	rjmp	.+10     	; 0x5bd6 <xQueueGenericSendFromISR+0x4e>
    5bcc:	1f 5f       	subi	r17, 0xFF	; 255
    5bce:	1e 8f       	std	Y+30, r17	; 0x1e
    5bd0:	81 e0       	ldi	r24, 0x01	; 1
    5bd2:	01 c0       	rjmp	.+2      	; 0x5bd6 <xQueueGenericSendFromISR+0x4e>
    5bd4:	80 e0       	ldi	r24, 0x00	; 0
    5bd6:	df 91       	pop	r29
    5bd8:	cf 91       	pop	r28
    5bda:	1f 91       	pop	r17
    5bdc:	ff 90       	pop	r15
    5bde:	ef 90       	pop	r14
    5be0:	08 95       	ret

00005be2 <xQueueReceive>:
    5be2:	af 92       	push	r10
    5be4:	bf 92       	push	r11
    5be6:	cf 92       	push	r12
    5be8:	df 92       	push	r13
    5bea:	ff 92       	push	r15
    5bec:	0f 93       	push	r16
    5bee:	1f 93       	push	r17
    5bf0:	cf 93       	push	r28
    5bf2:	df 93       	push	r29
    5bf4:	00 d0       	rcall	.+0      	; 0x5bf6 <xQueueReceive+0x14>
    5bf6:	1f 92       	push	r1
    5bf8:	1f 92       	push	r1
    5bfa:	cd b7       	in	r28, 0x3d	; 61
    5bfc:	de b7       	in	r29, 0x3e	; 62
    5bfe:	8c 01       	movw	r16, r24
    5c00:	6b 01       	movw	r12, r22
    5c02:	5d 83       	std	Y+5, r21	; 0x05
    5c04:	4c 83       	std	Y+4, r20	; 0x04
    5c06:	80 e0       	ldi	r24, 0x00	; 0
    5c08:	58 01       	movw	r10, r16
    5c0a:	91 e1       	ldi	r25, 0x11	; 17
    5c0c:	a9 0e       	add	r10, r25
    5c0e:	b1 1c       	adc	r11, r1
    5c10:	0f b6       	in	r0, 0x3f	; 63
    5c12:	f8 94       	cli
    5c14:	0f 92       	push	r0
    5c16:	f8 01       	movw	r30, r16
    5c18:	f2 8c       	ldd	r15, Z+26	; 0x1a
    5c1a:	ff 20       	and	r15, r15
    5c1c:	91 f0       	breq	.+36     	; 0x5c42 <xQueueReceive+0x60>
    5c1e:	b6 01       	movw	r22, r12
    5c20:	c8 01       	movw	r24, r16
    5c22:	52 de       	rcall	.-860    	; 0x58c8 <prvCopyDataFromQueue>
    5c24:	fa 94       	dec	r15
    5c26:	f8 01       	movw	r30, r16
    5c28:	f2 8e       	std	Z+26, r15	; 0x1a
    5c2a:	80 85       	ldd	r24, Z+8	; 0x08
    5c2c:	88 23       	and	r24, r24
    5c2e:	29 f0       	breq	.+10     	; 0x5c3a <xQueueReceive+0x58>
    5c30:	c8 01       	movw	r24, r16
    5c32:	08 96       	adiw	r24, 0x08	; 8
    5c34:	96 d6       	rcall	.+3372   	; 0x6962 <xTaskRemoveFromEventList>
    5c36:	81 11       	cpse	r24, r1
    5c38:	24 dd       	rcall	.-1464   	; 0x5682 <vPortYield>
    5c3a:	0f 90       	pop	r0
    5c3c:	0f be       	out	0x3f, r0	; 63
    5c3e:	81 e0       	ldi	r24, 0x01	; 1
    5c40:	43 c0       	rjmp	.+134    	; 0x5cc8 <xQueueReceive+0xe6>
    5c42:	2c 81       	ldd	r18, Y+4	; 0x04
    5c44:	3d 81       	ldd	r19, Y+5	; 0x05
    5c46:	23 2b       	or	r18, r19
    5c48:	19 f4       	brne	.+6      	; 0x5c50 <xQueueReceive+0x6e>
    5c4a:	0f 90       	pop	r0
    5c4c:	0f be       	out	0x3f, r0	; 63
    5c4e:	3b c0       	rjmp	.+118    	; 0x5cc6 <xQueueReceive+0xe4>
    5c50:	81 11       	cpse	r24, r1
    5c52:	03 c0       	rjmp	.+6      	; 0x5c5a <xQueueReceive+0x78>
    5c54:	ce 01       	movw	r24, r28
    5c56:	01 96       	adiw	r24, 0x01	; 1
    5c58:	c4 d6       	rcall	.+3464   	; 0x69e2 <vTaskInternalSetTimeOutState>
    5c5a:	0f 90       	pop	r0
    5c5c:	0f be       	out	0x3f, r0	; 63
    5c5e:	4b d4       	rcall	.+2198   	; 0x64f6 <vTaskSuspendAll>
    5c60:	0f b6       	in	r0, 0x3f	; 63
    5c62:	f8 94       	cli
    5c64:	0f 92       	push	r0
    5c66:	f8 01       	movw	r30, r16
    5c68:	85 8d       	ldd	r24, Z+29	; 0x1d
    5c6a:	8f 3f       	cpi	r24, 0xFF	; 255
    5c6c:	09 f4       	brne	.+2      	; 0x5c70 <xQueueReceive+0x8e>
    5c6e:	15 8e       	std	Z+29, r1	; 0x1d
    5c70:	f8 01       	movw	r30, r16
    5c72:	86 8d       	ldd	r24, Z+30	; 0x1e
    5c74:	8f 3f       	cpi	r24, 0xFF	; 255
    5c76:	09 f4       	brne	.+2      	; 0x5c7a <xQueueReceive+0x98>
    5c78:	16 8e       	std	Z+30, r1	; 0x1e
    5c7a:	0f 90       	pop	r0
    5c7c:	0f be       	out	0x3f, r0	; 63
    5c7e:	be 01       	movw	r22, r28
    5c80:	6c 5f       	subi	r22, 0xFC	; 252
    5c82:	7f 4f       	sbci	r23, 0xFF	; 255
    5c84:	ce 01       	movw	r24, r28
    5c86:	01 96       	adiw	r24, 0x01	; 1
    5c88:	b7 d6       	rcall	.+3438   	; 0x69f8 <xTaskCheckForTimeOut>
    5c8a:	81 11       	cpse	r24, r1
    5c8c:	15 c0       	rjmp	.+42     	; 0x5cb8 <xQueueReceive+0xd6>
    5c8e:	c8 01       	movw	r24, r16
    5c90:	bd dd       	rcall	.-1158   	; 0x580c <prvIsQueueEmpty>
    5c92:	88 23       	and	r24, r24
    5c94:	69 f0       	breq	.+26     	; 0x5cb0 <xQueueReceive+0xce>
    5c96:	6c 81       	ldd	r22, Y+4	; 0x04
    5c98:	7d 81       	ldd	r23, Y+5	; 0x05
    5c9a:	c5 01       	movw	r24, r10
    5c9c:	3b d6       	rcall	.+3190   	; 0x6914 <vTaskPlaceOnEventList>
    5c9e:	c8 01       	movw	r24, r16
    5ca0:	2d de       	rcall	.-934    	; 0x58fc <prvUnlockQueue>
    5ca2:	e1 d4       	rcall	.+2498   	; 0x6666 <xTaskResumeAll>
    5ca4:	88 23       	and	r24, r24
    5ca6:	11 f0       	breq	.+4      	; 0x5cac <xQueueReceive+0xca>
    5ca8:	81 e0       	ldi	r24, 0x01	; 1
    5caa:	b2 cf       	rjmp	.-156    	; 0x5c10 <xQueueReceive+0x2e>
    5cac:	ea dc       	rcall	.-1580   	; 0x5682 <vPortYield>
    5cae:	fc cf       	rjmp	.-8      	; 0x5ca8 <xQueueReceive+0xc6>
    5cb0:	c8 01       	movw	r24, r16
    5cb2:	24 de       	rcall	.-952    	; 0x58fc <prvUnlockQueue>
    5cb4:	d8 d4       	rcall	.+2480   	; 0x6666 <xTaskResumeAll>
    5cb6:	f8 cf       	rjmp	.-16     	; 0x5ca8 <xQueueReceive+0xc6>
    5cb8:	c8 01       	movw	r24, r16
    5cba:	20 de       	rcall	.-960    	; 0x58fc <prvUnlockQueue>
    5cbc:	d4 d4       	rcall	.+2472   	; 0x6666 <xTaskResumeAll>
    5cbe:	c8 01       	movw	r24, r16
    5cc0:	a5 dd       	rcall	.-1206   	; 0x580c <prvIsQueueEmpty>
    5cc2:	88 23       	and	r24, r24
    5cc4:	89 f3       	breq	.-30     	; 0x5ca8 <xQueueReceive+0xc6>
    5cc6:	80 e0       	ldi	r24, 0x00	; 0
    5cc8:	0f 90       	pop	r0
    5cca:	0f 90       	pop	r0
    5ccc:	0f 90       	pop	r0
    5cce:	0f 90       	pop	r0
    5cd0:	0f 90       	pop	r0
    5cd2:	df 91       	pop	r29
    5cd4:	cf 91       	pop	r28
    5cd6:	1f 91       	pop	r17
    5cd8:	0f 91       	pop	r16
    5cda:	ff 90       	pop	r15
    5cdc:	df 90       	pop	r13
    5cde:	cf 90       	pop	r12
    5ce0:	bf 90       	pop	r11
    5ce2:	af 90       	pop	r10
    5ce4:	08 95       	ret

00005ce6 <xQueueSemaphoreTake>:
    5ce6:	cf 92       	push	r12
    5ce8:	df 92       	push	r13
    5cea:	ff 92       	push	r15
    5cec:	0f 93       	push	r16
    5cee:	1f 93       	push	r17
    5cf0:	cf 93       	push	r28
    5cf2:	df 93       	push	r29
    5cf4:	00 d0       	rcall	.+0      	; 0x5cf6 <xQueueSemaphoreTake+0x10>
    5cf6:	1f 92       	push	r1
    5cf8:	1f 92       	push	r1
    5cfa:	cd b7       	in	r28, 0x3d	; 61
    5cfc:	de b7       	in	r29, 0x3e	; 62
    5cfe:	8c 01       	movw	r16, r24
    5d00:	7d 83       	std	Y+5, r23	; 0x05
    5d02:	6c 83       	std	Y+4, r22	; 0x04
    5d04:	f1 2c       	mov	r15, r1
    5d06:	90 e0       	ldi	r25, 0x00	; 0
    5d08:	68 01       	movw	r12, r16
    5d0a:	81 e1       	ldi	r24, 0x11	; 17
    5d0c:	c8 0e       	add	r12, r24
    5d0e:	d1 1c       	adc	r13, r1
    5d10:	0f b6       	in	r0, 0x3f	; 63
    5d12:	f8 94       	cli
    5d14:	0f 92       	push	r0
    5d16:	d8 01       	movw	r26, r16
    5d18:	5a 96       	adiw	r26, 0x1a	; 26
    5d1a:	8c 91       	ld	r24, X
    5d1c:	5a 97       	sbiw	r26, 0x1a	; 26
    5d1e:	88 23       	and	r24, r24
    5d20:	d9 f0       	breq	.+54     	; 0x5d58 <xQueueSemaphoreTake+0x72>
    5d22:	81 50       	subi	r24, 0x01	; 1
    5d24:	5a 96       	adiw	r26, 0x1a	; 26
    5d26:	8c 93       	st	X, r24
    5d28:	5a 97       	sbiw	r26, 0x1a	; 26
    5d2a:	8d 91       	ld	r24, X+
    5d2c:	9c 91       	ld	r25, X
    5d2e:	89 2b       	or	r24, r25
    5d30:	29 f4       	brne	.+10     	; 0x5d3c <xQueueSemaphoreTake+0x56>
    5d32:	0e 94 f2 37 	call	0x6fe4	; 0x6fe4 <pvTaskIncrementMutexHeldCount>
    5d36:	f8 01       	movw	r30, r16
    5d38:	95 83       	std	Z+5, r25	; 0x05
    5d3a:	84 83       	std	Z+4, r24	; 0x04
    5d3c:	d8 01       	movw	r26, r16
    5d3e:	18 96       	adiw	r26, 0x08	; 8
    5d40:	8c 91       	ld	r24, X
    5d42:	88 23       	and	r24, r24
    5d44:	29 f0       	breq	.+10     	; 0x5d50 <xQueueSemaphoreTake+0x6a>
    5d46:	c8 01       	movw	r24, r16
    5d48:	08 96       	adiw	r24, 0x08	; 8
    5d4a:	0b d6       	rcall	.+3094   	; 0x6962 <xTaskRemoveFromEventList>
    5d4c:	81 11       	cpse	r24, r1
    5d4e:	99 dc       	rcall	.-1742   	; 0x5682 <vPortYield>
    5d50:	0f 90       	pop	r0
    5d52:	0f be       	out	0x3f, r0	; 63
    5d54:	81 e0       	ldi	r24, 0x01	; 1
    5d56:	6c c0       	rjmp	.+216    	; 0x5e30 <xQueueSemaphoreTake+0x14a>
    5d58:	2c 81       	ldd	r18, Y+4	; 0x04
    5d5a:	3d 81       	ldd	r19, Y+5	; 0x05
    5d5c:	23 2b       	or	r18, r19
    5d5e:	09 f4       	brne	.+2      	; 0x5d62 <xQueueSemaphoreTake+0x7c>
    5d60:	64 c0       	rjmp	.+200    	; 0x5e2a <xQueueSemaphoreTake+0x144>
    5d62:	91 11       	cpse	r25, r1
    5d64:	03 c0       	rjmp	.+6      	; 0x5d6c <xQueueSemaphoreTake+0x86>
    5d66:	ce 01       	movw	r24, r28
    5d68:	01 96       	adiw	r24, 0x01	; 1
    5d6a:	3b d6       	rcall	.+3190   	; 0x69e2 <vTaskInternalSetTimeOutState>
    5d6c:	0f 90       	pop	r0
    5d6e:	0f be       	out	0x3f, r0	; 63
    5d70:	c2 d3       	rcall	.+1924   	; 0x64f6 <vTaskSuspendAll>
    5d72:	0f b6       	in	r0, 0x3f	; 63
    5d74:	f8 94       	cli
    5d76:	0f 92       	push	r0
    5d78:	f8 01       	movw	r30, r16
    5d7a:	85 8d       	ldd	r24, Z+29	; 0x1d
    5d7c:	8f 3f       	cpi	r24, 0xFF	; 255
    5d7e:	09 f4       	brne	.+2      	; 0x5d82 <xQueueSemaphoreTake+0x9c>
    5d80:	15 8e       	std	Z+29, r1	; 0x1d
    5d82:	d8 01       	movw	r26, r16
    5d84:	5e 96       	adiw	r26, 0x1e	; 30
    5d86:	8c 91       	ld	r24, X
    5d88:	5e 97       	sbiw	r26, 0x1e	; 30
    5d8a:	8f 3f       	cpi	r24, 0xFF	; 255
    5d8c:	11 f4       	brne	.+4      	; 0x5d92 <xQueueSemaphoreTake+0xac>
    5d8e:	5e 96       	adiw	r26, 0x1e	; 30
    5d90:	1c 92       	st	X, r1
    5d92:	0f 90       	pop	r0
    5d94:	0f be       	out	0x3f, r0	; 63
    5d96:	be 01       	movw	r22, r28
    5d98:	6c 5f       	subi	r22, 0xFC	; 252
    5d9a:	7f 4f       	sbci	r23, 0xFF	; 255
    5d9c:	ce 01       	movw	r24, r28
    5d9e:	01 96       	adiw	r24, 0x01	; 1
    5da0:	2b d6       	rcall	.+3158   	; 0x69f8 <xTaskCheckForTimeOut>
    5da2:	81 11       	cpse	r24, r1
    5da4:	23 c0       	rjmp	.+70     	; 0x5dec <xQueueSemaphoreTake+0x106>
    5da6:	c8 01       	movw	r24, r16
    5da8:	31 dd       	rcall	.-1438   	; 0x580c <prvIsQueueEmpty>
    5daa:	88 23       	and	r24, r24
    5dac:	d9 f0       	breq	.+54     	; 0x5de4 <xQueueSemaphoreTake+0xfe>
    5dae:	f8 01       	movw	r30, r16
    5db0:	80 81       	ld	r24, Z
    5db2:	91 81       	ldd	r25, Z+1	; 0x01
    5db4:	89 2b       	or	r24, r25
    5db6:	49 f4       	brne	.+18     	; 0x5dca <xQueueSemaphoreTake+0xe4>
    5db8:	0f b6       	in	r0, 0x3f	; 63
    5dba:	f8 94       	cli
    5dbc:	0f 92       	push	r0
    5dbe:	84 81       	ldd	r24, Z+4	; 0x04
    5dc0:	95 81       	ldd	r25, Z+5	; 0x05
    5dc2:	96 d7       	rcall	.+3884   	; 0x6cf0 <xTaskPriorityInherit>
    5dc4:	f8 2e       	mov	r15, r24
    5dc6:	0f 90       	pop	r0
    5dc8:	0f be       	out	0x3f, r0	; 63
    5dca:	6c 81       	ldd	r22, Y+4	; 0x04
    5dcc:	7d 81       	ldd	r23, Y+5	; 0x05
    5dce:	c6 01       	movw	r24, r12
    5dd0:	a1 d5       	rcall	.+2882   	; 0x6914 <vTaskPlaceOnEventList>
    5dd2:	c8 01       	movw	r24, r16
    5dd4:	93 dd       	rcall	.-1242   	; 0x58fc <prvUnlockQueue>
    5dd6:	47 d4       	rcall	.+2190   	; 0x6666 <xTaskResumeAll>
    5dd8:	88 23       	and	r24, r24
    5dda:	11 f0       	breq	.+4      	; 0x5de0 <xQueueSemaphoreTake+0xfa>
    5ddc:	91 e0       	ldi	r25, 0x01	; 1
    5dde:	98 cf       	rjmp	.-208    	; 0x5d10 <xQueueSemaphoreTake+0x2a>
    5de0:	50 dc       	rcall	.-1888   	; 0x5682 <vPortYield>
    5de2:	fc cf       	rjmp	.-8      	; 0x5ddc <xQueueSemaphoreTake+0xf6>
    5de4:	c8 01       	movw	r24, r16
    5de6:	8a dd       	rcall	.-1260   	; 0x58fc <prvUnlockQueue>
    5de8:	3e d4       	rcall	.+2172   	; 0x6666 <xTaskResumeAll>
    5dea:	f8 cf       	rjmp	.-16     	; 0x5ddc <xQueueSemaphoreTake+0xf6>
    5dec:	c8 01       	movw	r24, r16
    5dee:	86 dd       	rcall	.-1268   	; 0x58fc <prvUnlockQueue>
    5df0:	3a d4       	rcall	.+2164   	; 0x6666 <xTaskResumeAll>
    5df2:	c8 01       	movw	r24, r16
    5df4:	0b dd       	rcall	.-1514   	; 0x580c <prvIsQueueEmpty>
    5df6:	88 23       	and	r24, r24
    5df8:	89 f3       	breq	.-30     	; 0x5ddc <xQueueSemaphoreTake+0xf6>
    5dfa:	ff 20       	and	r15, r15
    5dfc:	c1 f0       	breq	.+48     	; 0x5e2e <xQueueSemaphoreTake+0x148>
    5dfe:	0f b6       	in	r0, 0x3f	; 63
    5e00:	f8 94       	cli
    5e02:	0f 92       	push	r0
    5e04:	f8 01       	movw	r30, r16
    5e06:	81 89       	ldd	r24, Z+17	; 0x11
    5e08:	88 23       	and	r24, r24
    5e0a:	39 f0       	breq	.+14     	; 0x5e1a <xQueueSemaphoreTake+0x134>
    5e0c:	06 88       	ldd	r0, Z+22	; 0x16
    5e0e:	f7 89       	ldd	r31, Z+23	; 0x17
    5e10:	e0 2d       	mov	r30, r0
    5e12:	80 81       	ld	r24, Z
    5e14:	64 e0       	ldi	r22, 0x04	; 4
    5e16:	68 1b       	sub	r22, r24
    5e18:	01 c0       	rjmp	.+2      	; 0x5e1c <xQueueSemaphoreTake+0x136>
    5e1a:	60 e0       	ldi	r22, 0x00	; 0
    5e1c:	d8 01       	movw	r26, r16
    5e1e:	14 96       	adiw	r26, 0x04	; 4
    5e20:	8d 91       	ld	r24, X+
    5e22:	9c 91       	ld	r25, X
    5e24:	15 97       	sbiw	r26, 0x05	; 5
    5e26:	0e 94 15 37 	call	0x6e2a	; 0x6e2a <vTaskPriorityDisinheritAfterTimeout>
    5e2a:	0f 90       	pop	r0
    5e2c:	0f be       	out	0x3f, r0	; 63
    5e2e:	80 e0       	ldi	r24, 0x00	; 0
    5e30:	0f 90       	pop	r0
    5e32:	0f 90       	pop	r0
    5e34:	0f 90       	pop	r0
    5e36:	0f 90       	pop	r0
    5e38:	0f 90       	pop	r0
    5e3a:	df 91       	pop	r29
    5e3c:	cf 91       	pop	r28
    5e3e:	1f 91       	pop	r17
    5e40:	0f 91       	pop	r16
    5e42:	ff 90       	pop	r15
    5e44:	df 90       	pop	r13
    5e46:	cf 90       	pop	r12
    5e48:	08 95       	ret

00005e4a <xQueueReceiveFromISR>:
    5e4a:	ef 92       	push	r14
    5e4c:	ff 92       	push	r15
    5e4e:	0f 93       	push	r16
    5e50:	1f 93       	push	r17
    5e52:	cf 93       	push	r28
    5e54:	df 93       	push	r29
    5e56:	fc 01       	movw	r30, r24
    5e58:	02 8d       	ldd	r16, Z+26	; 0x1a
    5e5a:	00 23       	and	r16, r16
    5e5c:	d9 f0       	breq	.+54     	; 0x5e94 <xQueueReceiveFromISR+0x4a>
    5e5e:	7a 01       	movw	r14, r20
    5e60:	ec 01       	movw	r28, r24
    5e62:	15 8d       	ldd	r17, Z+29	; 0x1d
    5e64:	31 dd       	rcall	.-1438   	; 0x58c8 <prvCopyDataFromQueue>
    5e66:	01 50       	subi	r16, 0x01	; 1
    5e68:	0a 8f       	std	Y+26, r16	; 0x1a
    5e6a:	1f 3f       	cpi	r17, 0xFF	; 255
    5e6c:	79 f4       	brne	.+30     	; 0x5e8c <xQueueReceiveFromISR+0x42>
    5e6e:	88 85       	ldd	r24, Y+8	; 0x08
    5e70:	88 23       	and	r24, r24
    5e72:	71 f0       	breq	.+28     	; 0x5e90 <xQueueReceiveFromISR+0x46>
    5e74:	ce 01       	movw	r24, r28
    5e76:	08 96       	adiw	r24, 0x08	; 8
    5e78:	74 d5       	rcall	.+2792   	; 0x6962 <xTaskRemoveFromEventList>
    5e7a:	88 23       	and	r24, r24
    5e7c:	49 f0       	breq	.+18     	; 0x5e90 <xQueueReceiveFromISR+0x46>
    5e7e:	e1 14       	cp	r14, r1
    5e80:	f1 04       	cpc	r15, r1
    5e82:	31 f0       	breq	.+12     	; 0x5e90 <xQueueReceiveFromISR+0x46>
    5e84:	81 e0       	ldi	r24, 0x01	; 1
    5e86:	f7 01       	movw	r30, r14
    5e88:	80 83       	st	Z, r24
    5e8a:	05 c0       	rjmp	.+10     	; 0x5e96 <xQueueReceiveFromISR+0x4c>
    5e8c:	1f 5f       	subi	r17, 0xFF	; 255
    5e8e:	1d 8f       	std	Y+29, r17	; 0x1d
    5e90:	81 e0       	ldi	r24, 0x01	; 1
    5e92:	01 c0       	rjmp	.+2      	; 0x5e96 <xQueueReceiveFromISR+0x4c>
    5e94:	80 e0       	ldi	r24, 0x00	; 0
    5e96:	df 91       	pop	r29
    5e98:	cf 91       	pop	r28
    5e9a:	1f 91       	pop	r17
    5e9c:	0f 91       	pop	r16
    5e9e:	ff 90       	pop	r15
    5ea0:	ef 90       	pop	r14
    5ea2:	08 95       	ret

00005ea4 <uxQueueMessagesWaiting>:
    5ea4:	0f b6       	in	r0, 0x3f	; 63
    5ea6:	f8 94       	cli
    5ea8:	0f 92       	push	r0
    5eaa:	fc 01       	movw	r30, r24
    5eac:	82 8d       	ldd	r24, Z+26	; 0x1a
    5eae:	0f 90       	pop	r0
    5eb0:	0f be       	out	0x3f, r0	; 63
    5eb2:	08 95       	ret

00005eb4 <vQueueWaitForMessageRestricted>:
    5eb4:	cf 93       	push	r28
    5eb6:	df 93       	push	r29
    5eb8:	ec 01       	movw	r28, r24
    5eba:	0f b6       	in	r0, 0x3f	; 63
    5ebc:	f8 94       	cli
    5ebe:	0f 92       	push	r0
    5ec0:	8d 8d       	ldd	r24, Y+29	; 0x1d
    5ec2:	8f 3f       	cpi	r24, 0xFF	; 255
    5ec4:	09 f4       	brne	.+2      	; 0x5ec8 <vQueueWaitForMessageRestricted+0x14>
    5ec6:	1d 8e       	std	Y+29, r1	; 0x1d
    5ec8:	8e 8d       	ldd	r24, Y+30	; 0x1e
    5eca:	8f 3f       	cpi	r24, 0xFF	; 255
    5ecc:	09 f4       	brne	.+2      	; 0x5ed0 <vQueueWaitForMessageRestricted+0x1c>
    5ece:	1e 8e       	std	Y+30, r1	; 0x1e
    5ed0:	0f 90       	pop	r0
    5ed2:	0f be       	out	0x3f, r0	; 63
    5ed4:	8a 8d       	ldd	r24, Y+26	; 0x1a
    5ed6:	81 11       	cpse	r24, r1
    5ed8:	03 c0       	rjmp	.+6      	; 0x5ee0 <vQueueWaitForMessageRestricted+0x2c>
    5eda:	ce 01       	movw	r24, r28
    5edc:	41 96       	adiw	r24, 0x11	; 17
    5ede:	2a d5       	rcall	.+2644   	; 0x6934 <vTaskPlaceOnEventListRestricted>
    5ee0:	ce 01       	movw	r24, r28
    5ee2:	df 91       	pop	r29
    5ee4:	cf 91       	pop	r28
    5ee6:	0a cd       	rjmp	.-1516   	; 0x58fc <prvUnlockQueue>

00005ee8 <__vector_25>:
    5ee8:	1f 92       	push	r1
    5eea:	0f 92       	push	r0
    5eec:	0f b6       	in	r0, 0x3f	; 63
    5eee:	0f 92       	push	r0
    5ef0:	11 24       	eor	r1, r1
    5ef2:	0b b6       	in	r0, 0x3b	; 59
    5ef4:	0f 92       	push	r0
    5ef6:	2f 93       	push	r18
    5ef8:	3f 93       	push	r19
    5efa:	4f 93       	push	r20
    5efc:	5f 93       	push	r21
    5efe:	6f 93       	push	r22
    5f00:	7f 93       	push	r23
    5f02:	8f 93       	push	r24
    5f04:	9f 93       	push	r25
    5f06:	af 93       	push	r26
    5f08:	bf 93       	push	r27
    5f0a:	ef 93       	push	r30
    5f0c:	ff 93       	push	r31
    5f0e:	cf 93       	push	r28
    5f10:	df 93       	push	r29
    5f12:	1f 92       	push	r1
    5f14:	1f 92       	push	r1
    5f16:	cd b7       	in	r28, 0x3d	; 61
    5f18:	de b7       	in	r29, 0x3e	; 62
    5f1a:	19 82       	std	Y+1, r1	; 0x01
    5f1c:	80 91 c6 00 	lds	r24, 0x00C6	; 0x8000c6 <__TEXT_REGION_LENGTH__+0x7c00c6>
    5f20:	8a 83       	std	Y+2, r24	; 0x02
    5f22:	20 e0       	ldi	r18, 0x00	; 0
    5f24:	ae 01       	movw	r20, r28
    5f26:	4f 5f       	subi	r20, 0xFF	; 255
    5f28:	5f 4f       	sbci	r21, 0xFF	; 255
    5f2a:	be 01       	movw	r22, r28
    5f2c:	6e 5f       	subi	r22, 0xFE	; 254
    5f2e:	7f 4f       	sbci	r23, 0xFF	; 255
    5f30:	80 91 03 20 	lds	r24, 0x2003	; 0x802003 <xRxedChars>
    5f34:	90 91 04 20 	lds	r25, 0x2004	; 0x802004 <xRxedChars+0x1>
    5f38:	27 de       	rcall	.-946    	; 0x5b88 <xQueueGenericSendFromISR>
    5f3a:	89 81       	ldd	r24, Y+1	; 0x01
    5f3c:	81 11       	cpse	r24, r1
    5f3e:	a1 db       	rcall	.-2238   	; 0x5682 <vPortYield>
    5f40:	0f 90       	pop	r0
    5f42:	0f 90       	pop	r0
    5f44:	df 91       	pop	r29
    5f46:	cf 91       	pop	r28
    5f48:	ff 91       	pop	r31
    5f4a:	ef 91       	pop	r30
    5f4c:	bf 91       	pop	r27
    5f4e:	af 91       	pop	r26
    5f50:	9f 91       	pop	r25
    5f52:	8f 91       	pop	r24
    5f54:	7f 91       	pop	r23
    5f56:	6f 91       	pop	r22
    5f58:	5f 91       	pop	r21
    5f5a:	4f 91       	pop	r20
    5f5c:	3f 91       	pop	r19
    5f5e:	2f 91       	pop	r18
    5f60:	0f 90       	pop	r0
    5f62:	0b be       	out	0x3b, r0	; 59
    5f64:	0f 90       	pop	r0
    5f66:	0f be       	out	0x3f, r0	; 63
    5f68:	0f 90       	pop	r0
    5f6a:	1f 90       	pop	r1
    5f6c:	18 95       	reti

00005f6e <__vector_26>:
    5f6e:	1f 92       	push	r1
    5f70:	0f 92       	push	r0
    5f72:	0f b6       	in	r0, 0x3f	; 63
    5f74:	0f 92       	push	r0
    5f76:	11 24       	eor	r1, r1
    5f78:	0b b6       	in	r0, 0x3b	; 59
    5f7a:	0f 92       	push	r0
    5f7c:	2f 93       	push	r18
    5f7e:	3f 93       	push	r19
    5f80:	4f 93       	push	r20
    5f82:	5f 93       	push	r21
    5f84:	6f 93       	push	r22
    5f86:	7f 93       	push	r23
    5f88:	8f 93       	push	r24
    5f8a:	9f 93       	push	r25
    5f8c:	af 93       	push	r26
    5f8e:	bf 93       	push	r27
    5f90:	ef 93       	push	r30
    5f92:	ff 93       	push	r31
    5f94:	cf 93       	push	r28
    5f96:	df 93       	push	r29
    5f98:	1f 92       	push	r1
    5f9a:	1f 92       	push	r1
    5f9c:	cd b7       	in	r28, 0x3d	; 61
    5f9e:	de b7       	in	r29, 0x3e	; 62
    5fa0:	ae 01       	movw	r20, r28
    5fa2:	4f 5f       	subi	r20, 0xFF	; 255
    5fa4:	5f 4f       	sbci	r21, 0xFF	; 255
    5fa6:	be 01       	movw	r22, r28
    5fa8:	6e 5f       	subi	r22, 0xFE	; 254
    5faa:	7f 4f       	sbci	r23, 0xFF	; 255
    5fac:	80 91 01 20 	lds	r24, 0x2001	; 0x802001 <xCharsForTx>
    5fb0:	90 91 02 20 	lds	r25, 0x2002	; 0x802002 <xCharsForTx+0x1>
    5fb4:	4a df       	rcall	.-364    	; 0x5e4a <xQueueReceiveFromISR>
    5fb6:	81 30       	cpi	r24, 0x01	; 1
    5fb8:	21 f4       	brne	.+8      	; 0x5fc2 <__vector_26+0x54>
    5fba:	8a 81       	ldd	r24, Y+2	; 0x02
    5fbc:	80 93 c6 00 	sts	0x00C6, r24	; 0x8000c6 <__TEXT_REGION_LENGTH__+0x7c00c6>
    5fc0:	05 c0       	rjmp	.+10     	; 0x5fcc <__vector_26+0x5e>
    5fc2:	80 91 c1 00 	lds	r24, 0x00C1	; 0x8000c1 <__TEXT_REGION_LENGTH__+0x7c00c1>
    5fc6:	8f 7d       	andi	r24, 0xDF	; 223
    5fc8:	80 93 c1 00 	sts	0x00C1, r24	; 0x8000c1 <__TEXT_REGION_LENGTH__+0x7c00c1>
    5fcc:	0f 90       	pop	r0
    5fce:	0f 90       	pop	r0
    5fd0:	df 91       	pop	r29
    5fd2:	cf 91       	pop	r28
    5fd4:	ff 91       	pop	r31
    5fd6:	ef 91       	pop	r30
    5fd8:	bf 91       	pop	r27
    5fda:	af 91       	pop	r26
    5fdc:	9f 91       	pop	r25
    5fde:	8f 91       	pop	r24
    5fe0:	7f 91       	pop	r23
    5fe2:	6f 91       	pop	r22
    5fe4:	5f 91       	pop	r21
    5fe6:	4f 91       	pop	r20
    5fe8:	3f 91       	pop	r19
    5fea:	2f 91       	pop	r18
    5fec:	0f 90       	pop	r0
    5fee:	0b be       	out	0x3b, r0	; 59
    5ff0:	0f 90       	pop	r0
    5ff2:	0f be       	out	0x3f, r0	; 63
    5ff4:	0f 90       	pop	r0
    5ff6:	1f 90       	pop	r1
    5ff8:	18 95       	reti

00005ffa <_ZN8SPIClass5beginEv>:
    5ffa:	9f b7       	in	r25, 0x3f	; 63
    5ffc:	f8 94       	cli
    5ffe:	80 91 08 20 	lds	r24, 0x2008	; 0x802008 <_ZN8SPIClass11initializedE>
    6002:	81 11       	cpse	r24, r1
    6004:	0f c0       	rjmp	.+30     	; 0x6024 <_ZN8SPIClass5beginEv+0x2a>
    6006:	24 9a       	sbi	0x04, 4	; 4
    6008:	20 9a       	sbi	0x04, 0	; 4
    600a:	28 9a       	sbi	0x05, 0	; 5
    600c:	2c 9a       	sbi	0x05, 4	; 5
    600e:	21 9a       	sbi	0x04, 1	; 4
    6010:	22 9a       	sbi	0x04, 2	; 4
    6012:	8c b5       	in	r24, 0x2c	; 44
    6014:	80 61       	ori	r24, 0x10	; 16
    6016:	8c bd       	out	0x2c, r24	; 44
    6018:	8c b5       	in	r24, 0x2c	; 44
    601a:	80 64       	ori	r24, 0x40	; 64
    601c:	8c bd       	out	0x2c, r24	; 44
    601e:	8c b5       	in	r24, 0x2c	; 44
    6020:	83 60       	ori	r24, 0x03	; 3
    6022:	8c bd       	out	0x2c, r24	; 44
    6024:	80 91 08 20 	lds	r24, 0x2008	; 0x802008 <_ZN8SPIClass11initializedE>
    6028:	8f 5f       	subi	r24, 0xFF	; 255
    602a:	80 93 08 20 	sts	0x2008, r24	; 0x802008 <_ZN8SPIClass11initializedE>
    602e:	9f bf       	out	0x3f, r25	; 63
    6030:	08 95       	ret

00006032 <prvResetNextTaskUnblockTime>:
    6032:	e0 91 35 20 	lds	r30, 0x2035	; 0x802035 <pxDelayedTaskList>
    6036:	f0 91 36 20 	lds	r31, 0x2036	; 0x802036 <pxDelayedTaskList+0x1>
    603a:	80 81       	ld	r24, Z
    603c:	81 11       	cpse	r24, r1
    603e:	03 c0       	rjmp	.+6      	; 0x6046 <prvResetNextTaskUnblockTime+0x14>
    6040:	8f ef       	ldi	r24, 0xFF	; 255
    6042:	9f ef       	ldi	r25, 0xFF	; 255
    6044:	0c c0       	rjmp	.+24     	; 0x605e <prvResetNextTaskUnblockTime+0x2c>
    6046:	e0 91 35 20 	lds	r30, 0x2035	; 0x802035 <pxDelayedTaskList>
    604a:	f0 91 36 20 	lds	r31, 0x2036	; 0x802036 <pxDelayedTaskList+0x1>
    604e:	05 80       	ldd	r0, Z+5	; 0x05
    6050:	f6 81       	ldd	r31, Z+6	; 0x06
    6052:	e0 2d       	mov	r30, r0
    6054:	06 80       	ldd	r0, Z+6	; 0x06
    6056:	f7 81       	ldd	r31, Z+7	; 0x07
    6058:	e0 2d       	mov	r30, r0
    605a:	82 81       	ldd	r24, Z+2	; 0x02
    605c:	93 81       	ldd	r25, Z+3	; 0x03
    605e:	90 93 0d 20 	sts	0x200D, r25	; 0x80200d <xNextTaskUnblockTime+0x1>
    6062:	80 93 0c 20 	sts	0x200C, r24	; 0x80200c <xNextTaskUnblockTime>
    6066:	08 95       	ret

00006068 <prvAddCurrentTaskToDelayedList>:
    6068:	ff 92       	push	r15
    606a:	0f 93       	push	r16
    606c:	1f 93       	push	r17
    606e:	cf 93       	push	r28
    6070:	df 93       	push	r29
    6072:	ec 01       	movw	r28, r24
    6074:	f6 2e       	mov	r15, r22
    6076:	00 91 14 20 	lds	r16, 0x2014	; 0x802014 <xTickCount>
    607a:	10 91 15 20 	lds	r17, 0x2015	; 0x802015 <xTickCount+0x1>
    607e:	80 91 6d 20 	lds	r24, 0x206D	; 0x80206d <pxCurrentTCB>
    6082:	90 91 6e 20 	lds	r25, 0x206E	; 0x80206e <pxCurrentTCB+0x1>
    6086:	02 96       	adiw	r24, 0x02	; 2
    6088:	0e 94 77 24 	call	0x48ee	; 0x48ee <uxListRemove>
    608c:	cf 3f       	cpi	r28, 0xFF	; 255
    608e:	8f ef       	ldi	r24, 0xFF	; 255
    6090:	d8 07       	cpc	r29, r24
    6092:	89 f4       	brne	.+34     	; 0x60b6 <prvAddCurrentTaskToDelayedList+0x4e>
    6094:	ff 20       	and	r15, r15
    6096:	79 f0       	breq	.+30     	; 0x60b6 <prvAddCurrentTaskToDelayedList+0x4e>
    6098:	60 91 6d 20 	lds	r22, 0x206D	; 0x80206d <pxCurrentTCB>
    609c:	70 91 6e 20 	lds	r23, 0x206E	; 0x80206e <pxCurrentTCB+0x1>
    60a0:	6e 5f       	subi	r22, 0xFE	; 254
    60a2:	7f 4f       	sbci	r23, 0xFF	; 255
    60a4:	87 e1       	ldi	r24, 0x17	; 23
    60a6:	90 e2       	ldi	r25, 0x20	; 32
    60a8:	df 91       	pop	r29
    60aa:	cf 91       	pop	r28
    60ac:	1f 91       	pop	r17
    60ae:	0f 91       	pop	r16
    60b0:	ff 90       	pop	r15
    60b2:	0c 94 1e 24 	jmp	0x483c	; 0x483c <vListInsertEnd>
    60b6:	c0 0f       	add	r28, r16
    60b8:	d1 1f       	adc	r29, r17
    60ba:	e0 91 6d 20 	lds	r30, 0x206D	; 0x80206d <pxCurrentTCB>
    60be:	f0 91 6e 20 	lds	r31, 0x206E	; 0x80206e <pxCurrentTCB+0x1>
    60c2:	d3 83       	std	Z+3, r29	; 0x03
    60c4:	c2 83       	std	Z+2, r28	; 0x02
    60c6:	60 91 6d 20 	lds	r22, 0x206D	; 0x80206d <pxCurrentTCB>
    60ca:	70 91 6e 20 	lds	r23, 0x206E	; 0x80206e <pxCurrentTCB+0x1>
    60ce:	c0 17       	cp	r28, r16
    60d0:	d1 07       	cpc	r29, r17
    60d2:	68 f4       	brcc	.+26     	; 0x60ee <prvAddCurrentTaskToDelayedList+0x86>
    60d4:	80 91 33 20 	lds	r24, 0x2033	; 0x802033 <pxOverflowDelayedTaskList>
    60d8:	90 91 34 20 	lds	r25, 0x2034	; 0x802034 <pxOverflowDelayedTaskList+0x1>
    60dc:	6e 5f       	subi	r22, 0xFE	; 254
    60de:	7f 4f       	sbci	r23, 0xFF	; 255
    60e0:	df 91       	pop	r29
    60e2:	cf 91       	pop	r28
    60e4:	1f 91       	pop	r17
    60e6:	0f 91       	pop	r16
    60e8:	ff 90       	pop	r15
    60ea:	0c 94 3f 24 	jmp	0x487e	; 0x487e <vListInsert>
    60ee:	80 91 35 20 	lds	r24, 0x2035	; 0x802035 <pxDelayedTaskList>
    60f2:	90 91 36 20 	lds	r25, 0x2036	; 0x802036 <pxDelayedTaskList+0x1>
    60f6:	6e 5f       	subi	r22, 0xFE	; 254
    60f8:	7f 4f       	sbci	r23, 0xFF	; 255
    60fa:	0e 94 3f 24 	call	0x487e	; 0x487e <vListInsert>
    60fe:	80 91 0c 20 	lds	r24, 0x200C	; 0x80200c <xNextTaskUnblockTime>
    6102:	90 91 0d 20 	lds	r25, 0x200D	; 0x80200d <xNextTaskUnblockTime+0x1>
    6106:	c8 17       	cp	r28, r24
    6108:	d9 07       	cpc	r29, r25
    610a:	20 f4       	brcc	.+8      	; 0x6114 <prvAddCurrentTaskToDelayedList+0xac>
    610c:	d0 93 0d 20 	sts	0x200D, r29	; 0x80200d <xNextTaskUnblockTime+0x1>
    6110:	c0 93 0c 20 	sts	0x200C, r28	; 0x80200c <xNextTaskUnblockTime>
    6114:	df 91       	pop	r29
    6116:	cf 91       	pop	r28
    6118:	1f 91       	pop	r17
    611a:	0f 91       	pop	r16
    611c:	ff 90       	pop	r15
    611e:	08 95       	ret

00006120 <prvIdleTask>:
    6120:	80 91 20 20 	lds	r24, 0x2020	; 0x802020 <uxDeletedTasksWaitingCleanUp>
    6124:	88 23       	and	r24, r24
    6126:	09 f1       	breq	.+66     	; 0x616a <prvIdleTask+0x4a>
    6128:	0f b6       	in	r0, 0x3f	; 63
    612a:	f8 94       	cli
    612c:	0f 92       	push	r0
    612e:	e0 91 26 20 	lds	r30, 0x2026	; 0x802026 <xTasksWaitingTermination+0x5>
    6132:	f0 91 27 20 	lds	r31, 0x2027	; 0x802027 <xTasksWaitingTermination+0x6>
    6136:	c6 81       	ldd	r28, Z+6	; 0x06
    6138:	d7 81       	ldd	r29, Z+7	; 0x07
    613a:	ce 01       	movw	r24, r28
    613c:	02 96       	adiw	r24, 0x02	; 2
    613e:	0e 94 77 24 	call	0x48ee	; 0x48ee <uxListRemove>
    6142:	80 91 16 20 	lds	r24, 0x2016	; 0x802016 <uxCurrentNumberOfTasks>
    6146:	81 50       	subi	r24, 0x01	; 1
    6148:	80 93 16 20 	sts	0x2016, r24	; 0x802016 <uxCurrentNumberOfTasks>
    614c:	80 91 20 20 	lds	r24, 0x2020	; 0x802020 <uxDeletedTasksWaitingCleanUp>
    6150:	81 50       	subi	r24, 0x01	; 1
    6152:	80 93 20 20 	sts	0x2020, r24	; 0x802020 <uxDeletedTasksWaitingCleanUp>
    6156:	0f 90       	pop	r0
    6158:	0f be       	out	0x3f, r0	; 63
    615a:	8f 89       	ldd	r24, Y+23	; 0x17
    615c:	98 8d       	ldd	r25, Y+24	; 0x18
    615e:	0e 94 19 23 	call	0x4632	; 0x4632 <vPortFree>
    6162:	ce 01       	movw	r24, r28
    6164:	0e 94 19 23 	call	0x4632	; 0x4632 <vPortFree>
    6168:	db cf       	rjmp	.-74     	; 0x6120 <prvIdleTask>
    616a:	80 91 49 20 	lds	r24, 0x2049	; 0x802049 <pxReadyTasksLists>
    616e:	82 30       	cpi	r24, 0x02	; 2
    6170:	b8 f2       	brcs	.-82     	; 0x6120 <prvIdleTask>
    6172:	87 da       	rcall	.-2802   	; 0x5682 <vPortYield>
    6174:	d5 cf       	rjmp	.-86     	; 0x6120 <prvIdleTask>

00006176 <xTaskCreate>:
    6176:	5f 92       	push	r5
    6178:	6f 92       	push	r6
    617a:	7f 92       	push	r7
    617c:	8f 92       	push	r8
    617e:	9f 92       	push	r9
    6180:	af 92       	push	r10
    6182:	bf 92       	push	r11
    6184:	cf 92       	push	r12
    6186:	df 92       	push	r13
    6188:	ef 92       	push	r14
    618a:	ff 92       	push	r15
    618c:	0f 93       	push	r16
    618e:	1f 93       	push	r17
    6190:	cf 93       	push	r28
    6192:	df 93       	push	r29
    6194:	3c 01       	movw	r6, r24
    6196:	6b 01       	movw	r12, r22
    6198:	5a 01       	movw	r10, r20
    619a:	49 01       	movw	r8, r18
    619c:	50 2e       	mov	r5, r16
    619e:	ca 01       	movw	r24, r20
    61a0:	0e 94 54 23 	call	0x46a8	; 0x46a8 <pvPortMalloc>
    61a4:	8c 01       	movw	r16, r24
    61a6:	89 2b       	or	r24, r25
    61a8:	09 f4       	brne	.+2      	; 0x61ac <xTaskCreate+0x36>
    61aa:	e9 c0       	rjmp	.+466    	; 0x637e <xTaskCreate+0x208>
    61ac:	8c e3       	ldi	r24, 0x3C	; 60
    61ae:	90 e0       	ldi	r25, 0x00	; 0
    61b0:	0e 94 54 23 	call	0x46a8	; 0x46a8 <pvPortMalloc>
    61b4:	ec 01       	movw	r28, r24
    61b6:	89 2b       	or	r24, r25
    61b8:	c9 f0       	breq	.+50     	; 0x61ec <xTaskCreate+0x76>
    61ba:	18 8f       	std	Y+24, r17	; 0x18
    61bc:	0f 8b       	std	Y+23, r16	; 0x17
    61be:	a5 01       	movw	r20, r10
    61c0:	65 ea       	ldi	r22, 0xA5	; 165
    61c2:	70 e0       	ldi	r23, 0x00	; 0
    61c4:	c8 01       	movw	r24, r16
    61c6:	0e 94 ec 3b 	call	0x77d8	; 0x77d8 <memset>
    61ca:	21 e0       	ldi	r18, 0x01	; 1
    61cc:	a2 1a       	sub	r10, r18
    61ce:	b1 08       	sbc	r11, r1
    61d0:	8f 89       	ldd	r24, Y+23	; 0x17
    61d2:	98 8d       	ldd	r25, Y+24	; 0x18
    61d4:	a8 0e       	add	r10, r24
    61d6:	b9 1e       	adc	r11, r25
    61d8:	c1 14       	cp	r12, r1
    61da:	d1 04       	cpc	r13, r1
    61dc:	c9 f0       	breq	.+50     	; 0x6210 <xTaskCreate+0x9a>
    61de:	be 01       	movw	r22, r28
    61e0:	67 5e       	subi	r22, 0xE7	; 231
    61e2:	7f 4f       	sbci	r23, 0xFF	; 255
    61e4:	f6 01       	movw	r30, r12
    61e6:	c6 01       	movw	r24, r12
    61e8:	40 96       	adiw	r24, 0x10	; 16
    61ea:	07 c0       	rjmp	.+14     	; 0x61fa <xTaskCreate+0x84>
    61ec:	c8 01       	movw	r24, r16
    61ee:	0e 94 19 23 	call	0x4632	; 0x4632 <vPortFree>
    61f2:	c5 c0       	rjmp	.+394    	; 0x637e <xTaskCreate+0x208>
    61f4:	8e 17       	cp	r24, r30
    61f6:	9f 07       	cpc	r25, r31
    61f8:	49 f0       	breq	.+18     	; 0x620c <xTaskCreate+0x96>
    61fa:	9f 01       	movw	r18, r30
    61fc:	41 91       	ld	r20, Z+
    61fe:	db 01       	movw	r26, r22
    6200:	4d 93       	st	X+, r20
    6202:	bd 01       	movw	r22, r26
    6204:	d9 01       	movw	r26, r18
    6206:	2c 91       	ld	r18, X
    6208:	21 11       	cpse	r18, r1
    620a:	f4 cf       	rjmp	.-24     	; 0x61f4 <xTaskCreate+0x7e>
    620c:	18 a6       	std	Y+40, r1	; 0x28
    620e:	01 c0       	rjmp	.+2      	; 0x6212 <xTaskCreate+0x9c>
    6210:	19 8e       	std	Y+25, r1	; 0x19
    6212:	05 2d       	mov	r16, r5
    6214:	04 30       	cpi	r16, 0x04	; 4
    6216:	08 f0       	brcs	.+2      	; 0x621a <xTaskCreate+0xa4>
    6218:	03 e0       	ldi	r16, 0x03	; 3
    621a:	0e 8b       	std	Y+22, r16	; 0x16
    621c:	0b a7       	std	Y+43, r16	; 0x2b
    621e:	1c a6       	std	Y+44, r1	; 0x2c
    6220:	6e 01       	movw	r12, r28
    6222:	b2 e0       	ldi	r27, 0x02	; 2
    6224:	cb 0e       	add	r12, r27
    6226:	d1 1c       	adc	r13, r1
    6228:	c6 01       	movw	r24, r12
    622a:	0e 94 1a 24 	call	0x4834	; 0x4834 <vListInitialiseItem>
    622e:	ce 01       	movw	r24, r28
    6230:	0c 96       	adiw	r24, 0x0c	; 12
    6232:	0e 94 1a 24 	call	0x4834	; 0x4834 <vListInitialiseItem>
    6236:	d9 87       	std	Y+9, r29	; 0x09
    6238:	c8 87       	std	Y+8, r28	; 0x08
    623a:	84 e0       	ldi	r24, 0x04	; 4
    623c:	90 e0       	ldi	r25, 0x00	; 0
    623e:	80 1b       	sub	r24, r16
    6240:	91 09       	sbc	r25, r1
    6242:	9d 87       	std	Y+13, r25	; 0x0d
    6244:	8c 87       	std	Y+12, r24	; 0x0c
    6246:	db 8b       	std	Y+19, r29	; 0x13
    6248:	ca 8b       	std	Y+18, r28	; 0x12
    624a:	1e a6       	std	Y+46, r1	; 0x2e
    624c:	1d a6       	std	Y+45, r1	; 0x2d
    624e:	18 aa       	std	Y+48, r1	; 0x30
    6250:	1f a6       	std	Y+47, r1	; 0x2f
    6252:	1a aa       	std	Y+50, r1	; 0x32
    6254:	19 aa       	std	Y+49, r1	; 0x31
    6256:	1c aa       	std	Y+52, r1	; 0x34
    6258:	1b aa       	std	Y+51, r1	; 0x33
    625a:	1e aa       	std	Y+54, r1	; 0x36
    625c:	1d aa       	std	Y+53, r1	; 0x35
    625e:	1f aa       	std	Y+55, r1	; 0x37
    6260:	18 ae       	std	Y+56, r1	; 0x38
    6262:	19 ae       	std	Y+57, r1	; 0x39
    6264:	1a ae       	std	Y+58, r1	; 0x3a
    6266:	1b ae       	std	Y+59, r1	; 0x3b
    6268:	a4 01       	movw	r20, r8
    626a:	b3 01       	movw	r22, r6
    626c:	c5 01       	movw	r24, r10
    626e:	58 d9       	rcall	.-3408   	; 0x5520 <pxPortInitialiseStack>
    6270:	99 83       	std	Y+1, r25	; 0x01
    6272:	88 83       	st	Y, r24
    6274:	e1 14       	cp	r14, r1
    6276:	f1 04       	cpc	r15, r1
    6278:	19 f0       	breq	.+6      	; 0x6280 <xTaskCreate+0x10a>
    627a:	f7 01       	movw	r30, r14
    627c:	d1 83       	std	Z+1, r29	; 0x01
    627e:	c0 83       	st	Z, r28
    6280:	0f b6       	in	r0, 0x3f	; 63
    6282:	f8 94       	cli
    6284:	0f 92       	push	r0
    6286:	80 91 16 20 	lds	r24, 0x2016	; 0x802016 <uxCurrentNumberOfTasks>
    628a:	8f 5f       	subi	r24, 0xFF	; 255
    628c:	80 93 16 20 	sts	0x2016, r24	; 0x802016 <uxCurrentNumberOfTasks>
    6290:	80 91 6d 20 	lds	r24, 0x206D	; 0x80206d <pxCurrentTCB>
    6294:	90 91 6e 20 	lds	r25, 0x206E	; 0x80206e <pxCurrentTCB+0x1>
    6298:	89 2b       	or	r24, r25
    629a:	d1 f5       	brne	.+116    	; 0x6310 <xTaskCreate+0x19a>
    629c:	d0 93 6e 20 	sts	0x206E, r29	; 0x80206e <pxCurrentTCB+0x1>
    62a0:	c0 93 6d 20 	sts	0x206D, r28	; 0x80206d <pxCurrentTCB>
    62a4:	80 91 16 20 	lds	r24, 0x2016	; 0x802016 <uxCurrentNumberOfTasks>
    62a8:	81 30       	cpi	r24, 0x01	; 1
    62aa:	09 f0       	breq	.+2      	; 0x62ae <xTaskCreate+0x138>
    62ac:	41 c0       	rjmp	.+130    	; 0x6330 <xTaskCreate+0x1ba>
    62ae:	89 e4       	ldi	r24, 0x49	; 73
    62b0:	90 e2       	ldi	r25, 0x20	; 32
    62b2:	0e 94 0c 24 	call	0x4818	; 0x4818 <vListInitialise>
    62b6:	82 e5       	ldi	r24, 0x52	; 82
    62b8:	90 e2       	ldi	r25, 0x20	; 32
    62ba:	0e 94 0c 24 	call	0x4818	; 0x4818 <vListInitialise>
    62be:	8b e5       	ldi	r24, 0x5B	; 91
    62c0:	90 e2       	ldi	r25, 0x20	; 32
    62c2:	0e 94 0c 24 	call	0x4818	; 0x4818 <vListInitialise>
    62c6:	84 e6       	ldi	r24, 0x64	; 100
    62c8:	90 e2       	ldi	r25, 0x20	; 32
    62ca:	0e 94 0c 24 	call	0x4818	; 0x4818 <vListInitialise>
    62ce:	80 e4       	ldi	r24, 0x40	; 64
    62d0:	90 e2       	ldi	r25, 0x20	; 32
    62d2:	0e 94 0c 24 	call	0x4818	; 0x4818 <vListInitialise>
    62d6:	87 e3       	ldi	r24, 0x37	; 55
    62d8:	90 e2       	ldi	r25, 0x20	; 32
    62da:	0e 94 0c 24 	call	0x4818	; 0x4818 <vListInitialise>
    62de:	8a e2       	ldi	r24, 0x2A	; 42
    62e0:	90 e2       	ldi	r25, 0x20	; 32
    62e2:	0e 94 0c 24 	call	0x4818	; 0x4818 <vListInitialise>
    62e6:	81 e2       	ldi	r24, 0x21	; 33
    62e8:	90 e2       	ldi	r25, 0x20	; 32
    62ea:	0e 94 0c 24 	call	0x4818	; 0x4818 <vListInitialise>
    62ee:	87 e1       	ldi	r24, 0x17	; 23
    62f0:	90 e2       	ldi	r25, 0x20	; 32
    62f2:	0e 94 0c 24 	call	0x4818	; 0x4818 <vListInitialise>
    62f6:	80 e4       	ldi	r24, 0x40	; 64
    62f8:	90 e2       	ldi	r25, 0x20	; 32
    62fa:	90 93 36 20 	sts	0x2036, r25	; 0x802036 <pxDelayedTaskList+0x1>
    62fe:	80 93 35 20 	sts	0x2035, r24	; 0x802035 <pxDelayedTaskList>
    6302:	87 e3       	ldi	r24, 0x37	; 55
    6304:	90 e2       	ldi	r25, 0x20	; 32
    6306:	90 93 34 20 	sts	0x2034, r25	; 0x802034 <pxOverflowDelayedTaskList+0x1>
    630a:	80 93 33 20 	sts	0x2033, r24	; 0x802033 <pxOverflowDelayedTaskList>
    630e:	10 c0       	rjmp	.+32     	; 0x6330 <xTaskCreate+0x1ba>
    6310:	80 91 12 20 	lds	r24, 0x2012	; 0x802012 <xSchedulerRunning>
    6314:	81 11       	cpse	r24, r1
    6316:	0c c0       	rjmp	.+24     	; 0x6330 <xTaskCreate+0x1ba>
    6318:	e0 91 6d 20 	lds	r30, 0x206D	; 0x80206d <pxCurrentTCB>
    631c:	f0 91 6e 20 	lds	r31, 0x206E	; 0x80206e <pxCurrentTCB+0x1>
    6320:	96 89       	ldd	r25, Z+22	; 0x16
    6322:	8e 89       	ldd	r24, Y+22	; 0x16
    6324:	89 17       	cp	r24, r25
    6326:	20 f0       	brcs	.+8      	; 0x6330 <xTaskCreate+0x1ba>
    6328:	d0 93 6e 20 	sts	0x206E, r29	; 0x80206e <pxCurrentTCB+0x1>
    632c:	c0 93 6d 20 	sts	0x206D, r28	; 0x80206d <pxCurrentTCB>
    6330:	80 91 0e 20 	lds	r24, 0x200E	; 0x80200e <uxTaskNumber>
    6334:	8f 5f       	subi	r24, 0xFF	; 255
    6336:	80 93 0e 20 	sts	0x200E, r24	; 0x80200e <uxTaskNumber>
    633a:	89 a7       	std	Y+41, r24	; 0x29
    633c:	8e 89       	ldd	r24, Y+22	; 0x16
    633e:	90 91 13 20 	lds	r25, 0x2013	; 0x802013 <uxTopReadyPriority>
    6342:	98 17       	cp	r25, r24
    6344:	10 f4       	brcc	.+4      	; 0x634a <xTaskCreate+0x1d4>
    6346:	80 93 13 20 	sts	0x2013, r24	; 0x802013 <uxTopReadyPriority>
    634a:	f9 e0       	ldi	r31, 0x09	; 9
    634c:	8f 9f       	mul	r24, r31
    634e:	c0 01       	movw	r24, r0
    6350:	11 24       	eor	r1, r1
    6352:	b6 01       	movw	r22, r12
    6354:	87 5b       	subi	r24, 0xB7	; 183
    6356:	9f 4d       	sbci	r25, 0xDF	; 223
    6358:	0e 94 1e 24 	call	0x483c	; 0x483c <vListInsertEnd>
    635c:	0f 90       	pop	r0
    635e:	0f be       	out	0x3f, r0	; 63
    6360:	80 91 12 20 	lds	r24, 0x2012	; 0x802012 <xSchedulerRunning>
    6364:	88 23       	and	r24, r24
    6366:	49 f0       	breq	.+18     	; 0x637a <xTaskCreate+0x204>
    6368:	e0 91 6d 20 	lds	r30, 0x206D	; 0x80206d <pxCurrentTCB>
    636c:	f0 91 6e 20 	lds	r31, 0x206E	; 0x80206e <pxCurrentTCB+0x1>
    6370:	96 89       	ldd	r25, Z+22	; 0x16
    6372:	8e 89       	ldd	r24, Y+22	; 0x16
    6374:	98 17       	cp	r25, r24
    6376:	08 f4       	brcc	.+2      	; 0x637a <xTaskCreate+0x204>
    6378:	84 d9       	rcall	.-3320   	; 0x5682 <vPortYield>
    637a:	81 e0       	ldi	r24, 0x01	; 1
    637c:	01 c0       	rjmp	.+2      	; 0x6380 <xTaskCreate+0x20a>
    637e:	8f ef       	ldi	r24, 0xFF	; 255
    6380:	df 91       	pop	r29
    6382:	cf 91       	pop	r28
    6384:	1f 91       	pop	r17
    6386:	0f 91       	pop	r16
    6388:	ff 90       	pop	r15
    638a:	ef 90       	pop	r14
    638c:	df 90       	pop	r13
    638e:	cf 90       	pop	r12
    6390:	bf 90       	pop	r11
    6392:	af 90       	pop	r10
    6394:	9f 90       	pop	r9
    6396:	8f 90       	pop	r8
    6398:	7f 90       	pop	r7
    639a:	6f 90       	pop	r6
    639c:	5f 90       	pop	r5
    639e:	08 95       	ret

000063a0 <eTaskGetState>:
    63a0:	fc 01       	movw	r30, r24
    63a2:	80 91 6d 20 	lds	r24, 0x206D	; 0x80206d <pxCurrentTCB>
    63a6:	90 91 6e 20 	lds	r25, 0x206E	; 0x80206e <pxCurrentTCB+0x1>
    63aa:	e8 17       	cp	r30, r24
    63ac:	f9 07       	cpc	r31, r25
    63ae:	51 f1       	breq	.+84     	; 0x6404 <eTaskGetState+0x64>
    63b0:	0f b6       	in	r0, 0x3f	; 63
    63b2:	f8 94       	cli
    63b4:	0f 92       	push	r0
    63b6:	22 85       	ldd	r18, Z+10	; 0x0a
    63b8:	33 85       	ldd	r19, Z+11	; 0x0b
    63ba:	40 91 35 20 	lds	r20, 0x2035	; 0x802035 <pxDelayedTaskList>
    63be:	50 91 36 20 	lds	r21, 0x2036	; 0x802036 <pxDelayedTaskList+0x1>
    63c2:	80 91 33 20 	lds	r24, 0x2033	; 0x802033 <pxOverflowDelayedTaskList>
    63c6:	90 91 34 20 	lds	r25, 0x2034	; 0x802034 <pxOverflowDelayedTaskList+0x1>
    63ca:	0f 90       	pop	r0
    63cc:	0f be       	out	0x3f, r0	; 63
    63ce:	24 17       	cp	r18, r20
    63d0:	35 07       	cpc	r19, r21
    63d2:	d1 f0       	breq	.+52     	; 0x6408 <eTaskGetState+0x68>
    63d4:	28 17       	cp	r18, r24
    63d6:	39 07       	cpc	r19, r25
    63d8:	b9 f0       	breq	.+46     	; 0x6408 <eTaskGetState+0x68>
    63da:	80 e2       	ldi	r24, 0x20	; 32
    63dc:	27 31       	cpi	r18, 0x17	; 23
    63de:	38 07       	cpc	r19, r24
    63e0:	49 f4       	brne	.+18     	; 0x63f4 <eTaskGetState+0x54>
    63e2:	84 89       	ldd	r24, Z+20	; 0x14
    63e4:	95 89       	ldd	r25, Z+21	; 0x15
    63e6:	89 2b       	or	r24, r25
    63e8:	79 f4       	brne	.+30     	; 0x6408 <eTaskGetState+0x68>
    63ea:	83 ad       	ldd	r24, Z+59	; 0x3b
    63ec:	81 30       	cpi	r24, 0x01	; 1
    63ee:	61 f0       	breq	.+24     	; 0x6408 <eTaskGetState+0x68>
    63f0:	83 e0       	ldi	r24, 0x03	; 3
    63f2:	08 95       	ret
    63f4:	80 e2       	ldi	r24, 0x20	; 32
    63f6:	21 32       	cpi	r18, 0x21	; 33
    63f8:	38 07       	cpc	r19, r24
    63fa:	41 f0       	breq	.+16     	; 0x640c <eTaskGetState+0x6c>
    63fc:	23 2b       	or	r18, r19
    63fe:	31 f0       	breq	.+12     	; 0x640c <eTaskGetState+0x6c>
    6400:	81 e0       	ldi	r24, 0x01	; 1
    6402:	08 95       	ret
    6404:	80 e0       	ldi	r24, 0x00	; 0
    6406:	08 95       	ret
    6408:	82 e0       	ldi	r24, 0x02	; 2
    640a:	08 95       	ret
    640c:	84 e0       	ldi	r24, 0x04	; 4
    640e:	08 95       	ret

00006410 <xTaskResumeFromISR>:
    6410:	ef 92       	push	r14
    6412:	ff 92       	push	r15
    6414:	1f 93       	push	r17
    6416:	cf 93       	push	r28
    6418:	df 93       	push	r29
    641a:	ec 01       	movw	r28, r24
    641c:	8a 85       	ldd	r24, Y+10	; 0x0a
    641e:	9b 85       	ldd	r25, Y+11	; 0x0b
    6420:	87 51       	subi	r24, 0x17	; 23
    6422:	90 42       	sbci	r25, 0x20	; 32
    6424:	99 f4       	brne	.+38     	; 0x644c <xTaskResumeFromISR+0x3c>
    6426:	8c 89       	ldd	r24, Y+20	; 0x14
    6428:	9d 89       	ldd	r25, Y+21	; 0x15
    642a:	20 e2       	ldi	r18, 0x20	; 32
    642c:	8a 32       	cpi	r24, 0x2A	; 42
    642e:	92 07       	cpc	r25, r18
    6430:	69 f0       	breq	.+26     	; 0x644c <xTaskResumeFromISR+0x3c>
    6432:	89 2b       	or	r24, r25
    6434:	59 f4       	brne	.+22     	; 0x644c <xTaskResumeFromISR+0x3c>
    6436:	80 91 09 20 	lds	r24, 0x2009	; 0x802009 <uxSchedulerSuspended>
    643a:	88 23       	and	r24, r24
    643c:	49 f0       	breq	.+18     	; 0x6450 <xTaskResumeFromISR+0x40>
    643e:	be 01       	movw	r22, r28
    6440:	64 5f       	subi	r22, 0xF4	; 244
    6442:	7f 4f       	sbci	r23, 0xFF	; 255
    6444:	8a e2       	ldi	r24, 0x2A	; 42
    6446:	90 e2       	ldi	r25, 0x20	; 32
    6448:	0e 94 1e 24 	call	0x483c	; 0x483c <vListInsertEnd>
    644c:	10 e0       	ldi	r17, 0x00	; 0
    644e:	21 c0       	rjmp	.+66     	; 0x6492 <xTaskResumeFromISR+0x82>
    6450:	e0 91 6d 20 	lds	r30, 0x206D	; 0x80206d <pxCurrentTCB>
    6454:	f0 91 6e 20 	lds	r31, 0x206E	; 0x80206e <pxCurrentTCB+0x1>
    6458:	11 e0       	ldi	r17, 0x01	; 1
    645a:	9e 89       	ldd	r25, Y+22	; 0x16
    645c:	86 89       	ldd	r24, Z+22	; 0x16
    645e:	98 17       	cp	r25, r24
    6460:	08 f4       	brcc	.+2      	; 0x6464 <xTaskResumeFromISR+0x54>
    6462:	10 e0       	ldi	r17, 0x00	; 0
    6464:	7e 01       	movw	r14, r28
    6466:	82 e0       	ldi	r24, 0x02	; 2
    6468:	e8 0e       	add	r14, r24
    646a:	f1 1c       	adc	r15, r1
    646c:	c7 01       	movw	r24, r14
    646e:	0e 94 77 24 	call	0x48ee	; 0x48ee <uxListRemove>
    6472:	8e 89       	ldd	r24, Y+22	; 0x16
    6474:	90 91 13 20 	lds	r25, 0x2013	; 0x802013 <uxTopReadyPriority>
    6478:	98 17       	cp	r25, r24
    647a:	10 f4       	brcc	.+4      	; 0x6480 <xTaskResumeFromISR+0x70>
    647c:	80 93 13 20 	sts	0x2013, r24	; 0x802013 <uxTopReadyPriority>
    6480:	29 e0       	ldi	r18, 0x09	; 9
    6482:	82 9f       	mul	r24, r18
    6484:	c0 01       	movw	r24, r0
    6486:	11 24       	eor	r1, r1
    6488:	b7 01       	movw	r22, r14
    648a:	87 5b       	subi	r24, 0xB7	; 183
    648c:	9f 4d       	sbci	r25, 0xDF	; 223
    648e:	0e 94 1e 24 	call	0x483c	; 0x483c <vListInsertEnd>
    6492:	81 2f       	mov	r24, r17
    6494:	df 91       	pop	r29
    6496:	cf 91       	pop	r28
    6498:	1f 91       	pop	r17
    649a:	ff 90       	pop	r15
    649c:	ef 90       	pop	r14
    649e:	08 95       	ret

000064a0 <vTaskStartScheduler>:
    64a0:	ef 92       	push	r14
    64a2:	ff 92       	push	r15
    64a4:	0f 93       	push	r16
    64a6:	8a e0       	ldi	r24, 0x0A	; 10
    64a8:	e8 2e       	mov	r14, r24
    64aa:	80 e2       	ldi	r24, 0x20	; 32
    64ac:	f8 2e       	mov	r15, r24
    64ae:	00 e0       	ldi	r16, 0x00	; 0
    64b0:	20 e0       	ldi	r18, 0x00	; 0
    64b2:	30 e0       	ldi	r19, 0x00	; 0
    64b4:	44 e6       	ldi	r20, 0x64	; 100
    64b6:	50 e0       	ldi	r21, 0x00	; 0
    64b8:	69 ef       	ldi	r22, 0xF9	; 249
    64ba:	72 e0       	ldi	r23, 0x02	; 2
    64bc:	80 e9       	ldi	r24, 0x90	; 144
    64be:	90 e3       	ldi	r25, 0x30	; 48
    64c0:	5a de       	rcall	.-844    	; 0x6176 <xTaskCreate>
    64c2:	81 30       	cpi	r24, 0x01	; 1
    64c4:	a1 f4       	brne	.+40     	; 0x64ee <vTaskStartScheduler+0x4e>
    64c6:	f3 d5       	rcall	.+3046   	; 0x70ae <xTimerCreateTimerTask>
    64c8:	81 30       	cpi	r24, 0x01	; 1
    64ca:	89 f4       	brne	.+34     	; 0x64ee <vTaskStartScheduler+0x4e>
    64cc:	f8 94       	cli
    64ce:	2f ef       	ldi	r18, 0xFF	; 255
    64d0:	3f ef       	ldi	r19, 0xFF	; 255
    64d2:	30 93 0d 20 	sts	0x200D, r19	; 0x80200d <xNextTaskUnblockTime+0x1>
    64d6:	20 93 0c 20 	sts	0x200C, r18	; 0x80200c <xNextTaskUnblockTime>
    64da:	80 93 12 20 	sts	0x2012, r24	; 0x802012 <xSchedulerRunning>
    64de:	10 92 15 20 	sts	0x2015, r1	; 0x802015 <xTickCount+0x1>
    64e2:	10 92 14 20 	sts	0x2014, r1	; 0x802014 <xTickCount>
    64e6:	0f 91       	pop	r16
    64e8:	ff 90       	pop	r15
    64ea:	ef 90       	pop	r14
    64ec:	8b c8       	rjmp	.-3818   	; 0x5604 <xPortStartScheduler>
    64ee:	0f 91       	pop	r16
    64f0:	ff 90       	pop	r15
    64f2:	ef 90       	pop	r14
    64f4:	08 95       	ret

000064f6 <vTaskSuspendAll>:
    64f6:	80 91 09 20 	lds	r24, 0x2009	; 0x802009 <uxSchedulerSuspended>
    64fa:	8f 5f       	subi	r24, 0xFF	; 255
    64fc:	80 93 09 20 	sts	0x2009, r24	; 0x802009 <uxSchedulerSuspended>
    6500:	08 95       	ret

00006502 <xTaskGetTickCount>:
    6502:	0f b6       	in	r0, 0x3f	; 63
    6504:	f8 94       	cli
    6506:	0f 92       	push	r0
    6508:	80 91 14 20 	lds	r24, 0x2014	; 0x802014 <xTickCount>
    650c:	90 91 15 20 	lds	r25, 0x2015	; 0x802015 <xTickCount+0x1>
    6510:	0f 90       	pop	r0
    6512:	0f be       	out	0x3f, r0	; 63
    6514:	08 95       	ret

00006516 <uxTaskGetNumberOfTasks>:
    6516:	80 91 16 20 	lds	r24, 0x2016	; 0x802016 <uxCurrentNumberOfTasks>
    651a:	08 95       	ret

0000651c <pcTaskGetName>:
    651c:	00 97       	sbiw	r24, 0x00	; 0
    651e:	21 f4       	brne	.+8      	; 0x6528 <pcTaskGetName+0xc>
    6520:	80 91 6d 20 	lds	r24, 0x206D	; 0x80206d <pxCurrentTCB>
    6524:	90 91 6e 20 	lds	r25, 0x206E	; 0x80206e <pxCurrentTCB+0x1>
    6528:	49 96       	adiw	r24, 0x19	; 25
    652a:	08 95       	ret

0000652c <xTaskIncrementTick>:
    652c:	cf 92       	push	r12
    652e:	df 92       	push	r13
    6530:	ef 92       	push	r14
    6532:	ff 92       	push	r15
    6534:	0f 93       	push	r16
    6536:	1f 93       	push	r17
    6538:	cf 93       	push	r28
    653a:	df 93       	push	r29
    653c:	80 91 09 20 	lds	r24, 0x2009	; 0x802009 <uxSchedulerSuspended>
    6540:	81 11       	cpse	r24, r1
    6542:	7b c0       	rjmp	.+246    	; 0x663a <xTaskIncrementTick+0x10e>
    6544:	c0 91 14 20 	lds	r28, 0x2014	; 0x802014 <xTickCount>
    6548:	d0 91 15 20 	lds	r29, 0x2015	; 0x802015 <xTickCount+0x1>
    654c:	21 96       	adiw	r28, 0x01	; 1
    654e:	d0 93 15 20 	sts	0x2015, r29	; 0x802015 <xTickCount+0x1>
    6552:	c0 93 14 20 	sts	0x2014, r28	; 0x802014 <xTickCount>
    6556:	20 97       	sbiw	r28, 0x00	; 0
    6558:	b1 f4       	brne	.+44     	; 0x6586 <xTaskIncrementTick+0x5a>
    655a:	80 91 35 20 	lds	r24, 0x2035	; 0x802035 <pxDelayedTaskList>
    655e:	90 91 36 20 	lds	r25, 0x2036	; 0x802036 <pxDelayedTaskList+0x1>
    6562:	20 91 33 20 	lds	r18, 0x2033	; 0x802033 <pxOverflowDelayedTaskList>
    6566:	30 91 34 20 	lds	r19, 0x2034	; 0x802034 <pxOverflowDelayedTaskList+0x1>
    656a:	30 93 36 20 	sts	0x2036, r19	; 0x802036 <pxDelayedTaskList+0x1>
    656e:	20 93 35 20 	sts	0x2035, r18	; 0x802035 <pxDelayedTaskList>
    6572:	90 93 34 20 	sts	0x2034, r25	; 0x802034 <pxOverflowDelayedTaskList+0x1>
    6576:	80 93 33 20 	sts	0x2033, r24	; 0x802033 <pxOverflowDelayedTaskList>
    657a:	80 91 0f 20 	lds	r24, 0x200F	; 0x80200f <xNumOfOverflows>
    657e:	8f 5f       	subi	r24, 0xFF	; 255
    6580:	80 93 0f 20 	sts	0x200F, r24	; 0x80200f <xNumOfOverflows>
    6584:	56 dd       	rcall	.-1364   	; 0x6032 <prvResetNextTaskUnblockTime>
    6586:	80 91 0c 20 	lds	r24, 0x200C	; 0x80200c <xNextTaskUnblockTime>
    658a:	90 91 0d 20 	lds	r25, 0x200D	; 0x80200d <xNextTaskUnblockTime+0x1>
    658e:	f1 2c       	mov	r15, r1
    6590:	c8 17       	cp	r28, r24
    6592:	d9 07       	cpc	r29, r25
    6594:	08 f4       	brcc	.+2      	; 0x6598 <xTaskIncrementTick+0x6c>
    6596:	57 c0       	rjmp	.+174    	; 0x6646 <xTaskIncrementTick+0x11a>
    6598:	89 e0       	ldi	r24, 0x09	; 9
    659a:	e8 2e       	mov	r14, r24
    659c:	e0 91 35 20 	lds	r30, 0x2035	; 0x802035 <pxDelayedTaskList>
    65a0:	f0 91 36 20 	lds	r31, 0x2036	; 0x802036 <pxDelayedTaskList+0x1>
    65a4:	80 81       	ld	r24, Z
    65a6:	81 11       	cpse	r24, r1
    65a8:	03 c0       	rjmp	.+6      	; 0x65b0 <xTaskIncrementTick+0x84>
    65aa:	8f ef       	ldi	r24, 0xFF	; 255
    65ac:	9f ef       	ldi	r25, 0xFF	; 255
    65ae:	11 c0       	rjmp	.+34     	; 0x65d2 <xTaskIncrementTick+0xa6>
    65b0:	e0 91 35 20 	lds	r30, 0x2035	; 0x802035 <pxDelayedTaskList>
    65b4:	f0 91 36 20 	lds	r31, 0x2036	; 0x802036 <pxDelayedTaskList+0x1>
    65b8:	05 80       	ldd	r0, Z+5	; 0x05
    65ba:	f6 81       	ldd	r31, Z+6	; 0x06
    65bc:	e0 2d       	mov	r30, r0
    65be:	06 81       	ldd	r16, Z+6	; 0x06
    65c0:	17 81       	ldd	r17, Z+7	; 0x07
    65c2:	d8 01       	movw	r26, r16
    65c4:	12 96       	adiw	r26, 0x02	; 2
    65c6:	8d 91       	ld	r24, X+
    65c8:	9c 91       	ld	r25, X
    65ca:	13 97       	sbiw	r26, 0x03	; 3
    65cc:	c8 17       	cp	r28, r24
    65ce:	d9 07       	cpc	r29, r25
    65d0:	28 f4       	brcc	.+10     	; 0x65dc <xTaskIncrementTick+0xb0>
    65d2:	90 93 0d 20 	sts	0x200D, r25	; 0x80200d <xNextTaskUnblockTime+0x1>
    65d6:	80 93 0c 20 	sts	0x200C, r24	; 0x80200c <xNextTaskUnblockTime>
    65da:	35 c0       	rjmp	.+106    	; 0x6646 <xTaskIncrementTick+0x11a>
    65dc:	68 01       	movw	r12, r16
    65de:	b2 e0       	ldi	r27, 0x02	; 2
    65e0:	cb 0e       	add	r12, r27
    65e2:	d1 1c       	adc	r13, r1
    65e4:	c6 01       	movw	r24, r12
    65e6:	0e 94 77 24 	call	0x48ee	; 0x48ee <uxListRemove>
    65ea:	f8 01       	movw	r30, r16
    65ec:	84 89       	ldd	r24, Z+20	; 0x14
    65ee:	95 89       	ldd	r25, Z+21	; 0x15
    65f0:	89 2b       	or	r24, r25
    65f2:	21 f0       	breq	.+8      	; 0x65fc <xTaskIncrementTick+0xd0>
    65f4:	c8 01       	movw	r24, r16
    65f6:	0c 96       	adiw	r24, 0x0c	; 12
    65f8:	0e 94 77 24 	call	0x48ee	; 0x48ee <uxListRemove>
    65fc:	d8 01       	movw	r26, r16
    65fe:	56 96       	adiw	r26, 0x16	; 22
    6600:	8c 91       	ld	r24, X
    6602:	90 91 13 20 	lds	r25, 0x2013	; 0x802013 <uxTopReadyPriority>
    6606:	98 17       	cp	r25, r24
    6608:	10 f4       	brcc	.+4      	; 0x660e <xTaskIncrementTick+0xe2>
    660a:	80 93 13 20 	sts	0x2013, r24	; 0x802013 <uxTopReadyPriority>
    660e:	e8 9e       	mul	r14, r24
    6610:	c0 01       	movw	r24, r0
    6612:	11 24       	eor	r1, r1
    6614:	b6 01       	movw	r22, r12
    6616:	87 5b       	subi	r24, 0xB7	; 183
    6618:	9f 4d       	sbci	r25, 0xDF	; 223
    661a:	0e 94 1e 24 	call	0x483c	; 0x483c <vListInsertEnd>
    661e:	e0 91 6d 20 	lds	r30, 0x206D	; 0x80206d <pxCurrentTCB>
    6622:	f0 91 6e 20 	lds	r31, 0x206E	; 0x80206e <pxCurrentTCB+0x1>
    6626:	d8 01       	movw	r26, r16
    6628:	56 96       	adiw	r26, 0x16	; 22
    662a:	9c 91       	ld	r25, X
    662c:	86 89       	ldd	r24, Z+22	; 0x16
    662e:	98 17       	cp	r25, r24
    6630:	08 f4       	brcc	.+2      	; 0x6634 <xTaskIncrementTick+0x108>
    6632:	b4 cf       	rjmp	.-152    	; 0x659c <xTaskIncrementTick+0x70>
    6634:	ff 24       	eor	r15, r15
    6636:	f3 94       	inc	r15
    6638:	b1 cf       	rjmp	.-158    	; 0x659c <xTaskIncrementTick+0x70>
    663a:	80 91 11 20 	lds	r24, 0x2011	; 0x802011 <uxPendedTicks>
    663e:	8f 5f       	subi	r24, 0xFF	; 255
    6640:	80 93 11 20 	sts	0x2011, r24	; 0x802011 <uxPendedTicks>
    6644:	f1 2c       	mov	r15, r1
    6646:	80 91 10 20 	lds	r24, 0x2010	; 0x802010 <xYieldPending>
    664a:	88 23       	and	r24, r24
    664c:	11 f0       	breq	.+4      	; 0x6652 <xTaskIncrementTick+0x126>
    664e:	ff 24       	eor	r15, r15
    6650:	f3 94       	inc	r15
    6652:	8f 2d       	mov	r24, r15
    6654:	df 91       	pop	r29
    6656:	cf 91       	pop	r28
    6658:	1f 91       	pop	r17
    665a:	0f 91       	pop	r16
    665c:	ff 90       	pop	r15
    665e:	ef 90       	pop	r14
    6660:	df 90       	pop	r13
    6662:	cf 90       	pop	r12
    6664:	08 95       	ret

00006666 <xTaskResumeAll>:
    6666:	ef 92       	push	r14
    6668:	ff 92       	push	r15
    666a:	0f 93       	push	r16
    666c:	1f 93       	push	r17
    666e:	cf 93       	push	r28
    6670:	df 93       	push	r29
    6672:	0f b6       	in	r0, 0x3f	; 63
    6674:	f8 94       	cli
    6676:	0f 92       	push	r0
    6678:	80 91 09 20 	lds	r24, 0x2009	; 0x802009 <uxSchedulerSuspended>
    667c:	81 50       	subi	r24, 0x01	; 1
    667e:	80 93 09 20 	sts	0x2009, r24	; 0x802009 <uxSchedulerSuspended>
    6682:	80 91 09 20 	lds	r24, 0x2009	; 0x802009 <uxSchedulerSuspended>
    6686:	88 23       	and	r24, r24
    6688:	11 f0       	breq	.+4      	; 0x668e <xTaskResumeAll+0x28>
    668a:	80 e0       	ldi	r24, 0x00	; 0
    668c:	50 c0       	rjmp	.+160    	; 0x672e <xTaskResumeAll+0xc8>
    668e:	80 91 16 20 	lds	r24, 0x2016	; 0x802016 <uxCurrentNumberOfTasks>
    6692:	88 23       	and	r24, r24
    6694:	d1 f3       	breq	.-12     	; 0x668a <xTaskResumeAll+0x24>
    6696:	c0 e0       	ldi	r28, 0x00	; 0
    6698:	d0 e0       	ldi	r29, 0x00	; 0
    669a:	89 e0       	ldi	r24, 0x09	; 9
    669c:	f8 2e       	mov	r15, r24
    669e:	ee 24       	eor	r14, r14
    66a0:	e3 94       	inc	r14
    66a2:	80 91 2a 20 	lds	r24, 0x202A	; 0x80202a <xPendingReadyList>
    66a6:	88 23       	and	r24, r24
    66a8:	51 f1       	breq	.+84     	; 0x66fe <xTaskResumeAll+0x98>
    66aa:	e0 91 2f 20 	lds	r30, 0x202F	; 0x80202f <xPendingReadyList+0x5>
    66ae:	f0 91 30 20 	lds	r31, 0x2030	; 0x802030 <xPendingReadyList+0x6>
    66b2:	c6 81       	ldd	r28, Z+6	; 0x06
    66b4:	d7 81       	ldd	r29, Z+7	; 0x07
    66b6:	ce 01       	movw	r24, r28
    66b8:	0c 96       	adiw	r24, 0x0c	; 12
    66ba:	0e 94 77 24 	call	0x48ee	; 0x48ee <uxListRemove>
    66be:	8e 01       	movw	r16, r28
    66c0:	0e 5f       	subi	r16, 0xFE	; 254
    66c2:	1f 4f       	sbci	r17, 0xFF	; 255
    66c4:	c8 01       	movw	r24, r16
    66c6:	0e 94 77 24 	call	0x48ee	; 0x48ee <uxListRemove>
    66ca:	8e 89       	ldd	r24, Y+22	; 0x16
    66cc:	90 91 13 20 	lds	r25, 0x2013	; 0x802013 <uxTopReadyPriority>
    66d0:	98 17       	cp	r25, r24
    66d2:	10 f4       	brcc	.+4      	; 0x66d8 <xTaskResumeAll+0x72>
    66d4:	80 93 13 20 	sts	0x2013, r24	; 0x802013 <uxTopReadyPriority>
    66d8:	f8 9e       	mul	r15, r24
    66da:	c0 01       	movw	r24, r0
    66dc:	11 24       	eor	r1, r1
    66de:	b8 01       	movw	r22, r16
    66e0:	87 5b       	subi	r24, 0xB7	; 183
    66e2:	9f 4d       	sbci	r25, 0xDF	; 223
    66e4:	0e 94 1e 24 	call	0x483c	; 0x483c <vListInsertEnd>
    66e8:	e0 91 6d 20 	lds	r30, 0x206D	; 0x80206d <pxCurrentTCB>
    66ec:	f0 91 6e 20 	lds	r31, 0x206E	; 0x80206e <pxCurrentTCB+0x1>
    66f0:	9e 89       	ldd	r25, Y+22	; 0x16
    66f2:	86 89       	ldd	r24, Z+22	; 0x16
    66f4:	98 17       	cp	r25, r24
    66f6:	a8 f2       	brcs	.-86     	; 0x66a2 <xTaskResumeAll+0x3c>
    66f8:	e0 92 10 20 	sts	0x2010, r14	; 0x802010 <xYieldPending>
    66fc:	d2 cf       	rjmp	.-92     	; 0x66a2 <xTaskResumeAll+0x3c>
    66fe:	cd 2b       	or	r28, r29
    6700:	09 f0       	breq	.+2      	; 0x6704 <xTaskResumeAll+0x9e>
    6702:	97 dc       	rcall	.-1746   	; 0x6032 <prvResetNextTaskUnblockTime>
    6704:	c0 91 11 20 	lds	r28, 0x2011	; 0x802011 <uxPendedTicks>
    6708:	cc 23       	and	r28, r28
    670a:	49 f0       	breq	.+18     	; 0x671e <xTaskResumeAll+0xb8>
    670c:	d1 e0       	ldi	r29, 0x01	; 1
    670e:	0e df       	rcall	.-484    	; 0x652c <xTaskIncrementTick>
    6710:	81 11       	cpse	r24, r1
    6712:	d0 93 10 20 	sts	0x2010, r29	; 0x802010 <xYieldPending>
    6716:	c1 50       	subi	r28, 0x01	; 1
    6718:	d1 f7       	brne	.-12     	; 0x670e <xTaskResumeAll+0xa8>
    671a:	10 92 11 20 	sts	0x2011, r1	; 0x802011 <uxPendedTicks>
    671e:	80 91 10 20 	lds	r24, 0x2010	; 0x802010 <xYieldPending>
    6722:	88 23       	and	r24, r24
    6724:	09 f4       	brne	.+2      	; 0x6728 <xTaskResumeAll+0xc2>
    6726:	b1 cf       	rjmp	.-158    	; 0x668a <xTaskResumeAll+0x24>
    6728:	0e 94 41 2b 	call	0x5682	; 0x5682 <vPortYield>
    672c:	81 e0       	ldi	r24, 0x01	; 1
    672e:	0f 90       	pop	r0
    6730:	0f be       	out	0x3f, r0	; 63
    6732:	df 91       	pop	r29
    6734:	cf 91       	pop	r28
    6736:	1f 91       	pop	r17
    6738:	0f 91       	pop	r16
    673a:	ff 90       	pop	r15
    673c:	ef 90       	pop	r14
    673e:	08 95       	ret

00006740 <vTaskDelay>:
    6740:	cf 93       	push	r28
    6742:	df 93       	push	r29
    6744:	ec 01       	movw	r28, r24
    6746:	89 2b       	or	r24, r25
    6748:	19 f4       	brne	.+6      	; 0x6750 <vTaskDelay+0x10>
    674a:	0e 94 41 2b 	call	0x5682	; 0x5682 <vPortYield>
    674e:	07 c0       	rjmp	.+14     	; 0x675e <vTaskDelay+0x1e>
    6750:	d2 de       	rcall	.-604    	; 0x64f6 <vTaskSuspendAll>
    6752:	60 e0       	ldi	r22, 0x00	; 0
    6754:	ce 01       	movw	r24, r28
    6756:	88 dc       	rcall	.-1776   	; 0x6068 <prvAddCurrentTaskToDelayedList>
    6758:	86 df       	rcall	.-244    	; 0x6666 <xTaskResumeAll>
    675a:	88 23       	and	r24, r24
    675c:	b1 f3       	breq	.-20     	; 0x674a <vTaskDelay+0xa>
    675e:	df 91       	pop	r29
    6760:	cf 91       	pop	r28
    6762:	08 95       	ret

00006764 <vTaskSwitchContext>:
    6764:	80 91 09 20 	lds	r24, 0x2009	; 0x802009 <uxSchedulerSuspended>
    6768:	88 23       	and	r24, r24
    676a:	21 f0       	breq	.+8      	; 0x6774 <vTaskSwitchContext+0x10>
    676c:	81 e0       	ldi	r24, 0x01	; 1
    676e:	80 93 10 20 	sts	0x2010, r24	; 0x802010 <xYieldPending>
    6772:	08 95       	ret
    6774:	10 92 10 20 	sts	0x2010, r1	; 0x802010 <xYieldPending>
    6778:	e0 91 6d 20 	lds	r30, 0x206D	; 0x80206d <pxCurrentTCB>
    677c:	f0 91 6e 20 	lds	r31, 0x206E	; 0x80206e <pxCurrentTCB+0x1>
    6780:	07 88       	ldd	r0, Z+23	; 0x17
    6782:	f0 8d       	ldd	r31, Z+24	; 0x18
    6784:	e0 2d       	mov	r30, r0
    6786:	80 81       	ld	r24, Z
    6788:	91 81       	ldd	r25, Z+1	; 0x01
    678a:	a2 81       	ldd	r26, Z+2	; 0x02
    678c:	b3 81       	ldd	r27, Z+3	; 0x03
    678e:	85 3a       	cpi	r24, 0xA5	; 165
    6790:	95 4a       	sbci	r25, 0xA5	; 165
    6792:	a5 4a       	sbci	r26, 0xA5	; 165
    6794:	b5 4a       	sbci	r27, 0xA5	; 165
    6796:	d9 f4       	brne	.+54     	; 0x67ce <vTaskSwitchContext+0x6a>
    6798:	84 81       	ldd	r24, Z+4	; 0x04
    679a:	95 81       	ldd	r25, Z+5	; 0x05
    679c:	a6 81       	ldd	r26, Z+6	; 0x06
    679e:	b7 81       	ldd	r27, Z+7	; 0x07
    67a0:	85 3a       	cpi	r24, 0xA5	; 165
    67a2:	95 4a       	sbci	r25, 0xA5	; 165
    67a4:	a5 4a       	sbci	r26, 0xA5	; 165
    67a6:	b5 4a       	sbci	r27, 0xA5	; 165
    67a8:	91 f4       	brne	.+36     	; 0x67ce <vTaskSwitchContext+0x6a>
    67aa:	80 85       	ldd	r24, Z+8	; 0x08
    67ac:	91 85       	ldd	r25, Z+9	; 0x09
    67ae:	a2 85       	ldd	r26, Z+10	; 0x0a
    67b0:	b3 85       	ldd	r27, Z+11	; 0x0b
    67b2:	85 3a       	cpi	r24, 0xA5	; 165
    67b4:	95 4a       	sbci	r25, 0xA5	; 165
    67b6:	a5 4a       	sbci	r26, 0xA5	; 165
    67b8:	b5 4a       	sbci	r27, 0xA5	; 165
    67ba:	49 f4       	brne	.+18     	; 0x67ce <vTaskSwitchContext+0x6a>
    67bc:	84 85       	ldd	r24, Z+12	; 0x0c
    67be:	95 85       	ldd	r25, Z+13	; 0x0d
    67c0:	a6 85       	ldd	r26, Z+14	; 0x0e
    67c2:	b7 85       	ldd	r27, Z+15	; 0x0f
    67c4:	85 3a       	cpi	r24, 0xA5	; 165
    67c6:	95 4a       	sbci	r25, 0xA5	; 165
    67c8:	a5 4a       	sbci	r26, 0xA5	; 165
    67ca:	b5 4a       	sbci	r27, 0xA5	; 165
    67cc:	b1 f0       	breq	.+44     	; 0x67fa <vTaskSwitchContext+0x96>
    67ce:	80 91 6d 20 	lds	r24, 0x206D	; 0x80206d <pxCurrentTCB>
    67d2:	90 91 6e 20 	lds	r25, 0x206E	; 0x80206e <pxCurrentTCB+0x1>
    67d6:	20 91 6d 20 	lds	r18, 0x206D	; 0x80206d <pxCurrentTCB>
    67da:	30 91 6e 20 	lds	r19, 0x206E	; 0x80206e <pxCurrentTCB+0x1>
    67de:	49 96       	adiw	r24, 0x19	; 25
    67e0:	9f 93       	push	r25
    67e2:	8f 93       	push	r24
    67e4:	8e ef       	ldi	r24, 0xFE	; 254
    67e6:	92 e0       	ldi	r25, 0x02	; 2
    67e8:	9f 93       	push	r25
    67ea:	8f 93       	push	r24
    67ec:	0e 94 6c 3c 	call	0x78d8	; 0x78d8 <printf>
    67f0:	0f 90       	pop	r0
    67f2:	0f 90       	pop	r0
    67f4:	0f 90       	pop	r0
    67f6:	0f 90       	pop	r0
    67f8:	ff cf       	rjmp	.-2      	; 0x67f8 <vTaskSwitchContext+0x94>
    67fa:	80 91 13 20 	lds	r24, 0x2013	; 0x802013 <uxTopReadyPriority>
    67fe:	69 e0       	ldi	r22, 0x09	; 9
    6800:	48 2f       	mov	r20, r24
    6802:	50 e0       	ldi	r21, 0x00	; 0
    6804:	64 9f       	mul	r22, r20
    6806:	90 01       	movw	r18, r0
    6808:	65 9f       	mul	r22, r21
    680a:	30 0d       	add	r19, r0
    680c:	11 24       	eor	r1, r1
    680e:	f9 01       	movw	r30, r18
    6810:	e7 5b       	subi	r30, 0xB7	; 183
    6812:	ff 4d       	sbci	r31, 0xDF	; 223
    6814:	90 81       	ld	r25, Z
    6816:	91 11       	cpse	r25, r1
    6818:	02 c0       	rjmp	.+4      	; 0x681e <vTaskSwitchContext+0xba>
    681a:	81 50       	subi	r24, 0x01	; 1
    681c:	f1 cf       	rjmp	.-30     	; 0x6800 <vTaskSwitchContext+0x9c>
    681e:	a1 81       	ldd	r26, Z+1	; 0x01
    6820:	b2 81       	ldd	r27, Z+2	; 0x02
    6822:	12 96       	adiw	r26, 0x02	; 2
    6824:	0d 90       	ld	r0, X+
    6826:	bc 91       	ld	r27, X
    6828:	a0 2d       	mov	r26, r0
    682a:	b2 83       	std	Z+2, r27	; 0x02
    682c:	a1 83       	std	Z+1, r26	; 0x01
    682e:	24 5b       	subi	r18, 0xB4	; 180
    6830:	3f 4d       	sbci	r19, 0xDF	; 223
    6832:	a2 17       	cp	r26, r18
    6834:	b3 07       	cpc	r27, r19
    6836:	31 f4       	brne	.+12     	; 0x6844 <vTaskSwitchContext+0xe0>
    6838:	12 96       	adiw	r26, 0x02	; 2
    683a:	2d 91       	ld	r18, X+
    683c:	3c 91       	ld	r19, X
    683e:	13 97       	sbiw	r26, 0x03	; 3
    6840:	32 83       	std	Z+2, r19	; 0x02
    6842:	21 83       	std	Z+1, r18	; 0x01
    6844:	99 e0       	ldi	r25, 0x09	; 9
    6846:	94 9f       	mul	r25, r20
    6848:	f0 01       	movw	r30, r0
    684a:	95 9f       	mul	r25, r21
    684c:	f0 0d       	add	r31, r0
    684e:	11 24       	eor	r1, r1
    6850:	e7 5b       	subi	r30, 0xB7	; 183
    6852:	ff 4d       	sbci	r31, 0xDF	; 223
    6854:	01 80       	ldd	r0, Z+1	; 0x01
    6856:	f2 81       	ldd	r31, Z+2	; 0x02
    6858:	e0 2d       	mov	r30, r0
    685a:	26 81       	ldd	r18, Z+6	; 0x06
    685c:	37 81       	ldd	r19, Z+7	; 0x07
    685e:	30 93 6e 20 	sts	0x206E, r19	; 0x80206e <pxCurrentTCB+0x1>
    6862:	20 93 6d 20 	sts	0x206D, r18	; 0x80206d <pxCurrentTCB>
    6866:	80 93 13 20 	sts	0x2013, r24	; 0x802013 <uxTopReadyPriority>
    686a:	08 95       	ret

0000686c <vTaskSuspend>:
    686c:	0f 93       	push	r16
    686e:	1f 93       	push	r17
    6870:	cf 93       	push	r28
    6872:	df 93       	push	r29
    6874:	ec 01       	movw	r28, r24
    6876:	0f b6       	in	r0, 0x3f	; 63
    6878:	f8 94       	cli
    687a:	0f 92       	push	r0
    687c:	89 2b       	or	r24, r25
    687e:	21 f4       	brne	.+8      	; 0x6888 <vTaskSuspend+0x1c>
    6880:	c0 91 6d 20 	lds	r28, 0x206D	; 0x80206d <pxCurrentTCB>
    6884:	d0 91 6e 20 	lds	r29, 0x206E	; 0x80206e <pxCurrentTCB+0x1>
    6888:	8e 01       	movw	r16, r28
    688a:	0e 5f       	subi	r16, 0xFE	; 254
    688c:	1f 4f       	sbci	r17, 0xFF	; 255
    688e:	c8 01       	movw	r24, r16
    6890:	0e 94 77 24 	call	0x48ee	; 0x48ee <uxListRemove>
    6894:	8c 89       	ldd	r24, Y+20	; 0x14
    6896:	9d 89       	ldd	r25, Y+21	; 0x15
    6898:	89 2b       	or	r24, r25
    689a:	21 f0       	breq	.+8      	; 0x68a4 <vTaskSuspend+0x38>
    689c:	ce 01       	movw	r24, r28
    689e:	0c 96       	adiw	r24, 0x0c	; 12
    68a0:	0e 94 77 24 	call	0x48ee	; 0x48ee <uxListRemove>
    68a4:	b8 01       	movw	r22, r16
    68a6:	87 e1       	ldi	r24, 0x17	; 23
    68a8:	90 e2       	ldi	r25, 0x20	; 32
    68aa:	0e 94 1e 24 	call	0x483c	; 0x483c <vListInsertEnd>
    68ae:	8b ad       	ldd	r24, Y+59	; 0x3b
    68b0:	81 30       	cpi	r24, 0x01	; 1
    68b2:	09 f4       	brne	.+2      	; 0x68b6 <vTaskSuspend+0x4a>
    68b4:	1b ae       	std	Y+59, r1	; 0x3b
    68b6:	0f 90       	pop	r0
    68b8:	0f be       	out	0x3f, r0	; 63
    68ba:	80 91 12 20 	lds	r24, 0x2012	; 0x802012 <xSchedulerRunning>
    68be:	88 23       	and	r24, r24
    68c0:	31 f0       	breq	.+12     	; 0x68ce <vTaskSuspend+0x62>
    68c2:	0f b6       	in	r0, 0x3f	; 63
    68c4:	f8 94       	cli
    68c6:	0f 92       	push	r0
    68c8:	b4 db       	rcall	.-2200   	; 0x6032 <prvResetNextTaskUnblockTime>
    68ca:	0f 90       	pop	r0
    68cc:	0f be       	out	0x3f, r0	; 63
    68ce:	80 91 6d 20 	lds	r24, 0x206D	; 0x80206d <pxCurrentTCB>
    68d2:	90 91 6e 20 	lds	r25, 0x206E	; 0x80206e <pxCurrentTCB+0x1>
    68d6:	c8 17       	cp	r28, r24
    68d8:	d9 07       	cpc	r29, r25
    68da:	b9 f4       	brne	.+46     	; 0x690a <vTaskSuspend+0x9e>
    68dc:	80 91 12 20 	lds	r24, 0x2012	; 0x802012 <xSchedulerRunning>
    68e0:	88 23       	and	r24, r24
    68e2:	19 f0       	breq	.+6      	; 0x68ea <vTaskSuspend+0x7e>
    68e4:	0e 94 41 2b 	call	0x5682	; 0x5682 <vPortYield>
    68e8:	10 c0       	rjmp	.+32     	; 0x690a <vTaskSuspend+0x9e>
    68ea:	90 91 17 20 	lds	r25, 0x2017	; 0x802017 <xSuspendedTaskList>
    68ee:	80 91 16 20 	lds	r24, 0x2016	; 0x802016 <uxCurrentNumberOfTasks>
    68f2:	98 13       	cpse	r25, r24
    68f4:	05 c0       	rjmp	.+10     	; 0x6900 <vTaskSuspend+0x94>
    68f6:	10 92 6e 20 	sts	0x206E, r1	; 0x80206e <pxCurrentTCB+0x1>
    68fa:	10 92 6d 20 	sts	0x206D, r1	; 0x80206d <pxCurrentTCB>
    68fe:	05 c0       	rjmp	.+10     	; 0x690a <vTaskSuspend+0x9e>
    6900:	df 91       	pop	r29
    6902:	cf 91       	pop	r28
    6904:	1f 91       	pop	r17
    6906:	0f 91       	pop	r16
    6908:	2d cf       	rjmp	.-422    	; 0x6764 <vTaskSwitchContext>
    690a:	df 91       	pop	r29
    690c:	cf 91       	pop	r28
    690e:	1f 91       	pop	r17
    6910:	0f 91       	pop	r16
    6912:	08 95       	ret

00006914 <vTaskPlaceOnEventList>:
    6914:	cf 93       	push	r28
    6916:	df 93       	push	r29
    6918:	eb 01       	movw	r28, r22
    691a:	60 91 6d 20 	lds	r22, 0x206D	; 0x80206d <pxCurrentTCB>
    691e:	70 91 6e 20 	lds	r23, 0x206E	; 0x80206e <pxCurrentTCB+0x1>
    6922:	64 5f       	subi	r22, 0xF4	; 244
    6924:	7f 4f       	sbci	r23, 0xFF	; 255
    6926:	0e 94 3f 24 	call	0x487e	; 0x487e <vListInsert>
    692a:	61 e0       	ldi	r22, 0x01	; 1
    692c:	ce 01       	movw	r24, r28
    692e:	df 91       	pop	r29
    6930:	cf 91       	pop	r28
    6932:	9a cb       	rjmp	.-2252   	; 0x6068 <prvAddCurrentTaskToDelayedList>

00006934 <vTaskPlaceOnEventListRestricted>:
    6934:	1f 93       	push	r17
    6936:	cf 93       	push	r28
    6938:	df 93       	push	r29
    693a:	eb 01       	movw	r28, r22
    693c:	14 2f       	mov	r17, r20
    693e:	60 91 6d 20 	lds	r22, 0x206D	; 0x80206d <pxCurrentTCB>
    6942:	70 91 6e 20 	lds	r23, 0x206E	; 0x80206e <pxCurrentTCB+0x1>
    6946:	64 5f       	subi	r22, 0xF4	; 244
    6948:	7f 4f       	sbci	r23, 0xFF	; 255
    694a:	0e 94 1e 24 	call	0x483c	; 0x483c <vListInsertEnd>
    694e:	11 23       	and	r17, r17
    6950:	11 f0       	breq	.+4      	; 0x6956 <vTaskPlaceOnEventListRestricted+0x22>
    6952:	cf ef       	ldi	r28, 0xFF	; 255
    6954:	df ef       	ldi	r29, 0xFF	; 255
    6956:	61 2f       	mov	r22, r17
    6958:	ce 01       	movw	r24, r28
    695a:	df 91       	pop	r29
    695c:	cf 91       	pop	r28
    695e:	1f 91       	pop	r17
    6960:	83 cb       	rjmp	.-2298   	; 0x6068 <prvAddCurrentTaskToDelayedList>

00006962 <xTaskRemoveFromEventList>:
    6962:	0f 93       	push	r16
    6964:	1f 93       	push	r17
    6966:	cf 93       	push	r28
    6968:	df 93       	push	r29
    696a:	dc 01       	movw	r26, r24
    696c:	15 96       	adiw	r26, 0x05	; 5
    696e:	ed 91       	ld	r30, X+
    6970:	fc 91       	ld	r31, X
    6972:	16 97       	sbiw	r26, 0x06	; 6
    6974:	c6 81       	ldd	r28, Z+6	; 0x06
    6976:	d7 81       	ldd	r29, Z+7	; 0x07
    6978:	8e 01       	movw	r16, r28
    697a:	04 5f       	subi	r16, 0xF4	; 244
    697c:	1f 4f       	sbci	r17, 0xFF	; 255
    697e:	c8 01       	movw	r24, r16
    6980:	0e 94 77 24 	call	0x48ee	; 0x48ee <uxListRemove>
    6984:	80 91 09 20 	lds	r24, 0x2009	; 0x802009 <uxSchedulerSuspended>
    6988:	81 11       	cpse	r24, r1
    698a:	14 c0       	rjmp	.+40     	; 0x69b4 <xTaskRemoveFromEventList+0x52>
    698c:	0a 50       	subi	r16, 0x0A	; 10
    698e:	11 09       	sbc	r17, r1
    6990:	c8 01       	movw	r24, r16
    6992:	0e 94 77 24 	call	0x48ee	; 0x48ee <uxListRemove>
    6996:	8e 89       	ldd	r24, Y+22	; 0x16
    6998:	90 91 13 20 	lds	r25, 0x2013	; 0x802013 <uxTopReadyPriority>
    699c:	98 17       	cp	r25, r24
    699e:	10 f4       	brcc	.+4      	; 0x69a4 <xTaskRemoveFromEventList+0x42>
    69a0:	80 93 13 20 	sts	0x2013, r24	; 0x802013 <uxTopReadyPriority>
    69a4:	b9 e0       	ldi	r27, 0x09	; 9
    69a6:	8b 9f       	mul	r24, r27
    69a8:	c0 01       	movw	r24, r0
    69aa:	11 24       	eor	r1, r1
    69ac:	b8 01       	movw	r22, r16
    69ae:	87 5b       	subi	r24, 0xB7	; 183
    69b0:	9f 4d       	sbci	r25, 0xDF	; 223
    69b2:	03 c0       	rjmp	.+6      	; 0x69ba <xTaskRemoveFromEventList+0x58>
    69b4:	b8 01       	movw	r22, r16
    69b6:	8a e2       	ldi	r24, 0x2A	; 42
    69b8:	90 e2       	ldi	r25, 0x20	; 32
    69ba:	0e 94 1e 24 	call	0x483c	; 0x483c <vListInsertEnd>
    69be:	e0 91 6d 20 	lds	r30, 0x206D	; 0x80206d <pxCurrentTCB>
    69c2:	f0 91 6e 20 	lds	r31, 0x206E	; 0x80206e <pxCurrentTCB+0x1>
    69c6:	9e 89       	ldd	r25, Y+22	; 0x16
    69c8:	86 89       	ldd	r24, Z+22	; 0x16
    69ca:	89 17       	cp	r24, r25
    69cc:	20 f4       	brcc	.+8      	; 0x69d6 <xTaskRemoveFromEventList+0x74>
    69ce:	81 e0       	ldi	r24, 0x01	; 1
    69d0:	80 93 10 20 	sts	0x2010, r24	; 0x802010 <xYieldPending>
    69d4:	01 c0       	rjmp	.+2      	; 0x69d8 <xTaskRemoveFromEventList+0x76>
    69d6:	80 e0       	ldi	r24, 0x00	; 0
    69d8:	df 91       	pop	r29
    69da:	cf 91       	pop	r28
    69dc:	1f 91       	pop	r17
    69de:	0f 91       	pop	r16
    69e0:	08 95       	ret

000069e2 <vTaskInternalSetTimeOutState>:
    69e2:	20 91 0f 20 	lds	r18, 0x200F	; 0x80200f <xNumOfOverflows>
    69e6:	fc 01       	movw	r30, r24
    69e8:	20 83       	st	Z, r18
    69ea:	20 91 14 20 	lds	r18, 0x2014	; 0x802014 <xTickCount>
    69ee:	30 91 15 20 	lds	r19, 0x2015	; 0x802015 <xTickCount+0x1>
    69f2:	32 83       	std	Z+2, r19	; 0x02
    69f4:	21 83       	std	Z+1, r18	; 0x01
    69f6:	08 95       	ret

000069f8 <xTaskCheckForTimeOut>:
    69f8:	cf 93       	push	r28
    69fa:	df 93       	push	r29
    69fc:	0f b6       	in	r0, 0x3f	; 63
    69fe:	f8 94       	cli
    6a00:	0f 92       	push	r0
    6a02:	40 91 14 20 	lds	r20, 0x2014	; 0x802014 <xTickCount>
    6a06:	50 91 15 20 	lds	r21, 0x2015	; 0x802015 <xTickCount+0x1>
    6a0a:	db 01       	movw	r26, r22
    6a0c:	2d 91       	ld	r18, X+
    6a0e:	3c 91       	ld	r19, X
    6a10:	2f 3f       	cpi	r18, 0xFF	; 255
    6a12:	bf ef       	ldi	r27, 0xFF	; 255
    6a14:	3b 07       	cpc	r19, r27
    6a16:	d1 f0       	breq	.+52     	; 0x6a4c <xTaskCheckForTimeOut+0x54>
    6a18:	ec 01       	movw	r28, r24
    6a1a:	e9 81       	ldd	r30, Y+1	; 0x01
    6a1c:	fa 81       	ldd	r31, Y+2	; 0x02
    6a1e:	a0 91 0f 20 	lds	r26, 0x200F	; 0x80200f <xNumOfOverflows>
    6a22:	b8 81       	ld	r27, Y
    6a24:	ba 17       	cp	r27, r26
    6a26:	19 f0       	breq	.+6      	; 0x6a2e <xTaskCheckForTimeOut+0x36>
    6a28:	4e 17       	cp	r20, r30
    6a2a:	5f 07       	cpc	r21, r31
    6a2c:	88 f4       	brcc	.+34     	; 0x6a50 <xTaskCheckForTimeOut+0x58>
    6a2e:	4e 1b       	sub	r20, r30
    6a30:	5f 0b       	sbc	r21, r31
    6a32:	fb 01       	movw	r30, r22
    6a34:	42 17       	cp	r20, r18
    6a36:	53 07       	cpc	r21, r19
    6a38:	30 f4       	brcc	.+12     	; 0x6a46 <xTaskCheckForTimeOut+0x4e>
    6a3a:	24 1b       	sub	r18, r20
    6a3c:	35 0b       	sbc	r19, r21
    6a3e:	31 83       	std	Z+1, r19	; 0x01
    6a40:	20 83       	st	Z, r18
    6a42:	cf df       	rcall	.-98     	; 0x69e2 <vTaskInternalSetTimeOutState>
    6a44:	03 c0       	rjmp	.+6      	; 0x6a4c <xTaskCheckForTimeOut+0x54>
    6a46:	11 82       	std	Z+1, r1	; 0x01
    6a48:	10 82       	st	Z, r1
    6a4a:	02 c0       	rjmp	.+4      	; 0x6a50 <xTaskCheckForTimeOut+0x58>
    6a4c:	80 e0       	ldi	r24, 0x00	; 0
    6a4e:	01 c0       	rjmp	.+2      	; 0x6a52 <xTaskCheckForTimeOut+0x5a>
    6a50:	81 e0       	ldi	r24, 0x01	; 1
    6a52:	0f 90       	pop	r0
    6a54:	0f be       	out	0x3f, r0	; 63
    6a56:	df 91       	pop	r29
    6a58:	cf 91       	pop	r28
    6a5a:	08 95       	ret

00006a5c <vTaskMissedYield>:
    6a5c:	81 e0       	ldi	r24, 0x01	; 1
    6a5e:	80 93 10 20 	sts	0x2010, r24	; 0x802010 <xYieldPending>
    6a62:	08 95       	ret

00006a64 <vTaskGetInfo>:
    6a64:	ff 92       	push	r15
    6a66:	0f 93       	push	r16
    6a68:	1f 93       	push	r17
    6a6a:	cf 93       	push	r28
    6a6c:	df 93       	push	r29
    6a6e:	8c 01       	movw	r16, r24
    6a70:	eb 01       	movw	r28, r22
    6a72:	f4 2e       	mov	r15, r20
    6a74:	89 2b       	or	r24, r25
    6a76:	21 f4       	brne	.+8      	; 0x6a80 <vTaskGetInfo+0x1c>
    6a78:	00 91 6d 20 	lds	r16, 0x206D	; 0x80206d <pxCurrentTCB>
    6a7c:	10 91 6e 20 	lds	r17, 0x206E	; 0x80206e <pxCurrentTCB+0x1>
    6a80:	19 83       	std	Y+1, r17	; 0x01
    6a82:	08 83       	st	Y, r16
    6a84:	c8 01       	movw	r24, r16
    6a86:	49 96       	adiw	r24, 0x19	; 25
    6a88:	9b 83       	std	Y+3, r25	; 0x03
    6a8a:	8a 83       	std	Y+2, r24	; 0x02
    6a8c:	d8 01       	movw	r26, r16
    6a8e:	56 96       	adiw	r26, 0x16	; 22
    6a90:	8c 91       	ld	r24, X
    6a92:	56 97       	sbiw	r26, 0x16	; 22
    6a94:	8e 83       	std	Y+6, r24	; 0x06
    6a96:	57 96       	adiw	r26, 0x17	; 23
    6a98:	8d 91       	ld	r24, X+
    6a9a:	9c 91       	ld	r25, X
    6a9c:	58 97       	sbiw	r26, 0x18	; 24
    6a9e:	9d 87       	std	Y+13, r25	; 0x0d
    6aa0:	8c 87       	std	Y+12, r24	; 0x0c
    6aa2:	99 96       	adiw	r26, 0x29	; 41
    6aa4:	8c 91       	ld	r24, X
    6aa6:	99 97       	sbiw	r26, 0x29	; 41
    6aa8:	8c 83       	std	Y+4, r24	; 0x04
    6aaa:	9b 96       	adiw	r26, 0x2b	; 43
    6aac:	8c 91       	ld	r24, X
    6aae:	8f 83       	std	Y+7, r24	; 0x07
    6ab0:	18 86       	std	Y+8, r1	; 0x08
    6ab2:	19 86       	std	Y+9, r1	; 0x09
    6ab4:	1a 86       	std	Y+10, r1	; 0x0a
    6ab6:	1b 86       	std	Y+11, r1	; 0x0b
    6ab8:	25 30       	cpi	r18, 0x05	; 5
    6aba:	b1 f0       	breq	.+44     	; 0x6ae8 <vTaskGetInfo+0x84>
    6abc:	80 91 6d 20 	lds	r24, 0x206D	; 0x80206d <pxCurrentTCB>
    6ac0:	90 91 6e 20 	lds	r25, 0x206E	; 0x80206e <pxCurrentTCB+0x1>
    6ac4:	08 17       	cp	r16, r24
    6ac6:	19 07       	cpc	r17, r25
    6ac8:	11 f4       	brne	.+4      	; 0x6ace <vTaskGetInfo+0x6a>
    6aca:	1d 82       	std	Y+5, r1	; 0x05
    6acc:	10 c0       	rjmp	.+32     	; 0x6aee <vTaskGetInfo+0x8a>
    6ace:	2d 83       	std	Y+5, r18	; 0x05
    6ad0:	23 30       	cpi	r18, 0x03	; 3
    6ad2:	69 f4       	brne	.+26     	; 0x6aee <vTaskGetInfo+0x8a>
    6ad4:	10 dd       	rcall	.-1504   	; 0x64f6 <vTaskSuspendAll>
    6ad6:	f8 01       	movw	r30, r16
    6ad8:	84 89       	ldd	r24, Z+20	; 0x14
    6ada:	95 89       	ldd	r25, Z+21	; 0x15
    6adc:	89 2b       	or	r24, r25
    6ade:	11 f0       	breq	.+4      	; 0x6ae4 <vTaskGetInfo+0x80>
    6ae0:	82 e0       	ldi	r24, 0x02	; 2
    6ae2:	8d 83       	std	Y+5, r24	; 0x05
    6ae4:	c0 dd       	rcall	.-1152   	; 0x6666 <xTaskResumeAll>
    6ae6:	03 c0       	rjmp	.+6      	; 0x6aee <vTaskGetInfo+0x8a>
    6ae8:	c8 01       	movw	r24, r16
    6aea:	5a dc       	rcall	.-1868   	; 0x63a0 <eTaskGetState>
    6aec:	8d 83       	std	Y+5, r24	; 0x05
    6aee:	ff 20       	and	r15, r15
    6af0:	91 f0       	breq	.+36     	; 0x6b16 <vTaskGetInfo+0xb2>
    6af2:	d8 01       	movw	r26, r16
    6af4:	57 96       	adiw	r26, 0x17	; 23
    6af6:	ed 91       	ld	r30, X+
    6af8:	fc 91       	ld	r31, X
    6afa:	58 97       	sbiw	r26, 0x18	; 24
    6afc:	80 e0       	ldi	r24, 0x00	; 0
    6afe:	90 e0       	ldi	r25, 0x00	; 0
    6b00:	dc 01       	movw	r26, r24
    6b02:	21 91       	ld	r18, Z+
    6b04:	25 3a       	cpi	r18, 0xA5	; 165
    6b06:	21 f4       	brne	.+8      	; 0x6b10 <vTaskGetInfo+0xac>
    6b08:	01 96       	adiw	r24, 0x01	; 1
    6b0a:	a1 1d       	adc	r26, r1
    6b0c:	b1 1d       	adc	r27, r1
    6b0e:	f9 cf       	rjmp	.-14     	; 0x6b02 <vTaskGetInfo+0x9e>
    6b10:	9f 87       	std	Y+15, r25	; 0x0f
    6b12:	8e 87       	std	Y+14, r24	; 0x0e
    6b14:	02 c0       	rjmp	.+4      	; 0x6b1a <vTaskGetInfo+0xb6>
    6b16:	1f 86       	std	Y+15, r1	; 0x0f
    6b18:	1e 86       	std	Y+14, r1	; 0x0e
    6b1a:	df 91       	pop	r29
    6b1c:	cf 91       	pop	r28
    6b1e:	1f 91       	pop	r17
    6b20:	0f 91       	pop	r16
    6b22:	ff 90       	pop	r15
    6b24:	08 95       	ret

00006b26 <prvListTasksWithinSingleList>:
    6b26:	8f 92       	push	r8
    6b28:	9f 92       	push	r9
    6b2a:	af 92       	push	r10
    6b2c:	bf 92       	push	r11
    6b2e:	cf 92       	push	r12
    6b30:	df 92       	push	r13
    6b32:	ef 92       	push	r14
    6b34:	ff 92       	push	r15
    6b36:	0f 93       	push	r16
    6b38:	1f 93       	push	r17
    6b3a:	cf 93       	push	r28
    6b3c:	df 93       	push	r29
    6b3e:	eb 01       	movw	r28, r22
    6b40:	28 81       	ld	r18, Y
    6b42:	22 23       	and	r18, r18
    6b44:	c9 f1       	breq	.+114    	; 0x6bb8 <prvListTasksWithinSingleList+0x92>
    6b46:	e9 81       	ldd	r30, Y+1	; 0x01
    6b48:	fa 81       	ldd	r31, Y+2	; 0x02
    6b4a:	22 81       	ldd	r18, Z+2	; 0x02
    6b4c:	33 81       	ldd	r19, Z+3	; 0x03
    6b4e:	3a 83       	std	Y+2, r19	; 0x02
    6b50:	29 83       	std	Y+1, r18	; 0x01
    6b52:	6b 01       	movw	r12, r22
    6b54:	53 e0       	ldi	r21, 0x03	; 3
    6b56:	c5 0e       	add	r12, r21
    6b58:	d1 1c       	adc	r13, r1
    6b5a:	2c 15       	cp	r18, r12
    6b5c:	3d 05       	cpc	r19, r13
    6b5e:	29 f4       	brne	.+10     	; 0x6b6a <prvListTasksWithinSingleList+0x44>
    6b60:	f6 01       	movw	r30, r12
    6b62:	22 81       	ldd	r18, Z+2	; 0x02
    6b64:	33 81       	ldd	r19, Z+3	; 0x03
    6b66:	3a 83       	std	Y+2, r19	; 0x02
    6b68:	29 83       	std	Y+1, r18	; 0x01
    6b6a:	04 2f       	mov	r16, r20
    6b6c:	7c 01       	movw	r14, r24
    6b6e:	e9 81       	ldd	r30, Y+1	; 0x01
    6b70:	fa 81       	ldd	r31, Y+2	; 0x02
    6b72:	a6 80       	ldd	r10, Z+6	; 0x06
    6b74:	b7 80       	ldd	r11, Z+7	; 0x07
    6b76:	10 e0       	ldi	r17, 0x00	; 0
    6b78:	e9 81       	ldd	r30, Y+1	; 0x01
    6b7a:	fa 81       	ldd	r31, Y+2	; 0x02
    6b7c:	82 81       	ldd	r24, Z+2	; 0x02
    6b7e:	93 81       	ldd	r25, Z+3	; 0x03
    6b80:	9a 83       	std	Y+2, r25	; 0x02
    6b82:	89 83       	std	Y+1, r24	; 0x01
    6b84:	c8 16       	cp	r12, r24
    6b86:	d9 06       	cpc	r13, r25
    6b88:	21 f4       	brne	.+8      	; 0x6b92 <prvListTasksWithinSingleList+0x6c>
    6b8a:	8d 81       	ldd	r24, Y+5	; 0x05
    6b8c:	9e 81       	ldd	r25, Y+6	; 0x06
    6b8e:	9a 83       	std	Y+2, r25	; 0x02
    6b90:	89 83       	std	Y+1, r24	; 0x01
    6b92:	e9 81       	ldd	r30, Y+1	; 0x01
    6b94:	fa 81       	ldd	r31, Y+2	; 0x02
    6b96:	86 80       	ldd	r8, Z+6	; 0x06
    6b98:	97 80       	ldd	r9, Z+7	; 0x07
    6b9a:	b7 01       	movw	r22, r14
    6b9c:	f0 e1       	ldi	r31, 0x10	; 16
    6b9e:	1f 9f       	mul	r17, r31
    6ba0:	60 0d       	add	r22, r0
    6ba2:	71 1d       	adc	r23, r1
    6ba4:	11 24       	eor	r1, r1
    6ba6:	20 2f       	mov	r18, r16
    6ba8:	41 e0       	ldi	r20, 0x01	; 1
    6baa:	c4 01       	movw	r24, r8
    6bac:	5b df       	rcall	.-330    	; 0x6a64 <vTaskGetInfo>
    6bae:	1f 5f       	subi	r17, 0xFF	; 255
    6bb0:	a8 14       	cp	r10, r8
    6bb2:	b9 04       	cpc	r11, r9
    6bb4:	09 f7       	brne	.-62     	; 0x6b78 <prvListTasksWithinSingleList+0x52>
    6bb6:	01 c0       	rjmp	.+2      	; 0x6bba <prvListTasksWithinSingleList+0x94>
    6bb8:	10 e0       	ldi	r17, 0x00	; 0
    6bba:	81 2f       	mov	r24, r17
    6bbc:	df 91       	pop	r29
    6bbe:	cf 91       	pop	r28
    6bc0:	1f 91       	pop	r17
    6bc2:	0f 91       	pop	r16
    6bc4:	ff 90       	pop	r15
    6bc6:	ef 90       	pop	r14
    6bc8:	df 90       	pop	r13
    6bca:	cf 90       	pop	r12
    6bcc:	bf 90       	pop	r11
    6bce:	af 90       	pop	r10
    6bd0:	9f 90       	pop	r9
    6bd2:	8f 90       	pop	r8
    6bd4:	08 95       	ret

00006bd6 <uxTaskGetSystemState>:
    6bd6:	df 92       	push	r13
    6bd8:	ef 92       	push	r14
    6bda:	ff 92       	push	r15
    6bdc:	0f 93       	push	r16
    6bde:	1f 93       	push	r17
    6be0:	cf 93       	push	r28
    6be2:	df 93       	push	r29
    6be4:	8c 01       	movw	r16, r24
    6be6:	c6 2f       	mov	r28, r22
    6be8:	7a 01       	movw	r14, r20
    6bea:	85 dc       	rcall	.-1782   	; 0x64f6 <vTaskSuspendAll>
    6bec:	80 91 16 20 	lds	r24, 0x2016	; 0x802016 <uxCurrentNumberOfTasks>
    6bf0:	c8 17       	cp	r28, r24
    6bf2:	08 f4       	brcc	.+2      	; 0x6bf6 <uxTaskGetSystemState+0x20>
    6bf4:	4e c0       	rjmp	.+156    	; 0x6c92 <uxTaskGetSystemState+0xbc>
    6bf6:	d4 e0       	ldi	r29, 0x04	; 4
    6bf8:	c0 e0       	ldi	r28, 0x00	; 0
    6bfa:	89 e0       	ldi	r24, 0x09	; 9
    6bfc:	d8 2e       	mov	r13, r24
    6bfe:	d1 50       	subi	r29, 0x01	; 1
    6c00:	dd 9e       	mul	r13, r29
    6c02:	b0 01       	movw	r22, r0
    6c04:	11 24       	eor	r1, r1
    6c06:	67 5b       	subi	r22, 0xB7	; 183
    6c08:	7f 4d       	sbci	r23, 0xDF	; 223
    6c0a:	41 e0       	ldi	r20, 0x01	; 1
    6c0c:	c8 01       	movw	r24, r16
    6c0e:	20 e1       	ldi	r18, 0x10	; 16
    6c10:	c2 9f       	mul	r28, r18
    6c12:	80 0d       	add	r24, r0
    6c14:	91 1d       	adc	r25, r1
    6c16:	11 24       	eor	r1, r1
    6c18:	86 df       	rcall	.-244    	; 0x6b26 <prvListTasksWithinSingleList>
    6c1a:	c8 0f       	add	r28, r24
    6c1c:	d1 11       	cpse	r29, r1
    6c1e:	ef cf       	rjmp	.-34     	; 0x6bfe <uxTaskGetSystemState+0x28>
    6c20:	60 91 35 20 	lds	r22, 0x2035	; 0x802035 <pxDelayedTaskList>
    6c24:	70 91 36 20 	lds	r23, 0x2036	; 0x802036 <pxDelayedTaskList+0x1>
    6c28:	42 e0       	ldi	r20, 0x02	; 2
    6c2a:	c8 01       	movw	r24, r16
    6c2c:	e0 e1       	ldi	r30, 0x10	; 16
    6c2e:	ce 9f       	mul	r28, r30
    6c30:	80 0d       	add	r24, r0
    6c32:	91 1d       	adc	r25, r1
    6c34:	11 24       	eor	r1, r1
    6c36:	77 df       	rcall	.-274    	; 0x6b26 <prvListTasksWithinSingleList>
    6c38:	c8 0f       	add	r28, r24
    6c3a:	60 91 33 20 	lds	r22, 0x2033	; 0x802033 <pxOverflowDelayedTaskList>
    6c3e:	70 91 34 20 	lds	r23, 0x2034	; 0x802034 <pxOverflowDelayedTaskList+0x1>
    6c42:	42 e0       	ldi	r20, 0x02	; 2
    6c44:	c8 01       	movw	r24, r16
    6c46:	f0 e1       	ldi	r31, 0x10	; 16
    6c48:	cf 9f       	mul	r28, r31
    6c4a:	80 0d       	add	r24, r0
    6c4c:	91 1d       	adc	r25, r1
    6c4e:	11 24       	eor	r1, r1
    6c50:	6a df       	rcall	.-300    	; 0x6b26 <prvListTasksWithinSingleList>
    6c52:	c8 0f       	add	r28, r24
    6c54:	44 e0       	ldi	r20, 0x04	; 4
    6c56:	61 e2       	ldi	r22, 0x21	; 33
    6c58:	70 e2       	ldi	r23, 0x20	; 32
    6c5a:	c8 01       	movw	r24, r16
    6c5c:	20 e1       	ldi	r18, 0x10	; 16
    6c5e:	c2 9f       	mul	r28, r18
    6c60:	80 0d       	add	r24, r0
    6c62:	91 1d       	adc	r25, r1
    6c64:	11 24       	eor	r1, r1
    6c66:	5f df       	rcall	.-322    	; 0x6b26 <prvListTasksWithinSingleList>
    6c68:	c8 0f       	add	r28, r24
    6c6a:	43 e0       	ldi	r20, 0x03	; 3
    6c6c:	67 e1       	ldi	r22, 0x17	; 23
    6c6e:	70 e2       	ldi	r23, 0x20	; 32
    6c70:	c8 01       	movw	r24, r16
    6c72:	e0 e1       	ldi	r30, 0x10	; 16
    6c74:	ce 9f       	mul	r28, r30
    6c76:	80 0d       	add	r24, r0
    6c78:	91 1d       	adc	r25, r1
    6c7a:	11 24       	eor	r1, r1
    6c7c:	54 df       	rcall	.-344    	; 0x6b26 <prvListTasksWithinSingleList>
    6c7e:	c8 0f       	add	r28, r24
    6c80:	e1 14       	cp	r14, r1
    6c82:	f1 04       	cpc	r15, r1
    6c84:	39 f0       	breq	.+14     	; 0x6c94 <uxTaskGetSystemState+0xbe>
    6c86:	f7 01       	movw	r30, r14
    6c88:	10 82       	st	Z, r1
    6c8a:	11 82       	std	Z+1, r1	; 0x01
    6c8c:	12 82       	std	Z+2, r1	; 0x02
    6c8e:	13 82       	std	Z+3, r1	; 0x03
    6c90:	01 c0       	rjmp	.+2      	; 0x6c94 <uxTaskGetSystemState+0xbe>
    6c92:	c0 e0       	ldi	r28, 0x00	; 0
    6c94:	e8 dc       	rcall	.-1584   	; 0x6666 <xTaskResumeAll>
    6c96:	8c 2f       	mov	r24, r28
    6c98:	df 91       	pop	r29
    6c9a:	cf 91       	pop	r28
    6c9c:	1f 91       	pop	r17
    6c9e:	0f 91       	pop	r16
    6ca0:	ff 90       	pop	r15
    6ca2:	ef 90       	pop	r14
    6ca4:	df 90       	pop	r13
    6ca6:	08 95       	ret

00006ca8 <uxTaskGetStackHighWaterMark2>:
    6ca8:	00 97       	sbiw	r24, 0x00	; 0
    6caa:	21 f4       	brne	.+8      	; 0x6cb4 <uxTaskGetStackHighWaterMark2+0xc>
    6cac:	80 91 6d 20 	lds	r24, 0x206D	; 0x80206d <pxCurrentTCB>
    6cb0:	90 91 6e 20 	lds	r25, 0x206E	; 0x80206e <pxCurrentTCB+0x1>
    6cb4:	dc 01       	movw	r26, r24
    6cb6:	57 96       	adiw	r26, 0x17	; 23
    6cb8:	ed 91       	ld	r30, X+
    6cba:	fc 91       	ld	r31, X
    6cbc:	58 97       	sbiw	r26, 0x18	; 24
    6cbe:	80 e0       	ldi	r24, 0x00	; 0
    6cc0:	90 e0       	ldi	r25, 0x00	; 0
    6cc2:	dc 01       	movw	r26, r24
    6cc4:	21 91       	ld	r18, Z+
    6cc6:	25 3a       	cpi	r18, 0xA5	; 165
    6cc8:	21 f4       	brne	.+8      	; 0x6cd2 <uxTaskGetStackHighWaterMark2+0x2a>
    6cca:	01 96       	adiw	r24, 0x01	; 1
    6ccc:	a1 1d       	adc	r26, r1
    6cce:	b1 1d       	adc	r27, r1
    6cd0:	f9 cf       	rjmp	.-14     	; 0x6cc4 <uxTaskGetStackHighWaterMark2+0x1c>
    6cd2:	08 95       	ret

00006cd4 <xTaskGetSchedulerState>:
    6cd4:	80 91 12 20 	lds	r24, 0x2012	; 0x802012 <xSchedulerRunning>
    6cd8:	88 23       	and	r24, r24
    6cda:	31 f0       	breq	.+12     	; 0x6ce8 <xTaskGetSchedulerState+0x14>
    6cdc:	80 91 09 20 	lds	r24, 0x2009	; 0x802009 <uxSchedulerSuspended>
    6ce0:	88 23       	and	r24, r24
    6ce2:	21 f0       	breq	.+8      	; 0x6cec <xTaskGetSchedulerState+0x18>
    6ce4:	80 e0       	ldi	r24, 0x00	; 0
    6ce6:	08 95       	ret
    6ce8:	81 e0       	ldi	r24, 0x01	; 1
    6cea:	08 95       	ret
    6cec:	82 e0       	ldi	r24, 0x02	; 2
    6cee:	08 95       	ret

00006cf0 <xTaskPriorityInherit>:
    6cf0:	0f 93       	push	r16
    6cf2:	1f 93       	push	r17
    6cf4:	cf 93       	push	r28
    6cf6:	df 93       	push	r29
    6cf8:	fc 01       	movw	r30, r24
    6cfa:	89 2b       	or	r24, r25
    6cfc:	09 f4       	brne	.+2      	; 0x6d00 <xTaskPriorityInherit+0x10>
    6cfe:	55 c0       	rjmp	.+170    	; 0x6daa <xTaskPriorityInherit+0xba>
    6d00:	86 89       	ldd	r24, Z+22	; 0x16
    6d02:	a0 91 6d 20 	lds	r26, 0x206D	; 0x80206d <pxCurrentTCB>
    6d06:	b0 91 6e 20 	lds	r27, 0x206E	; 0x80206e <pxCurrentTCB+0x1>
    6d0a:	56 96       	adiw	r26, 0x16	; 22
    6d0c:	9c 91       	ld	r25, X
    6d0e:	89 17       	cp	r24, r25
    6d10:	08 f0       	brcs	.+2      	; 0x6d14 <xTaskPriorityInherit+0x24>
    6d12:	41 c0       	rjmp	.+130    	; 0x6d96 <xTaskPriorityInherit+0xa6>
    6d14:	24 85       	ldd	r18, Z+12	; 0x0c
    6d16:	35 85       	ldd	r19, Z+13	; 0x0d
    6d18:	37 fd       	sbrc	r19, 7
    6d1a:	0c c0       	rjmp	.+24     	; 0x6d34 <xTaskPriorityInherit+0x44>
    6d1c:	a0 91 6d 20 	lds	r26, 0x206D	; 0x80206d <pxCurrentTCB>
    6d20:	b0 91 6e 20 	lds	r27, 0x206E	; 0x80206e <pxCurrentTCB+0x1>
    6d24:	56 96       	adiw	r26, 0x16	; 22
    6d26:	9c 91       	ld	r25, X
    6d28:	24 e0       	ldi	r18, 0x04	; 4
    6d2a:	30 e0       	ldi	r19, 0x00	; 0
    6d2c:	29 1b       	sub	r18, r25
    6d2e:	31 09       	sbc	r19, r1
    6d30:	35 87       	std	Z+13, r19	; 0x0d
    6d32:	24 87       	std	Z+12, r18	; 0x0c
    6d34:	29 e0       	ldi	r18, 0x09	; 9
    6d36:	82 9f       	mul	r24, r18
    6d38:	c0 01       	movw	r24, r0
    6d3a:	11 24       	eor	r1, r1
    6d3c:	87 5b       	subi	r24, 0xB7	; 183
    6d3e:	9f 4d       	sbci	r25, 0xDF	; 223
    6d40:	22 85       	ldd	r18, Z+10	; 0x0a
    6d42:	33 85       	ldd	r19, Z+11	; 0x0b
    6d44:	28 17       	cp	r18, r24
    6d46:	39 07       	cpc	r19, r25
    6d48:	e9 f4       	brne	.+58     	; 0x6d84 <xTaskPriorityInherit+0x94>
    6d4a:	8f 01       	movw	r16, r30
    6d4c:	ef 01       	movw	r28, r30
    6d4e:	22 96       	adiw	r28, 0x02	; 2
    6d50:	ce 01       	movw	r24, r28
    6d52:	0e 94 77 24 	call	0x48ee	; 0x48ee <uxListRemove>
    6d56:	e0 91 6d 20 	lds	r30, 0x206D	; 0x80206d <pxCurrentTCB>
    6d5a:	f0 91 6e 20 	lds	r31, 0x206E	; 0x80206e <pxCurrentTCB+0x1>
    6d5e:	86 89       	ldd	r24, Z+22	; 0x16
    6d60:	f8 01       	movw	r30, r16
    6d62:	86 8b       	std	Z+22, r24	; 0x16
    6d64:	90 91 13 20 	lds	r25, 0x2013	; 0x802013 <uxTopReadyPriority>
    6d68:	98 17       	cp	r25, r24
    6d6a:	10 f4       	brcc	.+4      	; 0x6d70 <xTaskPriorityInherit+0x80>
    6d6c:	80 93 13 20 	sts	0x2013, r24	; 0x802013 <uxTopReadyPriority>
    6d70:	f9 e0       	ldi	r31, 0x09	; 9
    6d72:	8f 9f       	mul	r24, r31
    6d74:	c0 01       	movw	r24, r0
    6d76:	11 24       	eor	r1, r1
    6d78:	be 01       	movw	r22, r28
    6d7a:	87 5b       	subi	r24, 0xB7	; 183
    6d7c:	9f 4d       	sbci	r25, 0xDF	; 223
    6d7e:	0e 94 1e 24 	call	0x483c	; 0x483c <vListInsertEnd>
    6d82:	07 c0       	rjmp	.+14     	; 0x6d92 <xTaskPriorityInherit+0xa2>
    6d84:	a0 91 6d 20 	lds	r26, 0x206D	; 0x80206d <pxCurrentTCB>
    6d88:	b0 91 6e 20 	lds	r27, 0x206E	; 0x80206e <pxCurrentTCB+0x1>
    6d8c:	56 96       	adiw	r26, 0x16	; 22
    6d8e:	8c 91       	ld	r24, X
    6d90:	86 8b       	std	Z+22, r24	; 0x16
    6d92:	81 e0       	ldi	r24, 0x01	; 1
    6d94:	0b c0       	rjmp	.+22     	; 0x6dac <xTaskPriorityInherit+0xbc>
    6d96:	a0 91 6d 20 	lds	r26, 0x206D	; 0x80206d <pxCurrentTCB>
    6d9a:	b0 91 6e 20 	lds	r27, 0x206E	; 0x80206e <pxCurrentTCB+0x1>
    6d9e:	81 e0       	ldi	r24, 0x01	; 1
    6da0:	23 a5       	ldd	r18, Z+43	; 0x2b
    6da2:	56 96       	adiw	r26, 0x16	; 22
    6da4:	9c 91       	ld	r25, X
    6da6:	29 17       	cp	r18, r25
    6da8:	08 f0       	brcs	.+2      	; 0x6dac <xTaskPriorityInherit+0xbc>
    6daa:	80 e0       	ldi	r24, 0x00	; 0
    6dac:	df 91       	pop	r29
    6dae:	cf 91       	pop	r28
    6db0:	1f 91       	pop	r17
    6db2:	0f 91       	pop	r16
    6db4:	08 95       	ret

00006db6 <xTaskPriorityDisinherit>:
    6db6:	0f 93       	push	r16
    6db8:	1f 93       	push	r17
    6dba:	cf 93       	push	r28
    6dbc:	df 93       	push	r29
    6dbe:	fc 01       	movw	r30, r24
    6dc0:	89 2b       	or	r24, r25
    6dc2:	11 f4       	brne	.+4      	; 0x6dc8 <xTaskPriorityDisinherit+0x12>
    6dc4:	80 e0       	ldi	r24, 0x00	; 0
    6dc6:	2c c0       	rjmp	.+88     	; 0x6e20 <xTaskPriorityDisinherit+0x6a>
    6dc8:	84 a5       	ldd	r24, Z+44	; 0x2c
    6dca:	81 50       	subi	r24, 0x01	; 1
    6dcc:	84 a7       	std	Z+44, r24	; 0x2c
    6dce:	26 89       	ldd	r18, Z+22	; 0x16
    6dd0:	93 a5       	ldd	r25, Z+43	; 0x2b
    6dd2:	29 17       	cp	r18, r25
    6dd4:	b9 f3       	breq	.-18     	; 0x6dc4 <xTaskPriorityDisinherit+0xe>
    6dd6:	81 11       	cpse	r24, r1
    6dd8:	f5 cf       	rjmp	.-22     	; 0x6dc4 <xTaskPriorityDisinherit+0xe>
    6dda:	ef 01       	movw	r28, r30
    6ddc:	8f 01       	movw	r16, r30
    6dde:	0e 5f       	subi	r16, 0xFE	; 254
    6de0:	1f 4f       	sbci	r17, 0xFF	; 255
    6de2:	c8 01       	movw	r24, r16
    6de4:	0e 94 77 24 	call	0x48ee	; 0x48ee <uxListRemove>
    6de8:	8b a5       	ldd	r24, Y+43	; 0x2b
    6dea:	8e 8b       	std	Y+22, r24	; 0x16
    6dec:	48 2f       	mov	r20, r24
    6dee:	50 e0       	ldi	r21, 0x00	; 0
    6df0:	24 e0       	ldi	r18, 0x04	; 4
    6df2:	30 e0       	ldi	r19, 0x00	; 0
    6df4:	24 1b       	sub	r18, r20
    6df6:	35 0b       	sbc	r19, r21
    6df8:	3d 87       	std	Y+13, r19	; 0x0d
    6dfa:	2c 87       	std	Y+12, r18	; 0x0c
    6dfc:	90 91 13 20 	lds	r25, 0x2013	; 0x802013 <uxTopReadyPriority>
    6e00:	98 17       	cp	r25, r24
    6e02:	10 f4       	brcc	.+4      	; 0x6e08 <xTaskPriorityDisinherit+0x52>
    6e04:	80 93 13 20 	sts	0x2013, r24	; 0x802013 <uxTopReadyPriority>
    6e08:	29 e0       	ldi	r18, 0x09	; 9
    6e0a:	24 9f       	mul	r18, r20
    6e0c:	c0 01       	movw	r24, r0
    6e0e:	25 9f       	mul	r18, r21
    6e10:	90 0d       	add	r25, r0
    6e12:	11 24       	eor	r1, r1
    6e14:	b8 01       	movw	r22, r16
    6e16:	87 5b       	subi	r24, 0xB7	; 183
    6e18:	9f 4d       	sbci	r25, 0xDF	; 223
    6e1a:	0e 94 1e 24 	call	0x483c	; 0x483c <vListInsertEnd>
    6e1e:	81 e0       	ldi	r24, 0x01	; 1
    6e20:	df 91       	pop	r29
    6e22:	cf 91       	pop	r28
    6e24:	1f 91       	pop	r17
    6e26:	0f 91       	pop	r16
    6e28:	08 95       	ret

00006e2a <vTaskPriorityDisinheritAfterTimeout>:
    6e2a:	0f 93       	push	r16
    6e2c:	1f 93       	push	r17
    6e2e:	cf 93       	push	r28
    6e30:	df 93       	push	r29
    6e32:	fc 01       	movw	r30, r24
    6e34:	89 2b       	or	r24, r25
    6e36:	d9 f1       	breq	.+118    	; 0x6eae <vTaskPriorityDisinheritAfterTimeout+0x84>
    6e38:	93 a5       	ldd	r25, Z+43	; 0x2b
    6e3a:	96 17       	cp	r25, r22
    6e3c:	08 f4       	brcc	.+2      	; 0x6e40 <vTaskPriorityDisinheritAfterTimeout+0x16>
    6e3e:	96 2f       	mov	r25, r22
    6e40:	86 89       	ldd	r24, Z+22	; 0x16
    6e42:	89 17       	cp	r24, r25
    6e44:	a1 f1       	breq	.+104    	; 0x6eae <vTaskPriorityDisinheritAfterTimeout+0x84>
    6e46:	24 a5       	ldd	r18, Z+44	; 0x2c
    6e48:	21 30       	cpi	r18, 0x01	; 1
    6e4a:	89 f5       	brne	.+98     	; 0x6eae <vTaskPriorityDisinheritAfterTimeout+0x84>
    6e4c:	96 8b       	std	Z+22, r25	; 0x16
    6e4e:	24 85       	ldd	r18, Z+12	; 0x0c
    6e50:	35 85       	ldd	r19, Z+13	; 0x0d
    6e52:	37 fd       	sbrc	r19, 7
    6e54:	06 c0       	rjmp	.+12     	; 0x6e62 <vTaskPriorityDisinheritAfterTimeout+0x38>
    6e56:	24 e0       	ldi	r18, 0x04	; 4
    6e58:	30 e0       	ldi	r19, 0x00	; 0
    6e5a:	29 1b       	sub	r18, r25
    6e5c:	31 09       	sbc	r19, r1
    6e5e:	35 87       	std	Z+13, r19	; 0x0d
    6e60:	24 87       	std	Z+12, r18	; 0x0c
    6e62:	29 e0       	ldi	r18, 0x09	; 9
    6e64:	82 9f       	mul	r24, r18
    6e66:	c0 01       	movw	r24, r0
    6e68:	11 24       	eor	r1, r1
    6e6a:	87 5b       	subi	r24, 0xB7	; 183
    6e6c:	9f 4d       	sbci	r25, 0xDF	; 223
    6e6e:	22 85       	ldd	r18, Z+10	; 0x0a
    6e70:	33 85       	ldd	r19, Z+11	; 0x0b
    6e72:	28 17       	cp	r18, r24
    6e74:	39 07       	cpc	r19, r25
    6e76:	d9 f4       	brne	.+54     	; 0x6eae <vTaskPriorityDisinheritAfterTimeout+0x84>
    6e78:	ef 01       	movw	r28, r30
    6e7a:	8f 01       	movw	r16, r30
    6e7c:	0e 5f       	subi	r16, 0xFE	; 254
    6e7e:	1f 4f       	sbci	r17, 0xFF	; 255
    6e80:	c8 01       	movw	r24, r16
    6e82:	0e 94 77 24 	call	0x48ee	; 0x48ee <uxListRemove>
    6e86:	8e 89       	ldd	r24, Y+22	; 0x16
    6e88:	90 91 13 20 	lds	r25, 0x2013	; 0x802013 <uxTopReadyPriority>
    6e8c:	98 17       	cp	r25, r24
    6e8e:	10 f4       	brcc	.+4      	; 0x6e94 <vTaskPriorityDisinheritAfterTimeout+0x6a>
    6e90:	80 93 13 20 	sts	0x2013, r24	; 0x802013 <uxTopReadyPriority>
    6e94:	29 e0       	ldi	r18, 0x09	; 9
    6e96:	82 9f       	mul	r24, r18
    6e98:	c0 01       	movw	r24, r0
    6e9a:	11 24       	eor	r1, r1
    6e9c:	b8 01       	movw	r22, r16
    6e9e:	87 5b       	subi	r24, 0xB7	; 183
    6ea0:	9f 4d       	sbci	r25, 0xDF	; 223
    6ea2:	df 91       	pop	r29
    6ea4:	cf 91       	pop	r28
    6ea6:	1f 91       	pop	r17
    6ea8:	0f 91       	pop	r16
    6eaa:	0c 94 1e 24 	jmp	0x483c	; 0x483c <vListInsertEnd>
    6eae:	df 91       	pop	r29
    6eb0:	cf 91       	pop	r28
    6eb2:	1f 91       	pop	r17
    6eb4:	0f 91       	pop	r16
    6eb6:	08 95       	ret

00006eb8 <vTaskList>:
    6eb8:	8f 92       	push	r8
    6eba:	9f 92       	push	r9
    6ebc:	af 92       	push	r10
    6ebe:	bf 92       	push	r11
    6ec0:	cf 92       	push	r12
    6ec2:	df 92       	push	r13
    6ec4:	ef 92       	push	r14
    6ec6:	ff 92       	push	r15
    6ec8:	0f 93       	push	r16
    6eca:	1f 93       	push	r17
    6ecc:	cf 93       	push	r28
    6ece:	df 93       	push	r29
    6ed0:	ec 01       	movw	r28, r24
    6ed2:	18 82       	st	Y, r1
    6ed4:	f0 90 16 20 	lds	r15, 0x2016	; 0x802016 <uxCurrentNumberOfTasks>
    6ed8:	80 91 16 20 	lds	r24, 0x2016	; 0x802016 <uxCurrentNumberOfTasks>
    6edc:	20 e1       	ldi	r18, 0x10	; 16
    6ede:	82 9f       	mul	r24, r18
    6ee0:	c0 01       	movw	r24, r0
    6ee2:	11 24       	eor	r1, r1
    6ee4:	0e 94 54 23 	call	0x46a8	; 0x46a8 <pvPortMalloc>
    6ee8:	8c 01       	movw	r16, r24
    6eea:	00 97       	sbiw	r24, 0x00	; 0
    6eec:	09 f4       	brne	.+2      	; 0x6ef0 <vTaskList+0x38>
    6eee:	6d c0       	rjmp	.+218    	; 0x6fca <vTaskList+0x112>
    6ef0:	40 e0       	ldi	r20, 0x00	; 0
    6ef2:	50 e0       	ldi	r21, 0x00	; 0
    6ef4:	6f 2d       	mov	r22, r15
    6ef6:	6f de       	rcall	.-802    	; 0x6bd6 <uxTaskGetSystemState>
    6ef8:	a8 2e       	mov	r10, r24
    6efa:	68 01       	movw	r12, r16
    6efc:	b1 2c       	mov	r11, r1
    6efe:	80 e2       	ldi	r24, 0x20	; 32
    6f00:	98 2e       	mov	r9, r24
    6f02:	94 e0       	ldi	r25, 0x04	; 4
    6f04:	e9 2e       	mov	r14, r25
    6f06:	93 e0       	ldi	r25, 0x03	; 3
    6f08:	f9 2e       	mov	r15, r25
    6f0a:	ba 14       	cp	r11, r10
    6f0c:	09 f4       	brne	.+2      	; 0x6f10 <vTaskList+0x58>
    6f0e:	4e c0       	rjmp	.+156    	; 0x6fac <vTaskList+0xf4>
    6f10:	d6 01       	movw	r26, r12
    6f12:	15 96       	adiw	r26, 0x05	; 5
    6f14:	ec 91       	ld	r30, X
    6f16:	e5 30       	cpi	r30, 0x05	; 5
    6f18:	28 f4       	brcc	.+10     	; 0x6f24 <vTaskList+0x6c>
    6f1a:	f0 e0       	ldi	r31, 0x00	; 0
    6f1c:	ed 5e       	subi	r30, 0xED	; 237
    6f1e:	fc 4f       	sbci	r31, 0xFC	; 252
    6f20:	80 80       	ld	r8, Z
    6f22:	01 c0       	rjmp	.+2      	; 0x6f26 <vTaskList+0x6e>
    6f24:	81 2c       	mov	r8, r1
    6f26:	f6 01       	movw	r30, r12
    6f28:	62 81       	ldd	r22, Z+2	; 0x02
    6f2a:	73 81       	ldd	r23, Z+3	; 0x03
    6f2c:	ce 01       	movw	r24, r28
    6f2e:	5b d4       	rcall	.+2230   	; 0x77e6 <strcpy>
    6f30:	fe 01       	movw	r30, r28
    6f32:	01 90       	ld	r0, Z+
    6f34:	00 20       	and	r0, r0
    6f36:	e9 f7       	brne	.-6      	; 0x6f32 <vTaskList+0x7a>
    6f38:	31 97       	sbiw	r30, 0x01	; 1
    6f3a:	cf 01       	movw	r24, r30
    6f3c:	8c 1b       	sub	r24, r28
    6f3e:	9d 0b       	sbc	r25, r29
    6f40:	fe 01       	movw	r30, r28
    6f42:	e8 0f       	add	r30, r24
    6f44:	f9 1f       	adc	r31, r25
    6f46:	8f 30       	cpi	r24, 0x0F	; 15
    6f48:	91 05       	cpc	r25, r1
    6f4a:	18 f4       	brcc	.+6      	; 0x6f52 <vTaskList+0x9a>
    6f4c:	91 92       	st	Z+, r9
    6f4e:	01 96       	adiw	r24, 0x01	; 1
    6f50:	fa cf       	rjmp	.-12     	; 0x6f46 <vTaskList+0x8e>
    6f52:	c8 0f       	add	r28, r24
    6f54:	d9 1f       	adc	r29, r25
    6f56:	18 82       	st	Y, r1
    6f58:	d6 01       	movw	r26, r12
    6f5a:	14 96       	adiw	r26, 0x04	; 4
    6f5c:	8c 91       	ld	r24, X
    6f5e:	14 97       	sbiw	r26, 0x04	; 4
    6f60:	1f 92       	push	r1
    6f62:	8f 93       	push	r24
    6f64:	1f 96       	adiw	r26, 0x0f	; 15
    6f66:	8c 91       	ld	r24, X
    6f68:	1f 97       	sbiw	r26, 0x0f	; 15
    6f6a:	8f 93       	push	r24
    6f6c:	1e 96       	adiw	r26, 0x0e	; 14
    6f6e:	8c 91       	ld	r24, X
    6f70:	1e 97       	sbiw	r26, 0x0e	; 14
    6f72:	8f 93       	push	r24
    6f74:	16 96       	adiw	r26, 0x06	; 6
    6f76:	8c 91       	ld	r24, X
    6f78:	1f 92       	push	r1
    6f7a:	8f 93       	push	r24
    6f7c:	1f 92       	push	r1
    6f7e:	8f 92       	push	r8
    6f80:	ff 92       	push	r15
    6f82:	ef 92       	push	r14
    6f84:	df 93       	push	r29
    6f86:	cf 93       	push	r28
    6f88:	1d d5       	rcall	.+2618   	; 0x79c4 <sprintf>
    6f8a:	09 90       	ld	r0, Y+
    6f8c:	00 20       	and	r0, r0
    6f8e:	e9 f7       	brne	.-6      	; 0x6f8a <vTaskList+0xd2>
    6f90:	21 97       	sbiw	r28, 0x01	; 1
    6f92:	b3 94       	inc	r11
    6f94:	f0 e1       	ldi	r31, 0x10	; 16
    6f96:	cf 0e       	add	r12, r31
    6f98:	d1 1c       	adc	r13, r1
    6f9a:	8d b7       	in	r24, 0x3d	; 61
    6f9c:	9e b7       	in	r25, 0x3e	; 62
    6f9e:	0c 96       	adiw	r24, 0x0c	; 12
    6fa0:	0f b6       	in	r0, 0x3f	; 63
    6fa2:	f8 94       	cli
    6fa4:	9e bf       	out	0x3e, r25	; 62
    6fa6:	0f be       	out	0x3f, r0	; 63
    6fa8:	8d bf       	out	0x3d, r24	; 61
    6faa:	af cf       	rjmp	.-162    	; 0x6f0a <vTaskList+0x52>
    6fac:	c8 01       	movw	r24, r16
    6fae:	df 91       	pop	r29
    6fb0:	cf 91       	pop	r28
    6fb2:	1f 91       	pop	r17
    6fb4:	0f 91       	pop	r16
    6fb6:	ff 90       	pop	r15
    6fb8:	ef 90       	pop	r14
    6fba:	df 90       	pop	r13
    6fbc:	cf 90       	pop	r12
    6fbe:	bf 90       	pop	r11
    6fc0:	af 90       	pop	r10
    6fc2:	9f 90       	pop	r9
    6fc4:	8f 90       	pop	r8
    6fc6:	0c 94 19 23 	jmp	0x4632	; 0x4632 <vPortFree>
    6fca:	df 91       	pop	r29
    6fcc:	cf 91       	pop	r28
    6fce:	1f 91       	pop	r17
    6fd0:	0f 91       	pop	r16
    6fd2:	ff 90       	pop	r15
    6fd4:	ef 90       	pop	r14
    6fd6:	df 90       	pop	r13
    6fd8:	cf 90       	pop	r12
    6fda:	bf 90       	pop	r11
    6fdc:	af 90       	pop	r10
    6fde:	9f 90       	pop	r9
    6fe0:	8f 90       	pop	r8
    6fe2:	08 95       	ret

00006fe4 <pvTaskIncrementMutexHeldCount>:
    6fe4:	80 91 6d 20 	lds	r24, 0x206D	; 0x80206d <pxCurrentTCB>
    6fe8:	90 91 6e 20 	lds	r25, 0x206E	; 0x80206e <pxCurrentTCB+0x1>
    6fec:	89 2b       	or	r24, r25
    6fee:	39 f0       	breq	.+14     	; 0x6ffe <pvTaskIncrementMutexHeldCount+0x1a>
    6ff0:	e0 91 6d 20 	lds	r30, 0x206D	; 0x80206d <pxCurrentTCB>
    6ff4:	f0 91 6e 20 	lds	r31, 0x206E	; 0x80206e <pxCurrentTCB+0x1>
    6ff8:	84 a5       	ldd	r24, Z+44	; 0x2c
    6ffa:	8f 5f       	subi	r24, 0xFF	; 255
    6ffc:	84 a7       	std	Z+44, r24	; 0x2c
    6ffe:	80 91 6d 20 	lds	r24, 0x206D	; 0x80206d <pxCurrentTCB>
    7002:	90 91 6e 20 	lds	r25, 0x206E	; 0x80206e <pxCurrentTCB+0x1>
    7006:	08 95       	ret

00007008 <prvCheckForValidListAndQueue>:
    7008:	0f b6       	in	r0, 0x3f	; 63
    700a:	f8 94       	cli
    700c:	0f 92       	push	r0
    700e:	80 91 73 20 	lds	r24, 0x2073	; 0x802073 <xTimerQueue>
    7012:	90 91 74 20 	lds	r25, 0x2074	; 0x802074 <xTimerQueue+0x1>
    7016:	89 2b       	or	r24, r25
    7018:	e9 f4       	brne	.+58     	; 0x7054 <prvCheckForValidListAndQueue+0x4c>
    701a:	82 e8       	ldi	r24, 0x82	; 130
    701c:	90 e2       	ldi	r25, 0x20	; 32
    701e:	0e 94 0c 24 	call	0x4818	; 0x4818 <vListInitialise>
    7022:	89 e7       	ldi	r24, 0x79	; 121
    7024:	90 e2       	ldi	r25, 0x20	; 32
    7026:	0e 94 0c 24 	call	0x4818	; 0x4818 <vListInitialise>
    702a:	82 e8       	ldi	r24, 0x82	; 130
    702c:	90 e2       	ldi	r25, 0x20	; 32
    702e:	90 93 78 20 	sts	0x2078, r25	; 0x802078 <pxCurrentTimerList+0x1>
    7032:	80 93 77 20 	sts	0x2077, r24	; 0x802077 <pxCurrentTimerList>
    7036:	89 e7       	ldi	r24, 0x79	; 121
    7038:	90 e2       	ldi	r25, 0x20	; 32
    703a:	90 93 76 20 	sts	0x2076, r25	; 0x802076 <pxOverflowTimerList+0x1>
    703e:	80 93 75 20 	sts	0x2075, r24	; 0x802075 <pxOverflowTimerList>
    7042:	40 e0       	ldi	r20, 0x00	; 0
    7044:	65 e0       	ldi	r22, 0x05	; 5
    7046:	84 e1       	ldi	r24, 0x14	; 20
    7048:	0e 94 f9 2c 	call	0x59f2	; 0x59f2 <xQueueGenericCreate>
    704c:	90 93 74 20 	sts	0x2074, r25	; 0x802074 <xTimerQueue+0x1>
    7050:	80 93 73 20 	sts	0x2073, r24	; 0x802073 <xTimerQueue>
    7054:	0f 90       	pop	r0
    7056:	0f be       	out	0x3f, r0	; 63
    7058:	08 95       	ret

0000705a <prvInsertTimerInActiveList>:
    705a:	fc 01       	movw	r30, r24
    705c:	73 83       	std	Z+3, r23	; 0x03
    705e:	62 83       	std	Z+2, r22	; 0x02
    7060:	91 87       	std	Z+9, r25	; 0x09
    7062:	80 87       	std	Z+8, r24	; 0x08
    7064:	46 17       	cp	r20, r22
    7066:	57 07       	cpc	r21, r23
    7068:	78 f0       	brcs	.+30     	; 0x7088 <prvInsertTimerInActiveList+0x2e>
    706a:	42 1b       	sub	r20, r18
    706c:	53 0b       	sbc	r21, r19
    706e:	84 85       	ldd	r24, Z+12	; 0x0c
    7070:	95 85       	ldd	r25, Z+13	; 0x0d
    7072:	48 17       	cp	r20, r24
    7074:	59 07       	cpc	r21, r25
    7076:	c8 f4       	brcc	.+50     	; 0x70aa <prvInsertTimerInActiveList+0x50>
    7078:	bf 01       	movw	r22, r30
    707a:	6e 5f       	subi	r22, 0xFE	; 254
    707c:	7f 4f       	sbci	r23, 0xFF	; 255
    707e:	80 91 75 20 	lds	r24, 0x2075	; 0x802075 <pxOverflowTimerList>
    7082:	90 91 76 20 	lds	r25, 0x2076	; 0x802076 <pxOverflowTimerList+0x1>
    7086:	0d c0       	rjmp	.+26     	; 0x70a2 <prvInsertTimerInActiveList+0x48>
    7088:	42 17       	cp	r20, r18
    708a:	53 07       	cpc	r21, r19
    708c:	18 f4       	brcc	.+6      	; 0x7094 <prvInsertTimerInActiveList+0x3a>
    708e:	62 17       	cp	r22, r18
    7090:	73 07       	cpc	r23, r19
    7092:	58 f4       	brcc	.+22     	; 0x70aa <prvInsertTimerInActiveList+0x50>
    7094:	bf 01       	movw	r22, r30
    7096:	6e 5f       	subi	r22, 0xFE	; 254
    7098:	7f 4f       	sbci	r23, 0xFF	; 255
    709a:	80 91 77 20 	lds	r24, 0x2077	; 0x802077 <pxCurrentTimerList>
    709e:	90 91 78 20 	lds	r25, 0x2078	; 0x802078 <pxCurrentTimerList+0x1>
    70a2:	0e 94 3f 24 	call	0x487e	; 0x487e <vListInsert>
    70a6:	80 e0       	ldi	r24, 0x00	; 0
    70a8:	08 95       	ret
    70aa:	81 e0       	ldi	r24, 0x01	; 1
    70ac:	08 95       	ret

000070ae <xTimerCreateTimerTask>:
    70ae:	ef 92       	push	r14
    70b0:	ff 92       	push	r15
    70b2:	0f 93       	push	r16
    70b4:	a9 df       	rcall	.-174    	; 0x7008 <prvCheckForValidListAndQueue>
    70b6:	80 91 73 20 	lds	r24, 0x2073	; 0x802073 <xTimerQueue>
    70ba:	90 91 74 20 	lds	r25, 0x2074	; 0x802074 <xTimerQueue+0x1>
    70be:	89 2b       	or	r24, r25
    70c0:	79 f0       	breq	.+30     	; 0x70e0 <xTimerCreateTimerTask+0x32>
    70c2:	81 e7       	ldi	r24, 0x71	; 113
    70c4:	e8 2e       	mov	r14, r24
    70c6:	80 e2       	ldi	r24, 0x20	; 32
    70c8:	f8 2e       	mov	r15, r24
    70ca:	03 e0       	ldi	r16, 0x03	; 3
    70cc:	20 e0       	ldi	r18, 0x00	; 0
    70ce:	30 e0       	ldi	r19, 0x00	; 0
    70d0:	48 e7       	ldi	r20, 0x78	; 120
    70d2:	50 e0       	ldi	r21, 0x00	; 0
    70d4:	68 e1       	ldi	r22, 0x18	; 24
    70d6:	73 e0       	ldi	r23, 0x03	; 3
    70d8:	83 e0       	ldi	r24, 0x03	; 3
    70da:	99 e3       	ldi	r25, 0x39	; 57
    70dc:	4c d8       	rcall	.-3944   	; 0x6176 <xTaskCreate>
    70de:	01 c0       	rjmp	.+2      	; 0x70e2 <xTimerCreateTimerTask+0x34>
    70e0:	80 e0       	ldi	r24, 0x00	; 0
    70e2:	0f 91       	pop	r16
    70e4:	ff 90       	pop	r15
    70e6:	ef 90       	pop	r14
    70e8:	08 95       	ret

000070ea <xTimerGenericCommand>:
    70ea:	0f 93       	push	r16
    70ec:	1f 93       	push	r17
    70ee:	cf 93       	push	r28
    70f0:	df 93       	push	r29
    70f2:	00 d0       	rcall	.+0      	; 0x70f4 <xTimerGenericCommand+0xa>
    70f4:	1f 92       	push	r1
    70f6:	1f 92       	push	r1
    70f8:	cd b7       	in	r28, 0x3d	; 61
    70fa:	de b7       	in	r29, 0x3e	; 62
    70fc:	a0 91 73 20 	lds	r26, 0x2073	; 0x802073 <xTimerQueue>
    7100:	b0 91 74 20 	lds	r27, 0x2074	; 0x802074 <xTimerQueue+0x1>
    7104:	10 97       	sbiw	r26, 0x00	; 0
    7106:	21 f1       	breq	.+72     	; 0x7150 <xTimerGenericCommand+0x66>
    7108:	f9 01       	movw	r30, r18
    710a:	69 83       	std	Y+1, r22	; 0x01
    710c:	5b 83       	std	Y+3, r21	; 0x03
    710e:	4a 83       	std	Y+2, r20	; 0x02
    7110:	9d 83       	std	Y+5, r25	; 0x05
    7112:	8c 83       	std	Y+4, r24	; 0x04
    7114:	66 30       	cpi	r22, 0x06	; 6
    7116:	9c f4       	brge	.+38     	; 0x713e <xTimerGenericCommand+0x54>
    7118:	dd dd       	rcall	.-1094   	; 0x6cd4 <xTaskGetSchedulerState>
    711a:	e0 91 73 20 	lds	r30, 0x2073	; 0x802073 <xTimerQueue>
    711e:	f0 91 74 20 	lds	r31, 0x2074	; 0x802074 <xTimerQueue+0x1>
    7122:	20 e0       	ldi	r18, 0x00	; 0
    7124:	82 30       	cpi	r24, 0x02	; 2
    7126:	11 f4       	brne	.+4      	; 0x712c <xTimerGenericCommand+0x42>
    7128:	a8 01       	movw	r20, r16
    712a:	02 c0       	rjmp	.+4      	; 0x7130 <xTimerGenericCommand+0x46>
    712c:	40 e0       	ldi	r20, 0x00	; 0
    712e:	50 e0       	ldi	r21, 0x00	; 0
    7130:	be 01       	movw	r22, r28
    7132:	6f 5f       	subi	r22, 0xFF	; 255
    7134:	7f 4f       	sbci	r23, 0xFF	; 255
    7136:	cf 01       	movw	r24, r30
    7138:	0e 94 24 2d 	call	0x5a48	; 0x5a48 <xQueueGenericSend>
    713c:	0a c0       	rjmp	.+20     	; 0x7152 <xTimerGenericCommand+0x68>
    713e:	20 e0       	ldi	r18, 0x00	; 0
    7140:	af 01       	movw	r20, r30
    7142:	be 01       	movw	r22, r28
    7144:	6f 5f       	subi	r22, 0xFF	; 255
    7146:	7f 4f       	sbci	r23, 0xFF	; 255
    7148:	cd 01       	movw	r24, r26
    714a:	0e 94 c4 2d 	call	0x5b88	; 0x5b88 <xQueueGenericSendFromISR>
    714e:	01 c0       	rjmp	.+2      	; 0x7152 <xTimerGenericCommand+0x68>
    7150:	80 e0       	ldi	r24, 0x00	; 0
    7152:	0f 90       	pop	r0
    7154:	0f 90       	pop	r0
    7156:	0f 90       	pop	r0
    7158:	0f 90       	pop	r0
    715a:	0f 90       	pop	r0
    715c:	df 91       	pop	r29
    715e:	cf 91       	pop	r28
    7160:	1f 91       	pop	r17
    7162:	0f 91       	pop	r16
    7164:	08 95       	ret

00007166 <prvSwitchTimerLists>:
    7166:	ef 92       	push	r14
    7168:	ff 92       	push	r15
    716a:	0f 93       	push	r16
    716c:	1f 93       	push	r17
    716e:	cf 93       	push	r28
    7170:	df 93       	push	r29
    7172:	e0 91 77 20 	lds	r30, 0x2077	; 0x802077 <pxCurrentTimerList>
    7176:	f0 91 78 20 	lds	r31, 0x2078	; 0x802078 <pxCurrentTimerList+0x1>
    717a:	80 81       	ld	r24, Z
    717c:	88 23       	and	r24, r24
    717e:	81 f1       	breq	.+96     	; 0x71e0 <prvSwitchTimerLists+0x7a>
    7180:	05 80       	ldd	r0, Z+5	; 0x05
    7182:	f6 81       	ldd	r31, Z+6	; 0x06
    7184:	e0 2d       	mov	r30, r0
    7186:	e0 80       	ld	r14, Z
    7188:	f1 80       	ldd	r15, Z+1	; 0x01
    718a:	c6 81       	ldd	r28, Z+6	; 0x06
    718c:	d7 81       	ldd	r29, Z+7	; 0x07
    718e:	8e 01       	movw	r16, r28
    7190:	0e 5f       	subi	r16, 0xFE	; 254
    7192:	1f 4f       	sbci	r17, 0xFF	; 255
    7194:	c8 01       	movw	r24, r16
    7196:	0e 94 77 24 	call	0x48ee	; 0x48ee <uxListRemove>
    719a:	e8 89       	ldd	r30, Y+16	; 0x10
    719c:	f9 89       	ldd	r31, Y+17	; 0x11
    719e:	ce 01       	movw	r24, r28
    71a0:	19 95       	eicall
    71a2:	8b 89       	ldd	r24, Y+19	; 0x13
    71a4:	82 ff       	sbrs	r24, 2
    71a6:	e5 cf       	rjmp	.-54     	; 0x7172 <prvSwitchTimerLists+0xc>
    71a8:	8c 85       	ldd	r24, Y+12	; 0x0c
    71aa:	9d 85       	ldd	r25, Y+13	; 0x0d
    71ac:	8e 0d       	add	r24, r14
    71ae:	9f 1d       	adc	r25, r15
    71b0:	e8 16       	cp	r14, r24
    71b2:	f9 06       	cpc	r15, r25
    71b4:	60 f4       	brcc	.+24     	; 0x71ce <prvSwitchTimerLists+0x68>
    71b6:	9b 83       	std	Y+3, r25	; 0x03
    71b8:	8a 83       	std	Y+2, r24	; 0x02
    71ba:	d9 87       	std	Y+9, r29	; 0x09
    71bc:	c8 87       	std	Y+8, r28	; 0x08
    71be:	b8 01       	movw	r22, r16
    71c0:	80 91 77 20 	lds	r24, 0x2077	; 0x802077 <pxCurrentTimerList>
    71c4:	90 91 78 20 	lds	r25, 0x2078	; 0x802078 <pxCurrentTimerList+0x1>
    71c8:	0e 94 3f 24 	call	0x487e	; 0x487e <vListInsert>
    71cc:	d2 cf       	rjmp	.-92     	; 0x7172 <prvSwitchTimerLists+0xc>
    71ce:	00 e0       	ldi	r16, 0x00	; 0
    71d0:	10 e0       	ldi	r17, 0x00	; 0
    71d2:	20 e0       	ldi	r18, 0x00	; 0
    71d4:	30 e0       	ldi	r19, 0x00	; 0
    71d6:	a7 01       	movw	r20, r14
    71d8:	60 e0       	ldi	r22, 0x00	; 0
    71da:	ce 01       	movw	r24, r28
    71dc:	86 df       	rcall	.-244    	; 0x70ea <xTimerGenericCommand>
    71de:	c9 cf       	rjmp	.-110    	; 0x7172 <prvSwitchTimerLists+0xc>
    71e0:	80 91 75 20 	lds	r24, 0x2075	; 0x802075 <pxOverflowTimerList>
    71e4:	90 91 76 20 	lds	r25, 0x2076	; 0x802076 <pxOverflowTimerList+0x1>
    71e8:	90 93 78 20 	sts	0x2078, r25	; 0x802078 <pxCurrentTimerList+0x1>
    71ec:	80 93 77 20 	sts	0x2077, r24	; 0x802077 <pxCurrentTimerList>
    71f0:	f0 93 76 20 	sts	0x2076, r31	; 0x802076 <pxOverflowTimerList+0x1>
    71f4:	e0 93 75 20 	sts	0x2075, r30	; 0x802075 <pxOverflowTimerList>
    71f8:	df 91       	pop	r29
    71fa:	cf 91       	pop	r28
    71fc:	1f 91       	pop	r17
    71fe:	0f 91       	pop	r16
    7200:	ff 90       	pop	r15
    7202:	ef 90       	pop	r14
    7204:	08 95       	ret

00007206 <prvTimerTask>:
    7206:	cf 93       	push	r28
    7208:	df 93       	push	r29
    720a:	00 d0       	rcall	.+0      	; 0x720c <prvTimerTask+0x6>
    720c:	1f 92       	push	r1
    720e:	1f 92       	push	r1
    7210:	cd b7       	in	r28, 0x3d	; 61
    7212:	de b7       	in	r29, 0x3e	; 62
    7214:	e0 91 77 20 	lds	r30, 0x2077	; 0x802077 <pxCurrentTimerList>
    7218:	f0 91 78 20 	lds	r31, 0x2078	; 0x802078 <pxCurrentTimerList+0x1>
    721c:	d0 80       	ld	r13, Z
    721e:	dd 20       	and	r13, r13
    7220:	31 f0       	breq	.+12     	; 0x722e <prvTimerTask+0x28>
    7222:	05 80       	ldd	r0, Z+5	; 0x05
    7224:	f6 81       	ldd	r31, Z+6	; 0x06
    7226:	e0 2d       	mov	r30, r0
    7228:	e0 80       	ld	r14, Z
    722a:	f1 80       	ldd	r15, Z+1	; 0x01
    722c:	02 c0       	rjmp	.+4      	; 0x7232 <prvTimerTask+0x2c>
    722e:	e1 2c       	mov	r14, r1
    7230:	f1 2c       	mov	r15, r1
    7232:	61 d9       	rcall	.-3390   	; 0x64f6 <vTaskSuspendAll>
    7234:	66 d9       	rcall	.-3380   	; 0x6502 <xTaskGetTickCount>
    7236:	8c 01       	movw	r16, r24
    7238:	80 91 6f 20 	lds	r24, 0x206F	; 0x80206f <xLastTime.2399>
    723c:	90 91 70 20 	lds	r25, 0x2070	; 0x802070 <xLastTime.2399+0x1>
    7240:	08 17       	cp	r16, r24
    7242:	19 07       	cpc	r17, r25
    7244:	18 f4       	brcc	.+6      	; 0x724c <prvTimerTask+0x46>
    7246:	8f df       	rcall	.-226    	; 0x7166 <prvSwitchTimerLists>
    7248:	81 e0       	ldi	r24, 0x01	; 1
    724a:	01 c0       	rjmp	.+2      	; 0x724e <prvTimerTask+0x48>
    724c:	80 e0       	ldi	r24, 0x00	; 0
    724e:	10 93 70 20 	sts	0x2070, r17	; 0x802070 <xLastTime.2399+0x1>
    7252:	00 93 6f 20 	sts	0x206F, r16	; 0x80206f <xLastTime.2399>
    7256:	81 11       	cpse	r24, r1
    7258:	51 c0       	rjmp	.+162    	; 0x72fc <prvTimerTask+0xf6>
    725a:	dd 20       	and	r13, r13
    725c:	c1 f1       	breq	.+112    	; 0x72ce <prvTimerTask+0xc8>
    725e:	0e 15       	cp	r16, r14
    7260:	1f 05       	cpc	r17, r15
    7262:	08 f4       	brcc	.+2      	; 0x7266 <prvTimerTask+0x60>
    7264:	3b c0       	rjmp	.+118    	; 0x72dc <prvTimerTask+0xd6>
    7266:	ff d9       	rcall	.-3074   	; 0x6666 <xTaskResumeAll>
    7268:	e0 91 77 20 	lds	r30, 0x2077	; 0x802077 <pxCurrentTimerList>
    726c:	f0 91 78 20 	lds	r31, 0x2078	; 0x802078 <pxCurrentTimerList+0x1>
    7270:	05 80       	ldd	r0, Z+5	; 0x05
    7272:	f6 81       	ldd	r31, Z+6	; 0x06
    7274:	e0 2d       	mov	r30, r0
    7276:	c6 80       	ldd	r12, Z+6	; 0x06
    7278:	d7 80       	ldd	r13, Z+7	; 0x07
    727a:	c6 01       	movw	r24, r12
    727c:	02 96       	adiw	r24, 0x02	; 2
    727e:	0e 94 77 24 	call	0x48ee	; 0x48ee <uxListRemove>
    7282:	d6 01       	movw	r26, r12
    7284:	53 96       	adiw	r26, 0x13	; 19
    7286:	8c 91       	ld	r24, X
    7288:	53 97       	sbiw	r26, 0x13	; 19
    728a:	82 ff       	sbrs	r24, 2
    728c:	15 c0       	rjmp	.+42     	; 0x72b8 <prvTimerTask+0xb2>
    728e:	1c 96       	adiw	r26, 0x0c	; 12
    7290:	6d 91       	ld	r22, X+
    7292:	7c 91       	ld	r23, X
    7294:	1d 97       	sbiw	r26, 0x0d	; 13
    7296:	6e 0d       	add	r22, r14
    7298:	7f 1d       	adc	r23, r15
    729a:	97 01       	movw	r18, r14
    729c:	a8 01       	movw	r20, r16
    729e:	c6 01       	movw	r24, r12
    72a0:	dc de       	rcall	.-584    	; 0x705a <prvInsertTimerInActiveList>
    72a2:	88 23       	and	r24, r24
    72a4:	61 f0       	breq	.+24     	; 0x72be <prvTimerTask+0xb8>
    72a6:	00 e0       	ldi	r16, 0x00	; 0
    72a8:	10 e0       	ldi	r17, 0x00	; 0
    72aa:	20 e0       	ldi	r18, 0x00	; 0
    72ac:	30 e0       	ldi	r19, 0x00	; 0
    72ae:	a7 01       	movw	r20, r14
    72b0:	60 e0       	ldi	r22, 0x00	; 0
    72b2:	c6 01       	movw	r24, r12
    72b4:	1a df       	rcall	.-460    	; 0x70ea <xTimerGenericCommand>
    72b6:	03 c0       	rjmp	.+6      	; 0x72be <prvTimerTask+0xb8>
    72b8:	8e 7f       	andi	r24, 0xFE	; 254
    72ba:	f6 01       	movw	r30, r12
    72bc:	83 8b       	std	Z+19, r24	; 0x13
    72be:	d6 01       	movw	r26, r12
    72c0:	50 96       	adiw	r26, 0x10	; 16
    72c2:	ed 91       	ld	r30, X+
    72c4:	fc 91       	ld	r31, X
    72c6:	51 97       	sbiw	r26, 0x11	; 17
    72c8:	c6 01       	movw	r24, r12
    72ca:	19 95       	eicall
    72cc:	1c c0       	rjmp	.+56     	; 0x7306 <prvTimerTask+0x100>
    72ce:	e0 91 75 20 	lds	r30, 0x2075	; 0x802075 <pxOverflowTimerList>
    72d2:	f0 91 76 20 	lds	r31, 0x2076	; 0x802076 <pxOverflowTimerList+0x1>
    72d6:	80 81       	ld	r24, Z
    72d8:	41 e0       	ldi	r20, 0x01	; 1
    72da:	81 11       	cpse	r24, r1
    72dc:	40 e0       	ldi	r20, 0x00	; 0
    72de:	b7 01       	movw	r22, r14
    72e0:	60 1b       	sub	r22, r16
    72e2:	71 0b       	sbc	r23, r17
    72e4:	80 91 73 20 	lds	r24, 0x2073	; 0x802073 <xTimerQueue>
    72e8:	90 91 74 20 	lds	r25, 0x2074	; 0x802074 <xTimerQueue+0x1>
    72ec:	0e 94 5a 2f 	call	0x5eb4	; 0x5eb4 <vQueueWaitForMessageRestricted>
    72f0:	ba d9       	rcall	.-3212   	; 0x6666 <xTaskResumeAll>
    72f2:	81 11       	cpse	r24, r1
    72f4:	08 c0       	rjmp	.+16     	; 0x7306 <prvTimerTask+0x100>
    72f6:	0e 94 41 2b 	call	0x5682	; 0x5682 <vPortYield>
    72fa:	05 c0       	rjmp	.+10     	; 0x7306 <prvTimerTask+0x100>
    72fc:	b4 d9       	rcall	.-3224   	; 0x6666 <xTaskResumeAll>
    72fe:	03 c0       	rjmp	.+6      	; 0x7306 <prvTimerTask+0x100>
    7300:	89 81       	ldd	r24, Y+1	; 0x01
    7302:	87 ff       	sbrs	r24, 7
    7304:	0e c0       	rjmp	.+28     	; 0x7322 <prvTimerTask+0x11c>
    7306:	40 e0       	ldi	r20, 0x00	; 0
    7308:	50 e0       	ldi	r21, 0x00	; 0
    730a:	be 01       	movw	r22, r28
    730c:	6f 5f       	subi	r22, 0xFF	; 255
    730e:	7f 4f       	sbci	r23, 0xFF	; 255
    7310:	80 91 73 20 	lds	r24, 0x2073	; 0x802073 <xTimerQueue>
    7314:	90 91 74 20 	lds	r25, 0x2074	; 0x802074 <xTimerQueue+0x1>
    7318:	0e 94 f1 2d 	call	0x5be2	; 0x5be2 <xQueueReceive>
    731c:	81 11       	cpse	r24, r1
    731e:	f0 cf       	rjmp	.-32     	; 0x7300 <prvTimerTask+0xfa>
    7320:	79 cf       	rjmp	.-270    	; 0x7214 <prvTimerTask+0xe>
    7322:	ec 80       	ldd	r14, Y+4	; 0x04
    7324:	fd 80       	ldd	r15, Y+5	; 0x05
    7326:	f7 01       	movw	r30, r14
    7328:	82 85       	ldd	r24, Z+10	; 0x0a
    732a:	93 85       	ldd	r25, Z+11	; 0x0b
    732c:	89 2b       	or	r24, r25
    732e:	21 f0       	breq	.+8      	; 0x7338 <prvTimerTask+0x132>
    7330:	c7 01       	movw	r24, r14
    7332:	02 96       	adiw	r24, 0x02	; 2
    7334:	0e 94 77 24 	call	0x48ee	; 0x48ee <uxListRemove>
    7338:	e4 d8       	rcall	.-3640   	; 0x6502 <xTaskGetTickCount>
    733a:	6c 01       	movw	r12, r24
    733c:	80 91 6f 20 	lds	r24, 0x206F	; 0x80206f <xLastTime.2399>
    7340:	90 91 70 20 	lds	r25, 0x2070	; 0x802070 <xLastTime.2399+0x1>
    7344:	c8 16       	cp	r12, r24
    7346:	d9 06       	cpc	r13, r25
    7348:	08 f4       	brcc	.+2      	; 0x734c <prvTimerTask+0x146>
    734a:	0d df       	rcall	.-486    	; 0x7166 <prvSwitchTimerLists>
    734c:	d0 92 70 20 	sts	0x2070, r13	; 0x802070 <xLastTime.2399+0x1>
    7350:	c0 92 6f 20 	sts	0x206F, r12	; 0x80206f <xLastTime.2399>
    7354:	89 81       	ldd	r24, Y+1	; 0x01
    7356:	08 2e       	mov	r0, r24
    7358:	00 0c       	add	r0, r0
    735a:	99 0b       	sbc	r25, r25
    735c:	aa 0b       	sbc	r26, r26
    735e:	bb 0b       	sbc	r27, r27
    7360:	8a 30       	cpi	r24, 0x0A	; 10
    7362:	91 05       	cpc	r25, r1
    7364:	80 f6       	brcc	.-96     	; 0x7306 <prvTimerTask+0x100>
    7366:	fc 01       	movw	r30, r24
    7368:	d7 01       	movw	r26, r14
    736a:	53 96       	adiw	r26, 0x13	; 19
    736c:	9c 91       	ld	r25, X
    736e:	88 27       	eor	r24, r24
    7370:	eb 55       	subi	r30, 0x5B	; 91
    7372:	ff 4f       	sbci	r31, 0xFF	; 255
    7374:	8f 4f       	sbci	r24, 0xFF	; 255
    7376:	97 c1       	rjmp	.+814    	; 0x76a6 <__tablejump2__>
    7378:	91 60       	ori	r25, 0x01	; 1
    737a:	f7 01       	movw	r30, r14
    737c:	93 8b       	std	Z+19, r25	; 0x13
    737e:	2a 81       	ldd	r18, Y+2	; 0x02
    7380:	3b 81       	ldd	r19, Y+3	; 0x03
    7382:	64 85       	ldd	r22, Z+12	; 0x0c
    7384:	75 85       	ldd	r23, Z+13	; 0x0d
    7386:	62 0f       	add	r22, r18
    7388:	73 1f       	adc	r23, r19
    738a:	a6 01       	movw	r20, r12
    738c:	c7 01       	movw	r24, r14
    738e:	65 de       	rcall	.-822    	; 0x705a <prvInsertTimerInActiveList>
    7390:	88 23       	and	r24, r24
    7392:	09 f4       	brne	.+2      	; 0x7396 <prvTimerTask+0x190>
    7394:	b8 cf       	rjmp	.-144    	; 0x7306 <prvTimerTask+0x100>
    7396:	d7 01       	movw	r26, r14
    7398:	50 96       	adiw	r26, 0x10	; 16
    739a:	ed 91       	ld	r30, X+
    739c:	fc 91       	ld	r31, X
    739e:	51 97       	sbiw	r26, 0x11	; 17
    73a0:	c7 01       	movw	r24, r14
    73a2:	19 95       	eicall
    73a4:	f7 01       	movw	r30, r14
    73a6:	83 89       	ldd	r24, Z+19	; 0x13
    73a8:	82 ff       	sbrs	r24, 2
    73aa:	ad cf       	rjmp	.-166    	; 0x7306 <prvTimerTask+0x100>
    73ac:	4a 81       	ldd	r20, Y+2	; 0x02
    73ae:	5b 81       	ldd	r21, Y+3	; 0x03
    73b0:	84 85       	ldd	r24, Z+12	; 0x0c
    73b2:	95 85       	ldd	r25, Z+13	; 0x0d
    73b4:	48 0f       	add	r20, r24
    73b6:	59 1f       	adc	r21, r25
    73b8:	00 e0       	ldi	r16, 0x00	; 0
    73ba:	10 e0       	ldi	r17, 0x00	; 0
    73bc:	20 e0       	ldi	r18, 0x00	; 0
    73be:	30 e0       	ldi	r19, 0x00	; 0
    73c0:	60 e0       	ldi	r22, 0x00	; 0
    73c2:	c7 01       	movw	r24, r14
    73c4:	92 de       	rcall	.-732    	; 0x70ea <xTimerGenericCommand>
    73c6:	9f cf       	rjmp	.-194    	; 0x7306 <prvTimerTask+0x100>
    73c8:	91 60       	ori	r25, 0x01	; 1
    73ca:	f7 01       	movw	r30, r14
    73cc:	93 8b       	std	Z+19, r25	; 0x13
    73ce:	6a 81       	ldd	r22, Y+2	; 0x02
    73d0:	7b 81       	ldd	r23, Y+3	; 0x03
    73d2:	75 87       	std	Z+13, r23	; 0x0d
    73d4:	64 87       	std	Z+12, r22	; 0x0c
    73d6:	6c 0d       	add	r22, r12
    73d8:	7d 1d       	adc	r23, r13
    73da:	96 01       	movw	r18, r12
    73dc:	a6 01       	movw	r20, r12
    73de:	c7 01       	movw	r24, r14
    73e0:	3c de       	rcall	.-904    	; 0x705a <prvInsertTimerInActiveList>
    73e2:	91 cf       	rjmp	.-222    	; 0x7306 <prvTimerTask+0x100>
    73e4:	91 fd       	sbrc	r25, 1
    73e6:	04 c0       	rjmp	.+8      	; 0x73f0 <prvTimerTask+0x1ea>
    73e8:	c7 01       	movw	r24, r14
    73ea:	0e 94 19 23 	call	0x4632	; 0x4632 <vPortFree>
    73ee:	8b cf       	rjmp	.-234    	; 0x7306 <prvTimerTask+0x100>
    73f0:	9e 7f       	andi	r25, 0xFE	; 254
    73f2:	d7 01       	movw	r26, r14
    73f4:	53 96       	adiw	r26, 0x13	; 19
    73f6:	9c 93       	st	X, r25
    73f8:	86 cf       	rjmp	.-244    	; 0x7306 <prvTimerTask+0x100>

000073fa <__floatunsisf>:
    73fa:	e8 94       	clt
    73fc:	09 c0       	rjmp	.+18     	; 0x7410 <__floatsisf+0x12>

000073fe <__floatsisf>:
    73fe:	97 fb       	bst	r25, 7
    7400:	3e f4       	brtc	.+14     	; 0x7410 <__floatsisf+0x12>
    7402:	90 95       	com	r25
    7404:	80 95       	com	r24
    7406:	70 95       	com	r23
    7408:	61 95       	neg	r22
    740a:	7f 4f       	sbci	r23, 0xFF	; 255
    740c:	8f 4f       	sbci	r24, 0xFF	; 255
    740e:	9f 4f       	sbci	r25, 0xFF	; 255
    7410:	99 23       	and	r25, r25
    7412:	a9 f0       	breq	.+42     	; 0x743e <__floatsisf+0x40>
    7414:	f9 2f       	mov	r31, r25
    7416:	96 e9       	ldi	r25, 0x96	; 150
    7418:	bb 27       	eor	r27, r27
    741a:	93 95       	inc	r25
    741c:	f6 95       	lsr	r31
    741e:	87 95       	ror	r24
    7420:	77 95       	ror	r23
    7422:	67 95       	ror	r22
    7424:	b7 95       	ror	r27
    7426:	f1 11       	cpse	r31, r1
    7428:	f8 cf       	rjmp	.-16     	; 0x741a <__floatsisf+0x1c>
    742a:	fa f4       	brpl	.+62     	; 0x746a <__floatsisf+0x6c>
    742c:	bb 0f       	add	r27, r27
    742e:	11 f4       	brne	.+4      	; 0x7434 <__floatsisf+0x36>
    7430:	60 ff       	sbrs	r22, 0
    7432:	1b c0       	rjmp	.+54     	; 0x746a <__floatsisf+0x6c>
    7434:	6f 5f       	subi	r22, 0xFF	; 255
    7436:	7f 4f       	sbci	r23, 0xFF	; 255
    7438:	8f 4f       	sbci	r24, 0xFF	; 255
    743a:	9f 4f       	sbci	r25, 0xFF	; 255
    743c:	16 c0       	rjmp	.+44     	; 0x746a <__floatsisf+0x6c>
    743e:	88 23       	and	r24, r24
    7440:	11 f0       	breq	.+4      	; 0x7446 <__floatsisf+0x48>
    7442:	96 e9       	ldi	r25, 0x96	; 150
    7444:	11 c0       	rjmp	.+34     	; 0x7468 <__floatsisf+0x6a>
    7446:	77 23       	and	r23, r23
    7448:	21 f0       	breq	.+8      	; 0x7452 <__floatsisf+0x54>
    744a:	9e e8       	ldi	r25, 0x8E	; 142
    744c:	87 2f       	mov	r24, r23
    744e:	76 2f       	mov	r23, r22
    7450:	05 c0       	rjmp	.+10     	; 0x745c <__floatsisf+0x5e>
    7452:	66 23       	and	r22, r22
    7454:	71 f0       	breq	.+28     	; 0x7472 <__floatsisf+0x74>
    7456:	96 e8       	ldi	r25, 0x86	; 134
    7458:	86 2f       	mov	r24, r22
    745a:	70 e0       	ldi	r23, 0x00	; 0
    745c:	60 e0       	ldi	r22, 0x00	; 0
    745e:	2a f0       	brmi	.+10     	; 0x746a <__floatsisf+0x6c>
    7460:	9a 95       	dec	r25
    7462:	66 0f       	add	r22, r22
    7464:	77 1f       	adc	r23, r23
    7466:	88 1f       	adc	r24, r24
    7468:	da f7       	brpl	.-10     	; 0x7460 <__floatsisf+0x62>
    746a:	88 0f       	add	r24, r24
    746c:	96 95       	lsr	r25
    746e:	87 95       	ror	r24
    7470:	97 f9       	bld	r25, 7
    7472:	08 95       	ret

00007474 <__mulsf3>:
    7474:	0b d0       	rcall	.+22     	; 0x748c <__mulsf3x>
    7476:	78 c0       	rjmp	.+240    	; 0x7568 <__fp_round>
    7478:	69 d0       	rcall	.+210    	; 0x754c <__fp_pscA>
    747a:	28 f0       	brcs	.+10     	; 0x7486 <__mulsf3+0x12>
    747c:	6e d0       	rcall	.+220    	; 0x755a <__fp_pscB>
    747e:	18 f0       	brcs	.+6      	; 0x7486 <__mulsf3+0x12>
    7480:	95 23       	and	r25, r21
    7482:	09 f0       	breq	.+2      	; 0x7486 <__mulsf3+0x12>
    7484:	5a c0       	rjmp	.+180    	; 0x753a <__fp_inf>
    7486:	5f c0       	rjmp	.+190    	; 0x7546 <__fp_nan>
    7488:	11 24       	eor	r1, r1
    748a:	a2 c0       	rjmp	.+324    	; 0x75d0 <__fp_szero>

0000748c <__mulsf3x>:
    748c:	7e d0       	rcall	.+252    	; 0x758a <__fp_split3>
    748e:	a0 f3       	brcs	.-24     	; 0x7478 <__mulsf3+0x4>

00007490 <__mulsf3_pse>:
    7490:	95 9f       	mul	r25, r21
    7492:	d1 f3       	breq	.-12     	; 0x7488 <__mulsf3+0x14>
    7494:	95 0f       	add	r25, r21
    7496:	50 e0       	ldi	r21, 0x00	; 0
    7498:	55 1f       	adc	r21, r21
    749a:	62 9f       	mul	r22, r18
    749c:	f0 01       	movw	r30, r0
    749e:	72 9f       	mul	r23, r18
    74a0:	bb 27       	eor	r27, r27
    74a2:	f0 0d       	add	r31, r0
    74a4:	b1 1d       	adc	r27, r1
    74a6:	63 9f       	mul	r22, r19
    74a8:	aa 27       	eor	r26, r26
    74aa:	f0 0d       	add	r31, r0
    74ac:	b1 1d       	adc	r27, r1
    74ae:	aa 1f       	adc	r26, r26
    74b0:	64 9f       	mul	r22, r20
    74b2:	66 27       	eor	r22, r22
    74b4:	b0 0d       	add	r27, r0
    74b6:	a1 1d       	adc	r26, r1
    74b8:	66 1f       	adc	r22, r22
    74ba:	82 9f       	mul	r24, r18
    74bc:	22 27       	eor	r18, r18
    74be:	b0 0d       	add	r27, r0
    74c0:	a1 1d       	adc	r26, r1
    74c2:	62 1f       	adc	r22, r18
    74c4:	73 9f       	mul	r23, r19
    74c6:	b0 0d       	add	r27, r0
    74c8:	a1 1d       	adc	r26, r1
    74ca:	62 1f       	adc	r22, r18
    74cc:	83 9f       	mul	r24, r19
    74ce:	a0 0d       	add	r26, r0
    74d0:	61 1d       	adc	r22, r1
    74d2:	22 1f       	adc	r18, r18
    74d4:	74 9f       	mul	r23, r20
    74d6:	33 27       	eor	r19, r19
    74d8:	a0 0d       	add	r26, r0
    74da:	61 1d       	adc	r22, r1
    74dc:	23 1f       	adc	r18, r19
    74de:	84 9f       	mul	r24, r20
    74e0:	60 0d       	add	r22, r0
    74e2:	21 1d       	adc	r18, r1
    74e4:	82 2f       	mov	r24, r18
    74e6:	76 2f       	mov	r23, r22
    74e8:	6a 2f       	mov	r22, r26
    74ea:	11 24       	eor	r1, r1
    74ec:	9f 57       	subi	r25, 0x7F	; 127
    74ee:	50 40       	sbci	r21, 0x00	; 0
    74f0:	8a f0       	brmi	.+34     	; 0x7514 <__mulsf3_pse+0x84>
    74f2:	e1 f0       	breq	.+56     	; 0x752c <__mulsf3_pse+0x9c>
    74f4:	88 23       	and	r24, r24
    74f6:	4a f0       	brmi	.+18     	; 0x750a <__mulsf3_pse+0x7a>
    74f8:	ee 0f       	add	r30, r30
    74fa:	ff 1f       	adc	r31, r31
    74fc:	bb 1f       	adc	r27, r27
    74fe:	66 1f       	adc	r22, r22
    7500:	77 1f       	adc	r23, r23
    7502:	88 1f       	adc	r24, r24
    7504:	91 50       	subi	r25, 0x01	; 1
    7506:	50 40       	sbci	r21, 0x00	; 0
    7508:	a9 f7       	brne	.-22     	; 0x74f4 <__mulsf3_pse+0x64>
    750a:	9e 3f       	cpi	r25, 0xFE	; 254
    750c:	51 05       	cpc	r21, r1
    750e:	70 f0       	brcs	.+28     	; 0x752c <__mulsf3_pse+0x9c>
    7510:	14 c0       	rjmp	.+40     	; 0x753a <__fp_inf>
    7512:	5e c0       	rjmp	.+188    	; 0x75d0 <__fp_szero>
    7514:	5f 3f       	cpi	r21, 0xFF	; 255
    7516:	ec f3       	brlt	.-6      	; 0x7512 <__mulsf3_pse+0x82>
    7518:	98 3e       	cpi	r25, 0xE8	; 232
    751a:	dc f3       	brlt	.-10     	; 0x7512 <__mulsf3_pse+0x82>
    751c:	86 95       	lsr	r24
    751e:	77 95       	ror	r23
    7520:	67 95       	ror	r22
    7522:	b7 95       	ror	r27
    7524:	f7 95       	ror	r31
    7526:	e7 95       	ror	r30
    7528:	9f 5f       	subi	r25, 0xFF	; 255
    752a:	c1 f7       	brne	.-16     	; 0x751c <__mulsf3_pse+0x8c>
    752c:	fe 2b       	or	r31, r30
    752e:	88 0f       	add	r24, r24
    7530:	91 1d       	adc	r25, r1
    7532:	96 95       	lsr	r25
    7534:	87 95       	ror	r24
    7536:	97 f9       	bld	r25, 7
    7538:	08 95       	ret

0000753a <__fp_inf>:
    753a:	97 f9       	bld	r25, 7
    753c:	9f 67       	ori	r25, 0x7F	; 127
    753e:	80 e8       	ldi	r24, 0x80	; 128
    7540:	70 e0       	ldi	r23, 0x00	; 0
    7542:	60 e0       	ldi	r22, 0x00	; 0
    7544:	08 95       	ret

00007546 <__fp_nan>:
    7546:	9f ef       	ldi	r25, 0xFF	; 255
    7548:	80 ec       	ldi	r24, 0xC0	; 192
    754a:	08 95       	ret

0000754c <__fp_pscA>:
    754c:	00 24       	eor	r0, r0
    754e:	0a 94       	dec	r0
    7550:	16 16       	cp	r1, r22
    7552:	17 06       	cpc	r1, r23
    7554:	18 06       	cpc	r1, r24
    7556:	09 06       	cpc	r0, r25
    7558:	08 95       	ret

0000755a <__fp_pscB>:
    755a:	00 24       	eor	r0, r0
    755c:	0a 94       	dec	r0
    755e:	12 16       	cp	r1, r18
    7560:	13 06       	cpc	r1, r19
    7562:	14 06       	cpc	r1, r20
    7564:	05 06       	cpc	r0, r21
    7566:	08 95       	ret

00007568 <__fp_round>:
    7568:	09 2e       	mov	r0, r25
    756a:	03 94       	inc	r0
    756c:	00 0c       	add	r0, r0
    756e:	11 f4       	brne	.+4      	; 0x7574 <__fp_round+0xc>
    7570:	88 23       	and	r24, r24
    7572:	52 f0       	brmi	.+20     	; 0x7588 <__fp_round+0x20>
    7574:	bb 0f       	add	r27, r27
    7576:	40 f4       	brcc	.+16     	; 0x7588 <__fp_round+0x20>
    7578:	bf 2b       	or	r27, r31
    757a:	11 f4       	brne	.+4      	; 0x7580 <__fp_round+0x18>
    757c:	60 ff       	sbrs	r22, 0
    757e:	04 c0       	rjmp	.+8      	; 0x7588 <__fp_round+0x20>
    7580:	6f 5f       	subi	r22, 0xFF	; 255
    7582:	7f 4f       	sbci	r23, 0xFF	; 255
    7584:	8f 4f       	sbci	r24, 0xFF	; 255
    7586:	9f 4f       	sbci	r25, 0xFF	; 255
    7588:	08 95       	ret

0000758a <__fp_split3>:
    758a:	57 fd       	sbrc	r21, 7
    758c:	90 58       	subi	r25, 0x80	; 128
    758e:	44 0f       	add	r20, r20
    7590:	55 1f       	adc	r21, r21
    7592:	59 f0       	breq	.+22     	; 0x75aa <__fp_splitA+0x10>
    7594:	5f 3f       	cpi	r21, 0xFF	; 255
    7596:	71 f0       	breq	.+28     	; 0x75b4 <__fp_splitA+0x1a>
    7598:	47 95       	ror	r20

0000759a <__fp_splitA>:
    759a:	88 0f       	add	r24, r24
    759c:	97 fb       	bst	r25, 7
    759e:	99 1f       	adc	r25, r25
    75a0:	61 f0       	breq	.+24     	; 0x75ba <__fp_splitA+0x20>
    75a2:	9f 3f       	cpi	r25, 0xFF	; 255
    75a4:	79 f0       	breq	.+30     	; 0x75c4 <__fp_splitA+0x2a>
    75a6:	87 95       	ror	r24
    75a8:	08 95       	ret
    75aa:	12 16       	cp	r1, r18
    75ac:	13 06       	cpc	r1, r19
    75ae:	14 06       	cpc	r1, r20
    75b0:	55 1f       	adc	r21, r21
    75b2:	f2 cf       	rjmp	.-28     	; 0x7598 <__fp_split3+0xe>
    75b4:	46 95       	lsr	r20
    75b6:	f1 df       	rcall	.-30     	; 0x759a <__fp_splitA>
    75b8:	08 c0       	rjmp	.+16     	; 0x75ca <__fp_splitA+0x30>
    75ba:	16 16       	cp	r1, r22
    75bc:	17 06       	cpc	r1, r23
    75be:	18 06       	cpc	r1, r24
    75c0:	99 1f       	adc	r25, r25
    75c2:	f1 cf       	rjmp	.-30     	; 0x75a6 <__fp_splitA+0xc>
    75c4:	86 95       	lsr	r24
    75c6:	71 05       	cpc	r23, r1
    75c8:	61 05       	cpc	r22, r1
    75ca:	08 94       	sec
    75cc:	08 95       	ret

000075ce <__fp_zero>:
    75ce:	e8 94       	clt

000075d0 <__fp_szero>:
    75d0:	bb 27       	eor	r27, r27
    75d2:	66 27       	eor	r22, r22
    75d4:	77 27       	eor	r23, r23
    75d6:	cb 01       	movw	r24, r22
    75d8:	97 f9       	bld	r25, 7
    75da:	08 95       	ret

000075dc <__udivmodhi4>:
    75dc:	aa 1b       	sub	r26, r26
    75de:	bb 1b       	sub	r27, r27
    75e0:	51 e1       	ldi	r21, 0x11	; 17
    75e2:	07 c0       	rjmp	.+14     	; 0x75f2 <__udivmodhi4_ep>

000075e4 <__udivmodhi4_loop>:
    75e4:	aa 1f       	adc	r26, r26
    75e6:	bb 1f       	adc	r27, r27
    75e8:	a6 17       	cp	r26, r22
    75ea:	b7 07       	cpc	r27, r23
    75ec:	10 f0       	brcs	.+4      	; 0x75f2 <__udivmodhi4_ep>
    75ee:	a6 1b       	sub	r26, r22
    75f0:	b7 0b       	sbc	r27, r23

000075f2 <__udivmodhi4_ep>:
    75f2:	88 1f       	adc	r24, r24
    75f4:	99 1f       	adc	r25, r25
    75f6:	5a 95       	dec	r21
    75f8:	a9 f7       	brne	.-22     	; 0x75e4 <__udivmodhi4_loop>
    75fa:	80 95       	com	r24
    75fc:	90 95       	com	r25
    75fe:	bc 01       	movw	r22, r24
    7600:	cd 01       	movw	r24, r26
    7602:	08 95       	ret

00007604 <__divmodhi4>:
    7604:	97 fb       	bst	r25, 7
    7606:	07 2e       	mov	r0, r23
    7608:	16 f4       	brtc	.+4      	; 0x760e <__divmodhi4+0xa>
    760a:	00 94       	com	r0
    760c:	06 d0       	rcall	.+12     	; 0x761a <__divmodhi4_neg1>
    760e:	77 fd       	sbrc	r23, 7
    7610:	08 d0       	rcall	.+16     	; 0x7622 <__divmodhi4_neg2>
    7612:	e4 df       	rcall	.-56     	; 0x75dc <__udivmodhi4>
    7614:	07 fc       	sbrc	r0, 7
    7616:	05 d0       	rcall	.+10     	; 0x7622 <__divmodhi4_neg2>
    7618:	3e f4       	brtc	.+14     	; 0x7628 <__divmodhi4_exit>

0000761a <__divmodhi4_neg1>:
    761a:	90 95       	com	r25
    761c:	81 95       	neg	r24
    761e:	9f 4f       	sbci	r25, 0xFF	; 255
    7620:	08 95       	ret

00007622 <__divmodhi4_neg2>:
    7622:	70 95       	com	r23
    7624:	61 95       	neg	r22
    7626:	7f 4f       	sbci	r23, 0xFF	; 255

00007628 <__divmodhi4_exit>:
    7628:	08 95       	ret

0000762a <__udivmodsi4>:
    762a:	a1 e2       	ldi	r26, 0x21	; 33
    762c:	1a 2e       	mov	r1, r26
    762e:	aa 1b       	sub	r26, r26
    7630:	bb 1b       	sub	r27, r27
    7632:	fd 01       	movw	r30, r26
    7634:	0d c0       	rjmp	.+26     	; 0x7650 <__udivmodsi4_ep>

00007636 <__udivmodsi4_loop>:
    7636:	aa 1f       	adc	r26, r26
    7638:	bb 1f       	adc	r27, r27
    763a:	ee 1f       	adc	r30, r30
    763c:	ff 1f       	adc	r31, r31
    763e:	a2 17       	cp	r26, r18
    7640:	b3 07       	cpc	r27, r19
    7642:	e4 07       	cpc	r30, r20
    7644:	f5 07       	cpc	r31, r21
    7646:	20 f0       	brcs	.+8      	; 0x7650 <__udivmodsi4_ep>
    7648:	a2 1b       	sub	r26, r18
    764a:	b3 0b       	sbc	r27, r19
    764c:	e4 0b       	sbc	r30, r20
    764e:	f5 0b       	sbc	r31, r21

00007650 <__udivmodsi4_ep>:
    7650:	66 1f       	adc	r22, r22
    7652:	77 1f       	adc	r23, r23
    7654:	88 1f       	adc	r24, r24
    7656:	99 1f       	adc	r25, r25
    7658:	1a 94       	dec	r1
    765a:	69 f7       	brne	.-38     	; 0x7636 <__udivmodsi4_loop>
    765c:	60 95       	com	r22
    765e:	70 95       	com	r23
    7660:	80 95       	com	r24
    7662:	90 95       	com	r25
    7664:	9b 01       	movw	r18, r22
    7666:	ac 01       	movw	r20, r24
    7668:	bd 01       	movw	r22, r26
    766a:	cf 01       	movw	r24, r30
    766c:	08 95       	ret

0000766e <__divmodsi4>:
    766e:	05 2e       	mov	r0, r21
    7670:	97 fb       	bst	r25, 7
    7672:	16 f4       	brtc	.+4      	; 0x7678 <__divmodsi4+0xa>
    7674:	00 94       	com	r0
    7676:	0f d0       	rcall	.+30     	; 0x7696 <__negsi2>
    7678:	57 fd       	sbrc	r21, 7
    767a:	05 d0       	rcall	.+10     	; 0x7686 <__divmodsi4_neg2>
    767c:	d6 df       	rcall	.-84     	; 0x762a <__udivmodsi4>
    767e:	07 fc       	sbrc	r0, 7
    7680:	02 d0       	rcall	.+4      	; 0x7686 <__divmodsi4_neg2>
    7682:	46 f4       	brtc	.+16     	; 0x7694 <__divmodsi4_exit>
    7684:	08 c0       	rjmp	.+16     	; 0x7696 <__negsi2>

00007686 <__divmodsi4_neg2>:
    7686:	50 95       	com	r21
    7688:	40 95       	com	r20
    768a:	30 95       	com	r19
    768c:	21 95       	neg	r18
    768e:	3f 4f       	sbci	r19, 0xFF	; 255
    7690:	4f 4f       	sbci	r20, 0xFF	; 255
    7692:	5f 4f       	sbci	r21, 0xFF	; 255

00007694 <__divmodsi4_exit>:
    7694:	08 95       	ret

00007696 <__negsi2>:
    7696:	90 95       	com	r25
    7698:	80 95       	com	r24
    769a:	70 95       	com	r23
    769c:	61 95       	neg	r22
    769e:	7f 4f       	sbci	r23, 0xFF	; 255
    76a0:	8f 4f       	sbci	r24, 0xFF	; 255
    76a2:	9f 4f       	sbci	r25, 0xFF	; 255
    76a4:	08 95       	ret

000076a6 <__tablejump2__>:
    76a6:	ee 0f       	add	r30, r30
    76a8:	ff 1f       	adc	r31, r31
    76aa:	88 1f       	adc	r24, r24
    76ac:	8b bf       	out	0x3b, r24	; 59
    76ae:	07 90       	elpm	r0, Z+
    76b0:	f6 91       	elpm	r31, Z
    76b2:	e0 2d       	mov	r30, r0
    76b4:	19 94       	eijmp

000076b6 <__bswapsi2>:
    76b6:	69 27       	eor	r22, r25
    76b8:	96 27       	eor	r25, r22
    76ba:	69 27       	eor	r22, r25
    76bc:	78 27       	eor	r23, r24
    76be:	87 27       	eor	r24, r23
    76c0:	78 27       	eor	r23, r24
    76c2:	08 95       	ret

000076c4 <__mulshisi3>:
    76c4:	b7 ff       	sbrs	r27, 7
    76c6:	04 c0       	rjmp	.+8      	; 0x76d0 <__muluhisi3>

000076c8 <__mulohisi3>:
    76c8:	03 d0       	rcall	.+6      	; 0x76d0 <__muluhisi3>
    76ca:	82 1b       	sub	r24, r18
    76cc:	93 0b       	sbc	r25, r19
    76ce:	08 95       	ret

000076d0 <__muluhisi3>:
    76d0:	09 d0       	rcall	.+18     	; 0x76e4 <__umulhisi3>
    76d2:	a5 9f       	mul	r26, r21
    76d4:	90 0d       	add	r25, r0
    76d6:	b4 9f       	mul	r27, r20
    76d8:	90 0d       	add	r25, r0
    76da:	a4 9f       	mul	r26, r20
    76dc:	80 0d       	add	r24, r0
    76de:	91 1d       	adc	r25, r1
    76e0:	11 24       	eor	r1, r1
    76e2:	08 95       	ret

000076e4 <__umulhisi3>:
    76e4:	a2 9f       	mul	r26, r18
    76e6:	b0 01       	movw	r22, r0
    76e8:	b3 9f       	mul	r27, r19
    76ea:	c0 01       	movw	r24, r0
    76ec:	a3 9f       	mul	r26, r19
    76ee:	70 0d       	add	r23, r0
    76f0:	81 1d       	adc	r24, r1
    76f2:	11 24       	eor	r1, r1
    76f4:	91 1d       	adc	r25, r1
    76f6:	b2 9f       	mul	r27, r18
    76f8:	70 0d       	add	r23, r0
    76fa:	81 1d       	adc	r24, r1
    76fc:	11 24       	eor	r1, r1
    76fe:	91 1d       	adc	r25, r1
    7700:	08 95       	ret

00007702 <do_rand>:
    7702:	8f 92       	push	r8
    7704:	9f 92       	push	r9
    7706:	af 92       	push	r10
    7708:	bf 92       	push	r11
    770a:	cf 92       	push	r12
    770c:	df 92       	push	r13
    770e:	ef 92       	push	r14
    7710:	ff 92       	push	r15
    7712:	cf 93       	push	r28
    7714:	df 93       	push	r29
    7716:	ec 01       	movw	r28, r24
    7718:	68 81       	ld	r22, Y
    771a:	79 81       	ldd	r23, Y+1	; 0x01
    771c:	8a 81       	ldd	r24, Y+2	; 0x02
    771e:	9b 81       	ldd	r25, Y+3	; 0x03
    7720:	61 15       	cp	r22, r1
    7722:	71 05       	cpc	r23, r1
    7724:	81 05       	cpc	r24, r1
    7726:	91 05       	cpc	r25, r1
    7728:	21 f4       	brne	.+8      	; 0x7732 <do_rand+0x30>
    772a:	64 e2       	ldi	r22, 0x24	; 36
    772c:	79 ed       	ldi	r23, 0xD9	; 217
    772e:	8b e5       	ldi	r24, 0x5B	; 91
    7730:	97 e0       	ldi	r25, 0x07	; 7
    7732:	2d e1       	ldi	r18, 0x1D	; 29
    7734:	33 ef       	ldi	r19, 0xF3	; 243
    7736:	41 e0       	ldi	r20, 0x01	; 1
    7738:	50 e0       	ldi	r21, 0x00	; 0
    773a:	99 df       	rcall	.-206    	; 0x766e <__divmodsi4>
    773c:	49 01       	movw	r8, r18
    773e:	5a 01       	movw	r10, r20
    7740:	9b 01       	movw	r18, r22
    7742:	ac 01       	movw	r20, r24
    7744:	a7 ea       	ldi	r26, 0xA7	; 167
    7746:	b1 e4       	ldi	r27, 0x41	; 65
    7748:	c3 df       	rcall	.-122    	; 0x76d0 <__muluhisi3>
    774a:	6b 01       	movw	r12, r22
    774c:	7c 01       	movw	r14, r24
    774e:	ac ee       	ldi	r26, 0xEC	; 236
    7750:	b4 ef       	ldi	r27, 0xF4	; 244
    7752:	a5 01       	movw	r20, r10
    7754:	94 01       	movw	r18, r8
    7756:	b8 df       	rcall	.-144    	; 0x76c8 <__mulohisi3>
    7758:	dc 01       	movw	r26, r24
    775a:	cb 01       	movw	r24, r22
    775c:	8c 0d       	add	r24, r12
    775e:	9d 1d       	adc	r25, r13
    7760:	ae 1d       	adc	r26, r14
    7762:	bf 1d       	adc	r27, r15
    7764:	b7 ff       	sbrs	r27, 7
    7766:	03 c0       	rjmp	.+6      	; 0x776e <do_rand+0x6c>
    7768:	01 97       	sbiw	r24, 0x01	; 1
    776a:	a1 09       	sbc	r26, r1
    776c:	b0 48       	sbci	r27, 0x80	; 128
    776e:	88 83       	st	Y, r24
    7770:	99 83       	std	Y+1, r25	; 0x01
    7772:	aa 83       	std	Y+2, r26	; 0x02
    7774:	bb 83       	std	Y+3, r27	; 0x03
    7776:	9f 77       	andi	r25, 0x7F	; 127
    7778:	df 91       	pop	r29
    777a:	cf 91       	pop	r28
    777c:	ff 90       	pop	r15
    777e:	ef 90       	pop	r14
    7780:	df 90       	pop	r13
    7782:	cf 90       	pop	r12
    7784:	bf 90       	pop	r11
    7786:	af 90       	pop	r10
    7788:	9f 90       	pop	r9
    778a:	8f 90       	pop	r8
    778c:	08 95       	ret

0000778e <rand_r>:
    778e:	b9 cf       	rjmp	.-142    	; 0x7702 <do_rand>

00007790 <rand>:
    7790:	80 e0       	ldi	r24, 0x00	; 0
    7792:	92 e0       	ldi	r25, 0x02	; 2
    7794:	b6 cf       	rjmp	.-148    	; 0x7702 <do_rand>

00007796 <srand>:
    7796:	a0 e0       	ldi	r26, 0x00	; 0
    7798:	b0 e0       	ldi	r27, 0x00	; 0
    779a:	80 93 00 02 	sts	0x0200, r24	; 0x800200 <__data_start>
    779e:	90 93 01 02 	sts	0x0201, r25	; 0x800201 <__data_start+0x1>
    77a2:	a0 93 02 02 	sts	0x0202, r26	; 0x800202 <__data_start+0x2>
    77a6:	b0 93 03 02 	sts	0x0203, r27	; 0x800203 <__data_start+0x3>
    77aa:	08 95       	ret

000077ac <memcmp>:
    77ac:	fb 01       	movw	r30, r22
    77ae:	dc 01       	movw	r26, r24
    77b0:	04 c0       	rjmp	.+8      	; 0x77ba <memcmp+0xe>
    77b2:	8d 91       	ld	r24, X+
    77b4:	01 90       	ld	r0, Z+
    77b6:	80 19       	sub	r24, r0
    77b8:	21 f4       	brne	.+8      	; 0x77c2 <memcmp+0x16>
    77ba:	41 50       	subi	r20, 0x01	; 1
    77bc:	50 40       	sbci	r21, 0x00	; 0
    77be:	c8 f7       	brcc	.-14     	; 0x77b2 <memcmp+0x6>
    77c0:	88 1b       	sub	r24, r24
    77c2:	99 0b       	sbc	r25, r25
    77c4:	08 95       	ret

000077c6 <memcpy>:
    77c6:	fb 01       	movw	r30, r22
    77c8:	dc 01       	movw	r26, r24
    77ca:	02 c0       	rjmp	.+4      	; 0x77d0 <memcpy+0xa>
    77cc:	01 90       	ld	r0, Z+
    77ce:	0d 92       	st	X+, r0
    77d0:	41 50       	subi	r20, 0x01	; 1
    77d2:	50 40       	sbci	r21, 0x00	; 0
    77d4:	d8 f7       	brcc	.-10     	; 0x77cc <memcpy+0x6>
    77d6:	08 95       	ret

000077d8 <memset>:
    77d8:	dc 01       	movw	r26, r24
    77da:	01 c0       	rjmp	.+2      	; 0x77de <memset+0x6>
    77dc:	6d 93       	st	X+, r22
    77de:	41 50       	subi	r20, 0x01	; 1
    77e0:	50 40       	sbci	r21, 0x00	; 0
    77e2:	e0 f7       	brcc	.-8      	; 0x77dc <memset+0x4>
    77e4:	08 95       	ret

000077e6 <strcpy>:
    77e6:	fb 01       	movw	r30, r22
    77e8:	dc 01       	movw	r26, r24
    77ea:	01 90       	ld	r0, Z+
    77ec:	0d 92       	st	X+, r0
    77ee:	00 20       	and	r0, r0
    77f0:	e1 f7       	brne	.-8      	; 0x77ea <strcpy+0x4>
    77f2:	08 95       	ret

000077f4 <strncmp>:
    77f4:	fb 01       	movw	r30, r22
    77f6:	dc 01       	movw	r26, r24
    77f8:	41 50       	subi	r20, 0x01	; 1
    77fa:	50 40       	sbci	r21, 0x00	; 0
    77fc:	30 f0       	brcs	.+12     	; 0x780a <strncmp+0x16>
    77fe:	8d 91       	ld	r24, X+
    7800:	01 90       	ld	r0, Z+
    7802:	80 19       	sub	r24, r0
    7804:	19 f4       	brne	.+6      	; 0x780c <strncmp+0x18>
    7806:	00 20       	and	r0, r0
    7808:	b9 f7       	brne	.-18     	; 0x77f8 <strncmp+0x4>
    780a:	88 1b       	sub	r24, r24
    780c:	99 0b       	sbc	r25, r25
    780e:	08 95       	ret

00007810 <strncpy>:
    7810:	fb 01       	movw	r30, r22
    7812:	dc 01       	movw	r26, r24
    7814:	41 50       	subi	r20, 0x01	; 1
    7816:	50 40       	sbci	r21, 0x00	; 0
    7818:	48 f0       	brcs	.+18     	; 0x782c <strncpy+0x1c>
    781a:	01 90       	ld	r0, Z+
    781c:	0d 92       	st	X+, r0
    781e:	00 20       	and	r0, r0
    7820:	c9 f7       	brne	.-14     	; 0x7814 <strncpy+0x4>
    7822:	01 c0       	rjmp	.+2      	; 0x7826 <strncpy+0x16>
    7824:	1d 92       	st	X+, r1
    7826:	41 50       	subi	r20, 0x01	; 1
    7828:	50 40       	sbci	r21, 0x00	; 0
    782a:	e0 f7       	brcc	.-8      	; 0x7824 <strncpy+0x14>
    782c:	08 95       	ret

0000782e <strnlen>:
    782e:	fc 01       	movw	r30, r24
    7830:	61 50       	subi	r22, 0x01	; 1
    7832:	70 40       	sbci	r23, 0x00	; 0
    7834:	01 90       	ld	r0, Z+
    7836:	01 10       	cpse	r0, r1
    7838:	d8 f7       	brcc	.-10     	; 0x7830 <strnlen+0x2>
    783a:	80 95       	com	r24
    783c:	90 95       	com	r25
    783e:	8e 0f       	add	r24, r30
    7840:	9f 1f       	adc	r25, r31
    7842:	08 95       	ret

00007844 <fdevopen>:
    7844:	0f 93       	push	r16
    7846:	1f 93       	push	r17
    7848:	cf 93       	push	r28
    784a:	df 93       	push	r29
    784c:	00 97       	sbiw	r24, 0x00	; 0
    784e:	31 f4       	brne	.+12     	; 0x785c <fdevopen+0x18>
    7850:	61 15       	cp	r22, r1
    7852:	71 05       	cpc	r23, r1
    7854:	19 f4       	brne	.+6      	; 0x785c <fdevopen+0x18>
    7856:	80 e0       	ldi	r24, 0x00	; 0
    7858:	90 e0       	ldi	r25, 0x00	; 0
    785a:	39 c0       	rjmp	.+114    	; 0x78ce <fdevopen+0x8a>
    785c:	8b 01       	movw	r16, r22
    785e:	ec 01       	movw	r28, r24
    7860:	6e e0       	ldi	r22, 0x0E	; 14
    7862:	70 e0       	ldi	r23, 0x00	; 0
    7864:	81 e0       	ldi	r24, 0x01	; 1
    7866:	90 e0       	ldi	r25, 0x00	; 0
    7868:	e6 d2       	rcall	.+1484   	; 0x7e36 <calloc>
    786a:	fc 01       	movw	r30, r24
    786c:	89 2b       	or	r24, r25
    786e:	99 f3       	breq	.-26     	; 0x7856 <fdevopen+0x12>
    7870:	80 e8       	ldi	r24, 0x80	; 128
    7872:	83 83       	std	Z+3, r24	; 0x03
    7874:	01 15       	cp	r16, r1
    7876:	11 05       	cpc	r17, r1
    7878:	71 f0       	breq	.+28     	; 0x7896 <fdevopen+0x52>
    787a:	13 87       	std	Z+11, r17	; 0x0b
    787c:	02 87       	std	Z+10, r16	; 0x0a
    787e:	81 e8       	ldi	r24, 0x81	; 129
    7880:	83 83       	std	Z+3, r24	; 0x03
    7882:	80 91 8b 20 	lds	r24, 0x208B	; 0x80208b <__iob>
    7886:	90 91 8c 20 	lds	r25, 0x208C	; 0x80208c <__iob+0x1>
    788a:	89 2b       	or	r24, r25
    788c:	21 f4       	brne	.+8      	; 0x7896 <fdevopen+0x52>
    788e:	f0 93 8c 20 	sts	0x208C, r31	; 0x80208c <__iob+0x1>
    7892:	e0 93 8b 20 	sts	0x208B, r30	; 0x80208b <__iob>
    7896:	20 97       	sbiw	r28, 0x00	; 0
    7898:	c9 f0       	breq	.+50     	; 0x78cc <fdevopen+0x88>
    789a:	d1 87       	std	Z+9, r29	; 0x09
    789c:	c0 87       	std	Z+8, r28	; 0x08
    789e:	83 81       	ldd	r24, Z+3	; 0x03
    78a0:	82 60       	ori	r24, 0x02	; 2
    78a2:	83 83       	std	Z+3, r24	; 0x03
    78a4:	80 91 8d 20 	lds	r24, 0x208D	; 0x80208d <__iob+0x2>
    78a8:	90 91 8e 20 	lds	r25, 0x208E	; 0x80208e <__iob+0x3>
    78ac:	89 2b       	or	r24, r25
    78ae:	71 f4       	brne	.+28     	; 0x78cc <fdevopen+0x88>
    78b0:	f0 93 8e 20 	sts	0x208E, r31	; 0x80208e <__iob+0x3>
    78b4:	e0 93 8d 20 	sts	0x208D, r30	; 0x80208d <__iob+0x2>
    78b8:	80 91 8f 20 	lds	r24, 0x208F	; 0x80208f <__iob+0x4>
    78bc:	90 91 90 20 	lds	r25, 0x2090	; 0x802090 <__iob+0x5>
    78c0:	89 2b       	or	r24, r25
    78c2:	21 f4       	brne	.+8      	; 0x78cc <fdevopen+0x88>
    78c4:	f0 93 90 20 	sts	0x2090, r31	; 0x802090 <__iob+0x5>
    78c8:	e0 93 8f 20 	sts	0x208F, r30	; 0x80208f <__iob+0x4>
    78cc:	cf 01       	movw	r24, r30
    78ce:	df 91       	pop	r29
    78d0:	cf 91       	pop	r28
    78d2:	1f 91       	pop	r17
    78d4:	0f 91       	pop	r16
    78d6:	08 95       	ret

000078d8 <printf>:
    78d8:	cf 93       	push	r28
    78da:	df 93       	push	r29
    78dc:	cd b7       	in	r28, 0x3d	; 61
    78de:	de b7       	in	r29, 0x3e	; 62
    78e0:	ae 01       	movw	r20, r28
    78e2:	4a 5f       	subi	r20, 0xFA	; 250
    78e4:	5f 4f       	sbci	r21, 0xFF	; 255
    78e6:	fa 01       	movw	r30, r20
    78e8:	61 91       	ld	r22, Z+
    78ea:	71 91       	ld	r23, Z+
    78ec:	af 01       	movw	r20, r30
    78ee:	80 91 8d 20 	lds	r24, 0x208D	; 0x80208d <__iob+0x2>
    78f2:	90 91 8e 20 	lds	r25, 0x208E	; 0x80208e <__iob+0x3>
    78f6:	a2 d0       	rcall	.+324    	; 0x7a3c <vfprintf>
    78f8:	df 91       	pop	r29
    78fa:	cf 91       	pop	r28
    78fc:	08 95       	ret

000078fe <printf_P>:
    78fe:	0f 93       	push	r16
    7900:	1f 93       	push	r17
    7902:	cf 93       	push	r28
    7904:	df 93       	push	r29
    7906:	cd b7       	in	r28, 0x3d	; 61
    7908:	de b7       	in	r29, 0x3e	; 62
    790a:	ae 01       	movw	r20, r28
    790c:	48 5f       	subi	r20, 0xF8	; 248
    790e:	5f 4f       	sbci	r21, 0xFF	; 255
    7910:	da 01       	movw	r26, r20
    7912:	6d 91       	ld	r22, X+
    7914:	7d 91       	ld	r23, X+
    7916:	ad 01       	movw	r20, r26
    7918:	0b e8       	ldi	r16, 0x8B	; 139
    791a:	10 e2       	ldi	r17, 0x20	; 32
    791c:	f8 01       	movw	r30, r16
    791e:	82 81       	ldd	r24, Z+2	; 0x02
    7920:	93 81       	ldd	r25, Z+3	; 0x03
    7922:	dc 01       	movw	r26, r24
    7924:	13 96       	adiw	r26, 0x03	; 3
    7926:	2c 91       	ld	r18, X
    7928:	13 97       	sbiw	r26, 0x03	; 3
    792a:	28 60       	ori	r18, 0x08	; 8
    792c:	13 96       	adiw	r26, 0x03	; 3
    792e:	2c 93       	st	X, r18
    7930:	85 d0       	rcall	.+266    	; 0x7a3c <vfprintf>
    7932:	d8 01       	movw	r26, r16
    7934:	12 96       	adiw	r26, 0x02	; 2
    7936:	ed 91       	ld	r30, X+
    7938:	fc 91       	ld	r31, X
    793a:	13 97       	sbiw	r26, 0x03	; 3
    793c:	23 81       	ldd	r18, Z+3	; 0x03
    793e:	27 7f       	andi	r18, 0xF7	; 247
    7940:	23 83       	std	Z+3, r18	; 0x03
    7942:	df 91       	pop	r29
    7944:	cf 91       	pop	r28
    7946:	1f 91       	pop	r17
    7948:	0f 91       	pop	r16
    794a:	08 95       	ret

0000794c <snprintf_P>:
    794c:	0f 93       	push	r16
    794e:	1f 93       	push	r17
    7950:	cf 93       	push	r28
    7952:	df 93       	push	r29
    7954:	cd b7       	in	r28, 0x3d	; 61
    7956:	de b7       	in	r29, 0x3e	; 62
    7958:	2e 97       	sbiw	r28, 0x0e	; 14
    795a:	0f b6       	in	r0, 0x3f	; 63
    795c:	f8 94       	cli
    795e:	de bf       	out	0x3e, r29	; 62
    7960:	0f be       	out	0x3f, r0	; 63
    7962:	cd bf       	out	0x3d, r28	; 61
    7964:	0e 89       	ldd	r16, Y+22	; 0x16
    7966:	1f 89       	ldd	r17, Y+23	; 0x17
    7968:	88 8d       	ldd	r24, Y+24	; 0x18
    796a:	99 8d       	ldd	r25, Y+25	; 0x19
    796c:	2e e0       	ldi	r18, 0x0E	; 14
    796e:	2c 83       	std	Y+4, r18	; 0x04
    7970:	1a 83       	std	Y+2, r17	; 0x02
    7972:	09 83       	std	Y+1, r16	; 0x01
    7974:	97 ff       	sbrs	r25, 7
    7976:	02 c0       	rjmp	.+4      	; 0x797c <snprintf_P+0x30>
    7978:	80 e0       	ldi	r24, 0x00	; 0
    797a:	90 e8       	ldi	r25, 0x80	; 128
    797c:	01 97       	sbiw	r24, 0x01	; 1
    797e:	9e 83       	std	Y+6, r25	; 0x06
    7980:	8d 83       	std	Y+5, r24	; 0x05
    7982:	ae 01       	movw	r20, r28
    7984:	44 5e       	subi	r20, 0xE4	; 228
    7986:	5f 4f       	sbci	r21, 0xFF	; 255
    7988:	6a 8d       	ldd	r22, Y+26	; 0x1a
    798a:	7b 8d       	ldd	r23, Y+27	; 0x1b
    798c:	ce 01       	movw	r24, r28
    798e:	01 96       	adiw	r24, 0x01	; 1
    7990:	55 d0       	rcall	.+170    	; 0x7a3c <vfprintf>
    7992:	4d 81       	ldd	r20, Y+5	; 0x05
    7994:	5e 81       	ldd	r21, Y+6	; 0x06
    7996:	57 fd       	sbrc	r21, 7
    7998:	0a c0       	rjmp	.+20     	; 0x79ae <snprintf_P+0x62>
    799a:	2f 81       	ldd	r18, Y+7	; 0x07
    799c:	38 85       	ldd	r19, Y+8	; 0x08
    799e:	42 17       	cp	r20, r18
    79a0:	53 07       	cpc	r21, r19
    79a2:	0c f4       	brge	.+2      	; 0x79a6 <snprintf_P+0x5a>
    79a4:	9a 01       	movw	r18, r20
    79a6:	f8 01       	movw	r30, r16
    79a8:	e2 0f       	add	r30, r18
    79aa:	f3 1f       	adc	r31, r19
    79ac:	10 82       	st	Z, r1
    79ae:	2e 96       	adiw	r28, 0x0e	; 14
    79b0:	0f b6       	in	r0, 0x3f	; 63
    79b2:	f8 94       	cli
    79b4:	de bf       	out	0x3e, r29	; 62
    79b6:	0f be       	out	0x3f, r0	; 63
    79b8:	cd bf       	out	0x3d, r28	; 61
    79ba:	df 91       	pop	r29
    79bc:	cf 91       	pop	r28
    79be:	1f 91       	pop	r17
    79c0:	0f 91       	pop	r16
    79c2:	08 95       	ret

000079c4 <sprintf>:
    79c4:	0f 93       	push	r16
    79c6:	1f 93       	push	r17
    79c8:	cf 93       	push	r28
    79ca:	df 93       	push	r29
    79cc:	cd b7       	in	r28, 0x3d	; 61
    79ce:	de b7       	in	r29, 0x3e	; 62
    79d0:	2e 97       	sbiw	r28, 0x0e	; 14
    79d2:	0f b6       	in	r0, 0x3f	; 63
    79d4:	f8 94       	cli
    79d6:	de bf       	out	0x3e, r29	; 62
    79d8:	0f be       	out	0x3f, r0	; 63
    79da:	cd bf       	out	0x3d, r28	; 61
    79dc:	0e 89       	ldd	r16, Y+22	; 0x16
    79de:	1f 89       	ldd	r17, Y+23	; 0x17
    79e0:	86 e0       	ldi	r24, 0x06	; 6
    79e2:	8c 83       	std	Y+4, r24	; 0x04
    79e4:	1a 83       	std	Y+2, r17	; 0x02
    79e6:	09 83       	std	Y+1, r16	; 0x01
    79e8:	8f ef       	ldi	r24, 0xFF	; 255
    79ea:	9f e7       	ldi	r25, 0x7F	; 127
    79ec:	9e 83       	std	Y+6, r25	; 0x06
    79ee:	8d 83       	std	Y+5, r24	; 0x05
    79f0:	ae 01       	movw	r20, r28
    79f2:	46 5e       	subi	r20, 0xE6	; 230
    79f4:	5f 4f       	sbci	r21, 0xFF	; 255
    79f6:	68 8d       	ldd	r22, Y+24	; 0x18
    79f8:	79 8d       	ldd	r23, Y+25	; 0x19
    79fa:	ce 01       	movw	r24, r28
    79fc:	01 96       	adiw	r24, 0x01	; 1
    79fe:	1e d0       	rcall	.+60     	; 0x7a3c <vfprintf>
    7a00:	ef 81       	ldd	r30, Y+7	; 0x07
    7a02:	f8 85       	ldd	r31, Y+8	; 0x08
    7a04:	e0 0f       	add	r30, r16
    7a06:	f1 1f       	adc	r31, r17
    7a08:	10 82       	st	Z, r1
    7a0a:	2e 96       	adiw	r28, 0x0e	; 14
    7a0c:	0f b6       	in	r0, 0x3f	; 63
    7a0e:	f8 94       	cli
    7a10:	de bf       	out	0x3e, r29	; 62
    7a12:	0f be       	out	0x3f, r0	; 63
    7a14:	cd bf       	out	0x3d, r28	; 61
    7a16:	df 91       	pop	r29
    7a18:	cf 91       	pop	r28
    7a1a:	1f 91       	pop	r17
    7a1c:	0f 91       	pop	r16
    7a1e:	08 95       	ret

00007a20 <vfprintf_P>:
    7a20:	cf 93       	push	r28
    7a22:	df 93       	push	r29
    7a24:	ec 01       	movw	r28, r24
    7a26:	8b 81       	ldd	r24, Y+3	; 0x03
    7a28:	88 60       	ori	r24, 0x08	; 8
    7a2a:	8b 83       	std	Y+3, r24	; 0x03
    7a2c:	ce 01       	movw	r24, r28
    7a2e:	06 d0       	rcall	.+12     	; 0x7a3c <vfprintf>
    7a30:	2b 81       	ldd	r18, Y+3	; 0x03
    7a32:	27 7f       	andi	r18, 0xF7	; 247
    7a34:	2b 83       	std	Y+3, r18	; 0x03
    7a36:	df 91       	pop	r29
    7a38:	cf 91       	pop	r28
    7a3a:	08 95       	ret

00007a3c <vfprintf>:
    7a3c:	2f 92       	push	r2
    7a3e:	3f 92       	push	r3
    7a40:	4f 92       	push	r4
    7a42:	5f 92       	push	r5
    7a44:	6f 92       	push	r6
    7a46:	7f 92       	push	r7
    7a48:	8f 92       	push	r8
    7a4a:	9f 92       	push	r9
    7a4c:	af 92       	push	r10
    7a4e:	bf 92       	push	r11
    7a50:	cf 92       	push	r12
    7a52:	df 92       	push	r13
    7a54:	ef 92       	push	r14
    7a56:	ff 92       	push	r15
    7a58:	0f 93       	push	r16
    7a5a:	1f 93       	push	r17
    7a5c:	cf 93       	push	r28
    7a5e:	df 93       	push	r29
    7a60:	cd b7       	in	r28, 0x3d	; 61
    7a62:	de b7       	in	r29, 0x3e	; 62
    7a64:	2b 97       	sbiw	r28, 0x0b	; 11
    7a66:	0f b6       	in	r0, 0x3f	; 63
    7a68:	f8 94       	cli
    7a6a:	de bf       	out	0x3e, r29	; 62
    7a6c:	0f be       	out	0x3f, r0	; 63
    7a6e:	cd bf       	out	0x3d, r28	; 61
    7a70:	6c 01       	movw	r12, r24
    7a72:	7b 01       	movw	r14, r22
    7a74:	8a 01       	movw	r16, r20
    7a76:	fc 01       	movw	r30, r24
    7a78:	17 82       	std	Z+7, r1	; 0x07
    7a7a:	16 82       	std	Z+6, r1	; 0x06
    7a7c:	83 81       	ldd	r24, Z+3	; 0x03
    7a7e:	81 ff       	sbrs	r24, 1
    7a80:	bf c1       	rjmp	.+894    	; 0x7e00 <vfprintf+0x3c4>
    7a82:	ce 01       	movw	r24, r28
    7a84:	01 96       	adiw	r24, 0x01	; 1
    7a86:	3c 01       	movw	r6, r24
    7a88:	f6 01       	movw	r30, r12
    7a8a:	93 81       	ldd	r25, Z+3	; 0x03
    7a8c:	f7 01       	movw	r30, r14
    7a8e:	93 fd       	sbrc	r25, 3
    7a90:	85 91       	lpm	r24, Z+
    7a92:	93 ff       	sbrs	r25, 3
    7a94:	81 91       	ld	r24, Z+
    7a96:	7f 01       	movw	r14, r30
    7a98:	88 23       	and	r24, r24
    7a9a:	09 f4       	brne	.+2      	; 0x7a9e <vfprintf+0x62>
    7a9c:	ad c1       	rjmp	.+858    	; 0x7df8 <vfprintf+0x3bc>
    7a9e:	85 32       	cpi	r24, 0x25	; 37
    7aa0:	39 f4       	brne	.+14     	; 0x7ab0 <vfprintf+0x74>
    7aa2:	93 fd       	sbrc	r25, 3
    7aa4:	85 91       	lpm	r24, Z+
    7aa6:	93 ff       	sbrs	r25, 3
    7aa8:	81 91       	ld	r24, Z+
    7aaa:	7f 01       	movw	r14, r30
    7aac:	85 32       	cpi	r24, 0x25	; 37
    7aae:	21 f4       	brne	.+8      	; 0x7ab8 <vfprintf+0x7c>
    7ab0:	b6 01       	movw	r22, r12
    7ab2:	90 e0       	ldi	r25, 0x00	; 0
    7ab4:	06 d3       	rcall	.+1548   	; 0x80c2 <fputc>
    7ab6:	e8 cf       	rjmp	.-48     	; 0x7a88 <vfprintf+0x4c>
    7ab8:	91 2c       	mov	r9, r1
    7aba:	21 2c       	mov	r2, r1
    7abc:	31 2c       	mov	r3, r1
    7abe:	ff e1       	ldi	r31, 0x1F	; 31
    7ac0:	f3 15       	cp	r31, r3
    7ac2:	d8 f0       	brcs	.+54     	; 0x7afa <vfprintf+0xbe>
    7ac4:	8b 32       	cpi	r24, 0x2B	; 43
    7ac6:	79 f0       	breq	.+30     	; 0x7ae6 <vfprintf+0xaa>
    7ac8:	38 f4       	brcc	.+14     	; 0x7ad8 <vfprintf+0x9c>
    7aca:	80 32       	cpi	r24, 0x20	; 32
    7acc:	79 f0       	breq	.+30     	; 0x7aec <vfprintf+0xb0>
    7ace:	83 32       	cpi	r24, 0x23	; 35
    7ad0:	a1 f4       	brne	.+40     	; 0x7afa <vfprintf+0xbe>
    7ad2:	23 2d       	mov	r18, r3
    7ad4:	20 61       	ori	r18, 0x10	; 16
    7ad6:	1d c0       	rjmp	.+58     	; 0x7b12 <vfprintf+0xd6>
    7ad8:	8d 32       	cpi	r24, 0x2D	; 45
    7ada:	61 f0       	breq	.+24     	; 0x7af4 <vfprintf+0xb8>
    7adc:	80 33       	cpi	r24, 0x30	; 48
    7ade:	69 f4       	brne	.+26     	; 0x7afa <vfprintf+0xbe>
    7ae0:	23 2d       	mov	r18, r3
    7ae2:	21 60       	ori	r18, 0x01	; 1
    7ae4:	16 c0       	rjmp	.+44     	; 0x7b12 <vfprintf+0xd6>
    7ae6:	83 2d       	mov	r24, r3
    7ae8:	82 60       	ori	r24, 0x02	; 2
    7aea:	38 2e       	mov	r3, r24
    7aec:	e3 2d       	mov	r30, r3
    7aee:	e4 60       	ori	r30, 0x04	; 4
    7af0:	3e 2e       	mov	r3, r30
    7af2:	2a c0       	rjmp	.+84     	; 0x7b48 <vfprintf+0x10c>
    7af4:	f3 2d       	mov	r31, r3
    7af6:	f8 60       	ori	r31, 0x08	; 8
    7af8:	1d c0       	rjmp	.+58     	; 0x7b34 <vfprintf+0xf8>
    7afa:	37 fc       	sbrc	r3, 7
    7afc:	2d c0       	rjmp	.+90     	; 0x7b58 <vfprintf+0x11c>
    7afe:	20 ed       	ldi	r18, 0xD0	; 208
    7b00:	28 0f       	add	r18, r24
    7b02:	2a 30       	cpi	r18, 0x0A	; 10
    7b04:	40 f0       	brcs	.+16     	; 0x7b16 <vfprintf+0xda>
    7b06:	8e 32       	cpi	r24, 0x2E	; 46
    7b08:	b9 f4       	brne	.+46     	; 0x7b38 <vfprintf+0xfc>
    7b0a:	36 fc       	sbrc	r3, 6
    7b0c:	75 c1       	rjmp	.+746    	; 0x7df8 <vfprintf+0x3bc>
    7b0e:	23 2d       	mov	r18, r3
    7b10:	20 64       	ori	r18, 0x40	; 64
    7b12:	32 2e       	mov	r3, r18
    7b14:	19 c0       	rjmp	.+50     	; 0x7b48 <vfprintf+0x10c>
    7b16:	36 fe       	sbrs	r3, 6
    7b18:	06 c0       	rjmp	.+12     	; 0x7b26 <vfprintf+0xea>
    7b1a:	8a e0       	ldi	r24, 0x0A	; 10
    7b1c:	98 9e       	mul	r9, r24
    7b1e:	20 0d       	add	r18, r0
    7b20:	11 24       	eor	r1, r1
    7b22:	92 2e       	mov	r9, r18
    7b24:	11 c0       	rjmp	.+34     	; 0x7b48 <vfprintf+0x10c>
    7b26:	ea e0       	ldi	r30, 0x0A	; 10
    7b28:	2e 9e       	mul	r2, r30
    7b2a:	20 0d       	add	r18, r0
    7b2c:	11 24       	eor	r1, r1
    7b2e:	22 2e       	mov	r2, r18
    7b30:	f3 2d       	mov	r31, r3
    7b32:	f0 62       	ori	r31, 0x20	; 32
    7b34:	3f 2e       	mov	r3, r31
    7b36:	08 c0       	rjmp	.+16     	; 0x7b48 <vfprintf+0x10c>
    7b38:	8c 36       	cpi	r24, 0x6C	; 108
    7b3a:	21 f4       	brne	.+8      	; 0x7b44 <vfprintf+0x108>
    7b3c:	83 2d       	mov	r24, r3
    7b3e:	80 68       	ori	r24, 0x80	; 128
    7b40:	38 2e       	mov	r3, r24
    7b42:	02 c0       	rjmp	.+4      	; 0x7b48 <vfprintf+0x10c>
    7b44:	88 36       	cpi	r24, 0x68	; 104
    7b46:	41 f4       	brne	.+16     	; 0x7b58 <vfprintf+0x11c>
    7b48:	f7 01       	movw	r30, r14
    7b4a:	93 fd       	sbrc	r25, 3
    7b4c:	85 91       	lpm	r24, Z+
    7b4e:	93 ff       	sbrs	r25, 3
    7b50:	81 91       	ld	r24, Z+
    7b52:	7f 01       	movw	r14, r30
    7b54:	81 11       	cpse	r24, r1
    7b56:	b3 cf       	rjmp	.-154    	; 0x7abe <vfprintf+0x82>
    7b58:	98 2f       	mov	r25, r24
    7b5a:	9f 7d       	andi	r25, 0xDF	; 223
    7b5c:	95 54       	subi	r25, 0x45	; 69
    7b5e:	93 30       	cpi	r25, 0x03	; 3
    7b60:	28 f4       	brcc	.+10     	; 0x7b6c <vfprintf+0x130>
    7b62:	0c 5f       	subi	r16, 0xFC	; 252
    7b64:	1f 4f       	sbci	r17, 0xFF	; 255
    7b66:	9f e3       	ldi	r25, 0x3F	; 63
    7b68:	99 83       	std	Y+1, r25	; 0x01
    7b6a:	0d c0       	rjmp	.+26     	; 0x7b86 <vfprintf+0x14a>
    7b6c:	83 36       	cpi	r24, 0x63	; 99
    7b6e:	31 f0       	breq	.+12     	; 0x7b7c <vfprintf+0x140>
    7b70:	83 37       	cpi	r24, 0x73	; 115
    7b72:	71 f0       	breq	.+28     	; 0x7b90 <vfprintf+0x154>
    7b74:	83 35       	cpi	r24, 0x53	; 83
    7b76:	09 f0       	breq	.+2      	; 0x7b7a <vfprintf+0x13e>
    7b78:	55 c0       	rjmp	.+170    	; 0x7c24 <vfprintf+0x1e8>
    7b7a:	20 c0       	rjmp	.+64     	; 0x7bbc <vfprintf+0x180>
    7b7c:	f8 01       	movw	r30, r16
    7b7e:	80 81       	ld	r24, Z
    7b80:	89 83       	std	Y+1, r24	; 0x01
    7b82:	0e 5f       	subi	r16, 0xFE	; 254
    7b84:	1f 4f       	sbci	r17, 0xFF	; 255
    7b86:	88 24       	eor	r8, r8
    7b88:	83 94       	inc	r8
    7b8a:	91 2c       	mov	r9, r1
    7b8c:	53 01       	movw	r10, r6
    7b8e:	12 c0       	rjmp	.+36     	; 0x7bb4 <vfprintf+0x178>
    7b90:	28 01       	movw	r4, r16
    7b92:	f2 e0       	ldi	r31, 0x02	; 2
    7b94:	4f 0e       	add	r4, r31
    7b96:	51 1c       	adc	r5, r1
    7b98:	f8 01       	movw	r30, r16
    7b9a:	a0 80       	ld	r10, Z
    7b9c:	b1 80       	ldd	r11, Z+1	; 0x01
    7b9e:	36 fe       	sbrs	r3, 6
    7ba0:	03 c0       	rjmp	.+6      	; 0x7ba8 <vfprintf+0x16c>
    7ba2:	69 2d       	mov	r22, r9
    7ba4:	70 e0       	ldi	r23, 0x00	; 0
    7ba6:	02 c0       	rjmp	.+4      	; 0x7bac <vfprintf+0x170>
    7ba8:	6f ef       	ldi	r22, 0xFF	; 255
    7baa:	7f ef       	ldi	r23, 0xFF	; 255
    7bac:	c5 01       	movw	r24, r10
    7bae:	3f de       	rcall	.-898    	; 0x782e <strnlen>
    7bb0:	4c 01       	movw	r8, r24
    7bb2:	82 01       	movw	r16, r4
    7bb4:	f3 2d       	mov	r31, r3
    7bb6:	ff 77       	andi	r31, 0x7F	; 127
    7bb8:	3f 2e       	mov	r3, r31
    7bba:	15 c0       	rjmp	.+42     	; 0x7be6 <vfprintf+0x1aa>
    7bbc:	28 01       	movw	r4, r16
    7bbe:	22 e0       	ldi	r18, 0x02	; 2
    7bc0:	42 0e       	add	r4, r18
    7bc2:	51 1c       	adc	r5, r1
    7bc4:	f8 01       	movw	r30, r16
    7bc6:	a0 80       	ld	r10, Z
    7bc8:	b1 80       	ldd	r11, Z+1	; 0x01
    7bca:	36 fe       	sbrs	r3, 6
    7bcc:	03 c0       	rjmp	.+6      	; 0x7bd4 <vfprintf+0x198>
    7bce:	69 2d       	mov	r22, r9
    7bd0:	70 e0       	ldi	r23, 0x00	; 0
    7bd2:	02 c0       	rjmp	.+4      	; 0x7bd8 <vfprintf+0x19c>
    7bd4:	6f ef       	ldi	r22, 0xFF	; 255
    7bd6:	7f ef       	ldi	r23, 0xFF	; 255
    7bd8:	c5 01       	movw	r24, r10
    7bda:	68 d2       	rcall	.+1232   	; 0x80ac <strnlen_P>
    7bdc:	4c 01       	movw	r8, r24
    7bde:	f3 2d       	mov	r31, r3
    7be0:	f0 68       	ori	r31, 0x80	; 128
    7be2:	3f 2e       	mov	r3, r31
    7be4:	82 01       	movw	r16, r4
    7be6:	33 fc       	sbrc	r3, 3
    7be8:	19 c0       	rjmp	.+50     	; 0x7c1c <vfprintf+0x1e0>
    7bea:	82 2d       	mov	r24, r2
    7bec:	90 e0       	ldi	r25, 0x00	; 0
    7bee:	88 16       	cp	r8, r24
    7bf0:	99 06       	cpc	r9, r25
    7bf2:	a0 f4       	brcc	.+40     	; 0x7c1c <vfprintf+0x1e0>
    7bf4:	b6 01       	movw	r22, r12
    7bf6:	80 e2       	ldi	r24, 0x20	; 32
    7bf8:	90 e0       	ldi	r25, 0x00	; 0
    7bfa:	63 d2       	rcall	.+1222   	; 0x80c2 <fputc>
    7bfc:	2a 94       	dec	r2
    7bfe:	f5 cf       	rjmp	.-22     	; 0x7bea <vfprintf+0x1ae>
    7c00:	f5 01       	movw	r30, r10
    7c02:	37 fc       	sbrc	r3, 7
    7c04:	85 91       	lpm	r24, Z+
    7c06:	37 fe       	sbrs	r3, 7
    7c08:	81 91       	ld	r24, Z+
    7c0a:	5f 01       	movw	r10, r30
    7c0c:	b6 01       	movw	r22, r12
    7c0e:	90 e0       	ldi	r25, 0x00	; 0
    7c10:	58 d2       	rcall	.+1200   	; 0x80c2 <fputc>
    7c12:	21 10       	cpse	r2, r1
    7c14:	2a 94       	dec	r2
    7c16:	21 e0       	ldi	r18, 0x01	; 1
    7c18:	82 1a       	sub	r8, r18
    7c1a:	91 08       	sbc	r9, r1
    7c1c:	81 14       	cp	r8, r1
    7c1e:	91 04       	cpc	r9, r1
    7c20:	79 f7       	brne	.-34     	; 0x7c00 <vfprintf+0x1c4>
    7c22:	e1 c0       	rjmp	.+450    	; 0x7de6 <vfprintf+0x3aa>
    7c24:	84 36       	cpi	r24, 0x64	; 100
    7c26:	11 f0       	breq	.+4      	; 0x7c2c <vfprintf+0x1f0>
    7c28:	89 36       	cpi	r24, 0x69	; 105
    7c2a:	39 f5       	brne	.+78     	; 0x7c7a <vfprintf+0x23e>
    7c2c:	f8 01       	movw	r30, r16
    7c2e:	37 fe       	sbrs	r3, 7
    7c30:	07 c0       	rjmp	.+14     	; 0x7c40 <vfprintf+0x204>
    7c32:	60 81       	ld	r22, Z
    7c34:	71 81       	ldd	r23, Z+1	; 0x01
    7c36:	82 81       	ldd	r24, Z+2	; 0x02
    7c38:	93 81       	ldd	r25, Z+3	; 0x03
    7c3a:	0c 5f       	subi	r16, 0xFC	; 252
    7c3c:	1f 4f       	sbci	r17, 0xFF	; 255
    7c3e:	08 c0       	rjmp	.+16     	; 0x7c50 <vfprintf+0x214>
    7c40:	60 81       	ld	r22, Z
    7c42:	71 81       	ldd	r23, Z+1	; 0x01
    7c44:	07 2e       	mov	r0, r23
    7c46:	00 0c       	add	r0, r0
    7c48:	88 0b       	sbc	r24, r24
    7c4a:	99 0b       	sbc	r25, r25
    7c4c:	0e 5f       	subi	r16, 0xFE	; 254
    7c4e:	1f 4f       	sbci	r17, 0xFF	; 255
    7c50:	f3 2d       	mov	r31, r3
    7c52:	ff 76       	andi	r31, 0x6F	; 111
    7c54:	3f 2e       	mov	r3, r31
    7c56:	97 ff       	sbrs	r25, 7
    7c58:	09 c0       	rjmp	.+18     	; 0x7c6c <vfprintf+0x230>
    7c5a:	90 95       	com	r25
    7c5c:	80 95       	com	r24
    7c5e:	70 95       	com	r23
    7c60:	61 95       	neg	r22
    7c62:	7f 4f       	sbci	r23, 0xFF	; 255
    7c64:	8f 4f       	sbci	r24, 0xFF	; 255
    7c66:	9f 4f       	sbci	r25, 0xFF	; 255
    7c68:	f0 68       	ori	r31, 0x80	; 128
    7c6a:	3f 2e       	mov	r3, r31
    7c6c:	2a e0       	ldi	r18, 0x0A	; 10
    7c6e:	30 e0       	ldi	r19, 0x00	; 0
    7c70:	a3 01       	movw	r20, r6
    7c72:	63 d2       	rcall	.+1222   	; 0x813a <__ultoa_invert>
    7c74:	88 2e       	mov	r8, r24
    7c76:	86 18       	sub	r8, r6
    7c78:	44 c0       	rjmp	.+136    	; 0x7d02 <vfprintf+0x2c6>
    7c7a:	85 37       	cpi	r24, 0x75	; 117
    7c7c:	31 f4       	brne	.+12     	; 0x7c8a <vfprintf+0x24e>
    7c7e:	23 2d       	mov	r18, r3
    7c80:	2f 7e       	andi	r18, 0xEF	; 239
    7c82:	b2 2e       	mov	r11, r18
    7c84:	2a e0       	ldi	r18, 0x0A	; 10
    7c86:	30 e0       	ldi	r19, 0x00	; 0
    7c88:	25 c0       	rjmp	.+74     	; 0x7cd4 <vfprintf+0x298>
    7c8a:	93 2d       	mov	r25, r3
    7c8c:	99 7f       	andi	r25, 0xF9	; 249
    7c8e:	b9 2e       	mov	r11, r25
    7c90:	8f 36       	cpi	r24, 0x6F	; 111
    7c92:	c1 f0       	breq	.+48     	; 0x7cc4 <vfprintf+0x288>
    7c94:	18 f4       	brcc	.+6      	; 0x7c9c <vfprintf+0x260>
    7c96:	88 35       	cpi	r24, 0x58	; 88
    7c98:	79 f0       	breq	.+30     	; 0x7cb8 <vfprintf+0x27c>
    7c9a:	ae c0       	rjmp	.+348    	; 0x7df8 <vfprintf+0x3bc>
    7c9c:	80 37       	cpi	r24, 0x70	; 112
    7c9e:	19 f0       	breq	.+6      	; 0x7ca6 <vfprintf+0x26a>
    7ca0:	88 37       	cpi	r24, 0x78	; 120
    7ca2:	21 f0       	breq	.+8      	; 0x7cac <vfprintf+0x270>
    7ca4:	a9 c0       	rjmp	.+338    	; 0x7df8 <vfprintf+0x3bc>
    7ca6:	e9 2f       	mov	r30, r25
    7ca8:	e0 61       	ori	r30, 0x10	; 16
    7caa:	be 2e       	mov	r11, r30
    7cac:	b4 fe       	sbrs	r11, 4
    7cae:	0d c0       	rjmp	.+26     	; 0x7cca <vfprintf+0x28e>
    7cb0:	fb 2d       	mov	r31, r11
    7cb2:	f4 60       	ori	r31, 0x04	; 4
    7cb4:	bf 2e       	mov	r11, r31
    7cb6:	09 c0       	rjmp	.+18     	; 0x7cca <vfprintf+0x28e>
    7cb8:	34 fe       	sbrs	r3, 4
    7cba:	0a c0       	rjmp	.+20     	; 0x7cd0 <vfprintf+0x294>
    7cbc:	29 2f       	mov	r18, r25
    7cbe:	26 60       	ori	r18, 0x06	; 6
    7cc0:	b2 2e       	mov	r11, r18
    7cc2:	06 c0       	rjmp	.+12     	; 0x7cd0 <vfprintf+0x294>
    7cc4:	28 e0       	ldi	r18, 0x08	; 8
    7cc6:	30 e0       	ldi	r19, 0x00	; 0
    7cc8:	05 c0       	rjmp	.+10     	; 0x7cd4 <vfprintf+0x298>
    7cca:	20 e1       	ldi	r18, 0x10	; 16
    7ccc:	30 e0       	ldi	r19, 0x00	; 0
    7cce:	02 c0       	rjmp	.+4      	; 0x7cd4 <vfprintf+0x298>
    7cd0:	20 e1       	ldi	r18, 0x10	; 16
    7cd2:	32 e0       	ldi	r19, 0x02	; 2
    7cd4:	f8 01       	movw	r30, r16
    7cd6:	b7 fe       	sbrs	r11, 7
    7cd8:	07 c0       	rjmp	.+14     	; 0x7ce8 <vfprintf+0x2ac>
    7cda:	60 81       	ld	r22, Z
    7cdc:	71 81       	ldd	r23, Z+1	; 0x01
    7cde:	82 81       	ldd	r24, Z+2	; 0x02
    7ce0:	93 81       	ldd	r25, Z+3	; 0x03
    7ce2:	0c 5f       	subi	r16, 0xFC	; 252
    7ce4:	1f 4f       	sbci	r17, 0xFF	; 255
    7ce6:	06 c0       	rjmp	.+12     	; 0x7cf4 <vfprintf+0x2b8>
    7ce8:	60 81       	ld	r22, Z
    7cea:	71 81       	ldd	r23, Z+1	; 0x01
    7cec:	80 e0       	ldi	r24, 0x00	; 0
    7cee:	90 e0       	ldi	r25, 0x00	; 0
    7cf0:	0e 5f       	subi	r16, 0xFE	; 254
    7cf2:	1f 4f       	sbci	r17, 0xFF	; 255
    7cf4:	a3 01       	movw	r20, r6
    7cf6:	21 d2       	rcall	.+1090   	; 0x813a <__ultoa_invert>
    7cf8:	88 2e       	mov	r8, r24
    7cfa:	86 18       	sub	r8, r6
    7cfc:	fb 2d       	mov	r31, r11
    7cfe:	ff 77       	andi	r31, 0x7F	; 127
    7d00:	3f 2e       	mov	r3, r31
    7d02:	36 fe       	sbrs	r3, 6
    7d04:	0d c0       	rjmp	.+26     	; 0x7d20 <vfprintf+0x2e4>
    7d06:	23 2d       	mov	r18, r3
    7d08:	2e 7f       	andi	r18, 0xFE	; 254
    7d0a:	a2 2e       	mov	r10, r18
    7d0c:	89 14       	cp	r8, r9
    7d0e:	58 f4       	brcc	.+22     	; 0x7d26 <vfprintf+0x2ea>
    7d10:	34 fe       	sbrs	r3, 4
    7d12:	0b c0       	rjmp	.+22     	; 0x7d2a <vfprintf+0x2ee>
    7d14:	32 fc       	sbrc	r3, 2
    7d16:	09 c0       	rjmp	.+18     	; 0x7d2a <vfprintf+0x2ee>
    7d18:	83 2d       	mov	r24, r3
    7d1a:	8e 7e       	andi	r24, 0xEE	; 238
    7d1c:	a8 2e       	mov	r10, r24
    7d1e:	05 c0       	rjmp	.+10     	; 0x7d2a <vfprintf+0x2ee>
    7d20:	b8 2c       	mov	r11, r8
    7d22:	a3 2c       	mov	r10, r3
    7d24:	03 c0       	rjmp	.+6      	; 0x7d2c <vfprintf+0x2f0>
    7d26:	b8 2c       	mov	r11, r8
    7d28:	01 c0       	rjmp	.+2      	; 0x7d2c <vfprintf+0x2f0>
    7d2a:	b9 2c       	mov	r11, r9
    7d2c:	a4 fe       	sbrs	r10, 4
    7d2e:	0f c0       	rjmp	.+30     	; 0x7d4e <vfprintf+0x312>
    7d30:	fe 01       	movw	r30, r28
    7d32:	e8 0d       	add	r30, r8
    7d34:	f1 1d       	adc	r31, r1
    7d36:	80 81       	ld	r24, Z
    7d38:	80 33       	cpi	r24, 0x30	; 48
    7d3a:	21 f4       	brne	.+8      	; 0x7d44 <vfprintf+0x308>
    7d3c:	9a 2d       	mov	r25, r10
    7d3e:	99 7e       	andi	r25, 0xE9	; 233
    7d40:	a9 2e       	mov	r10, r25
    7d42:	09 c0       	rjmp	.+18     	; 0x7d56 <vfprintf+0x31a>
    7d44:	a2 fe       	sbrs	r10, 2
    7d46:	06 c0       	rjmp	.+12     	; 0x7d54 <vfprintf+0x318>
    7d48:	b3 94       	inc	r11
    7d4a:	b3 94       	inc	r11
    7d4c:	04 c0       	rjmp	.+8      	; 0x7d56 <vfprintf+0x31a>
    7d4e:	8a 2d       	mov	r24, r10
    7d50:	86 78       	andi	r24, 0x86	; 134
    7d52:	09 f0       	breq	.+2      	; 0x7d56 <vfprintf+0x31a>
    7d54:	b3 94       	inc	r11
    7d56:	a3 fc       	sbrc	r10, 3
    7d58:	10 c0       	rjmp	.+32     	; 0x7d7a <vfprintf+0x33e>
    7d5a:	a0 fe       	sbrs	r10, 0
    7d5c:	06 c0       	rjmp	.+12     	; 0x7d6a <vfprintf+0x32e>
    7d5e:	b2 14       	cp	r11, r2
    7d60:	80 f4       	brcc	.+32     	; 0x7d82 <vfprintf+0x346>
    7d62:	28 0c       	add	r2, r8
    7d64:	92 2c       	mov	r9, r2
    7d66:	9b 18       	sub	r9, r11
    7d68:	0d c0       	rjmp	.+26     	; 0x7d84 <vfprintf+0x348>
    7d6a:	b2 14       	cp	r11, r2
    7d6c:	58 f4       	brcc	.+22     	; 0x7d84 <vfprintf+0x348>
    7d6e:	b6 01       	movw	r22, r12
    7d70:	80 e2       	ldi	r24, 0x20	; 32
    7d72:	90 e0       	ldi	r25, 0x00	; 0
    7d74:	a6 d1       	rcall	.+844    	; 0x80c2 <fputc>
    7d76:	b3 94       	inc	r11
    7d78:	f8 cf       	rjmp	.-16     	; 0x7d6a <vfprintf+0x32e>
    7d7a:	b2 14       	cp	r11, r2
    7d7c:	18 f4       	brcc	.+6      	; 0x7d84 <vfprintf+0x348>
    7d7e:	2b 18       	sub	r2, r11
    7d80:	02 c0       	rjmp	.+4      	; 0x7d86 <vfprintf+0x34a>
    7d82:	98 2c       	mov	r9, r8
    7d84:	21 2c       	mov	r2, r1
    7d86:	a4 fe       	sbrs	r10, 4
    7d88:	0f c0       	rjmp	.+30     	; 0x7da8 <vfprintf+0x36c>
    7d8a:	b6 01       	movw	r22, r12
    7d8c:	80 e3       	ldi	r24, 0x30	; 48
    7d8e:	90 e0       	ldi	r25, 0x00	; 0
    7d90:	98 d1       	rcall	.+816    	; 0x80c2 <fputc>
    7d92:	a2 fe       	sbrs	r10, 2
    7d94:	16 c0       	rjmp	.+44     	; 0x7dc2 <vfprintf+0x386>
    7d96:	a1 fc       	sbrc	r10, 1
    7d98:	03 c0       	rjmp	.+6      	; 0x7da0 <vfprintf+0x364>
    7d9a:	88 e7       	ldi	r24, 0x78	; 120
    7d9c:	90 e0       	ldi	r25, 0x00	; 0
    7d9e:	02 c0       	rjmp	.+4      	; 0x7da4 <vfprintf+0x368>
    7da0:	88 e5       	ldi	r24, 0x58	; 88
    7da2:	90 e0       	ldi	r25, 0x00	; 0
    7da4:	b6 01       	movw	r22, r12
    7da6:	0c c0       	rjmp	.+24     	; 0x7dc0 <vfprintf+0x384>
    7da8:	8a 2d       	mov	r24, r10
    7daa:	86 78       	andi	r24, 0x86	; 134
    7dac:	51 f0       	breq	.+20     	; 0x7dc2 <vfprintf+0x386>
    7dae:	a1 fe       	sbrs	r10, 1
    7db0:	02 c0       	rjmp	.+4      	; 0x7db6 <vfprintf+0x37a>
    7db2:	8b e2       	ldi	r24, 0x2B	; 43
    7db4:	01 c0       	rjmp	.+2      	; 0x7db8 <vfprintf+0x37c>
    7db6:	80 e2       	ldi	r24, 0x20	; 32
    7db8:	a7 fc       	sbrc	r10, 7
    7dba:	8d e2       	ldi	r24, 0x2D	; 45
    7dbc:	b6 01       	movw	r22, r12
    7dbe:	90 e0       	ldi	r25, 0x00	; 0
    7dc0:	80 d1       	rcall	.+768    	; 0x80c2 <fputc>
    7dc2:	89 14       	cp	r8, r9
    7dc4:	30 f4       	brcc	.+12     	; 0x7dd2 <vfprintf+0x396>
    7dc6:	b6 01       	movw	r22, r12
    7dc8:	80 e3       	ldi	r24, 0x30	; 48
    7dca:	90 e0       	ldi	r25, 0x00	; 0
    7dcc:	7a d1       	rcall	.+756    	; 0x80c2 <fputc>
    7dce:	9a 94       	dec	r9
    7dd0:	f8 cf       	rjmp	.-16     	; 0x7dc2 <vfprintf+0x386>
    7dd2:	8a 94       	dec	r8
    7dd4:	f3 01       	movw	r30, r6
    7dd6:	e8 0d       	add	r30, r8
    7dd8:	f1 1d       	adc	r31, r1
    7dda:	80 81       	ld	r24, Z
    7ddc:	b6 01       	movw	r22, r12
    7dde:	90 e0       	ldi	r25, 0x00	; 0
    7de0:	70 d1       	rcall	.+736    	; 0x80c2 <fputc>
    7de2:	81 10       	cpse	r8, r1
    7de4:	f6 cf       	rjmp	.-20     	; 0x7dd2 <vfprintf+0x396>
    7de6:	22 20       	and	r2, r2
    7de8:	09 f4       	brne	.+2      	; 0x7dec <vfprintf+0x3b0>
    7dea:	4e ce       	rjmp	.-868    	; 0x7a88 <vfprintf+0x4c>
    7dec:	b6 01       	movw	r22, r12
    7dee:	80 e2       	ldi	r24, 0x20	; 32
    7df0:	90 e0       	ldi	r25, 0x00	; 0
    7df2:	67 d1       	rcall	.+718    	; 0x80c2 <fputc>
    7df4:	2a 94       	dec	r2
    7df6:	f7 cf       	rjmp	.-18     	; 0x7de6 <vfprintf+0x3aa>
    7df8:	f6 01       	movw	r30, r12
    7dfa:	86 81       	ldd	r24, Z+6	; 0x06
    7dfc:	97 81       	ldd	r25, Z+7	; 0x07
    7dfe:	02 c0       	rjmp	.+4      	; 0x7e04 <vfprintf+0x3c8>
    7e00:	8f ef       	ldi	r24, 0xFF	; 255
    7e02:	9f ef       	ldi	r25, 0xFF	; 255
    7e04:	2b 96       	adiw	r28, 0x0b	; 11
    7e06:	0f b6       	in	r0, 0x3f	; 63
    7e08:	f8 94       	cli
    7e0a:	de bf       	out	0x3e, r29	; 62
    7e0c:	0f be       	out	0x3f, r0	; 63
    7e0e:	cd bf       	out	0x3d, r28	; 61
    7e10:	df 91       	pop	r29
    7e12:	cf 91       	pop	r28
    7e14:	1f 91       	pop	r17
    7e16:	0f 91       	pop	r16
    7e18:	ff 90       	pop	r15
    7e1a:	ef 90       	pop	r14
    7e1c:	df 90       	pop	r13
    7e1e:	cf 90       	pop	r12
    7e20:	bf 90       	pop	r11
    7e22:	af 90       	pop	r10
    7e24:	9f 90       	pop	r9
    7e26:	8f 90       	pop	r8
    7e28:	7f 90       	pop	r7
    7e2a:	6f 90       	pop	r6
    7e2c:	5f 90       	pop	r5
    7e2e:	4f 90       	pop	r4
    7e30:	3f 90       	pop	r3
    7e32:	2f 90       	pop	r2
    7e34:	08 95       	ret

00007e36 <calloc>:
    7e36:	0f 93       	push	r16
    7e38:	1f 93       	push	r17
    7e3a:	cf 93       	push	r28
    7e3c:	df 93       	push	r29
    7e3e:	86 9f       	mul	r24, r22
    7e40:	80 01       	movw	r16, r0
    7e42:	87 9f       	mul	r24, r23
    7e44:	10 0d       	add	r17, r0
    7e46:	96 9f       	mul	r25, r22
    7e48:	10 0d       	add	r17, r0
    7e4a:	11 24       	eor	r1, r1
    7e4c:	c8 01       	movw	r24, r16
    7e4e:	0d d0       	rcall	.+26     	; 0x7e6a <malloc>
    7e50:	ec 01       	movw	r28, r24
    7e52:	00 97       	sbiw	r24, 0x00	; 0
    7e54:	21 f0       	breq	.+8      	; 0x7e5e <calloc+0x28>
    7e56:	a8 01       	movw	r20, r16
    7e58:	60 e0       	ldi	r22, 0x00	; 0
    7e5a:	70 e0       	ldi	r23, 0x00	; 0
    7e5c:	bd dc       	rcall	.-1670   	; 0x77d8 <memset>
    7e5e:	ce 01       	movw	r24, r28
    7e60:	df 91       	pop	r29
    7e62:	cf 91       	pop	r28
    7e64:	1f 91       	pop	r17
    7e66:	0f 91       	pop	r16
    7e68:	08 95       	ret

00007e6a <malloc>:
    7e6a:	0f 93       	push	r16
    7e6c:	1f 93       	push	r17
    7e6e:	cf 93       	push	r28
    7e70:	df 93       	push	r29
    7e72:	82 30       	cpi	r24, 0x02	; 2
    7e74:	91 05       	cpc	r25, r1
    7e76:	10 f4       	brcc	.+4      	; 0x7e7c <malloc+0x12>
    7e78:	82 e0       	ldi	r24, 0x02	; 2
    7e7a:	90 e0       	ldi	r25, 0x00	; 0
    7e7c:	e0 91 93 20 	lds	r30, 0x2093	; 0x802093 <__flp>
    7e80:	f0 91 94 20 	lds	r31, 0x2094	; 0x802094 <__flp+0x1>
    7e84:	20 e0       	ldi	r18, 0x00	; 0
    7e86:	30 e0       	ldi	r19, 0x00	; 0
    7e88:	a0 e0       	ldi	r26, 0x00	; 0
    7e8a:	b0 e0       	ldi	r27, 0x00	; 0
    7e8c:	30 97       	sbiw	r30, 0x00	; 0
    7e8e:	19 f1       	breq	.+70     	; 0x7ed6 <malloc+0x6c>
    7e90:	40 81       	ld	r20, Z
    7e92:	51 81       	ldd	r21, Z+1	; 0x01
    7e94:	02 81       	ldd	r16, Z+2	; 0x02
    7e96:	13 81       	ldd	r17, Z+3	; 0x03
    7e98:	48 17       	cp	r20, r24
    7e9a:	59 07       	cpc	r21, r25
    7e9c:	c8 f0       	brcs	.+50     	; 0x7ed0 <malloc+0x66>
    7e9e:	84 17       	cp	r24, r20
    7ea0:	95 07       	cpc	r25, r21
    7ea2:	69 f4       	brne	.+26     	; 0x7ebe <malloc+0x54>
    7ea4:	10 97       	sbiw	r26, 0x00	; 0
    7ea6:	31 f0       	breq	.+12     	; 0x7eb4 <malloc+0x4a>
    7ea8:	12 96       	adiw	r26, 0x02	; 2
    7eaa:	0c 93       	st	X, r16
    7eac:	12 97       	sbiw	r26, 0x02	; 2
    7eae:	13 96       	adiw	r26, 0x03	; 3
    7eb0:	1c 93       	st	X, r17
    7eb2:	27 c0       	rjmp	.+78     	; 0x7f02 <malloc+0x98>
    7eb4:	00 93 93 20 	sts	0x2093, r16	; 0x802093 <__flp>
    7eb8:	10 93 94 20 	sts	0x2094, r17	; 0x802094 <__flp+0x1>
    7ebc:	22 c0       	rjmp	.+68     	; 0x7f02 <malloc+0x98>
    7ebe:	21 15       	cp	r18, r1
    7ec0:	31 05       	cpc	r19, r1
    7ec2:	19 f0       	breq	.+6      	; 0x7eca <malloc+0x60>
    7ec4:	42 17       	cp	r20, r18
    7ec6:	53 07       	cpc	r21, r19
    7ec8:	18 f4       	brcc	.+6      	; 0x7ed0 <malloc+0x66>
    7eca:	9a 01       	movw	r18, r20
    7ecc:	bd 01       	movw	r22, r26
    7ece:	ef 01       	movw	r28, r30
    7ed0:	df 01       	movw	r26, r30
    7ed2:	f8 01       	movw	r30, r16
    7ed4:	db cf       	rjmp	.-74     	; 0x7e8c <malloc+0x22>
    7ed6:	21 15       	cp	r18, r1
    7ed8:	31 05       	cpc	r19, r1
    7eda:	f9 f0       	breq	.+62     	; 0x7f1a <malloc+0xb0>
    7edc:	28 1b       	sub	r18, r24
    7ede:	39 0b       	sbc	r19, r25
    7ee0:	24 30       	cpi	r18, 0x04	; 4
    7ee2:	31 05       	cpc	r19, r1
    7ee4:	80 f4       	brcc	.+32     	; 0x7f06 <malloc+0x9c>
    7ee6:	8a 81       	ldd	r24, Y+2	; 0x02
    7ee8:	9b 81       	ldd	r25, Y+3	; 0x03
    7eea:	61 15       	cp	r22, r1
    7eec:	71 05       	cpc	r23, r1
    7eee:	21 f0       	breq	.+8      	; 0x7ef8 <malloc+0x8e>
    7ef0:	fb 01       	movw	r30, r22
    7ef2:	93 83       	std	Z+3, r25	; 0x03
    7ef4:	82 83       	std	Z+2, r24	; 0x02
    7ef6:	04 c0       	rjmp	.+8      	; 0x7f00 <malloc+0x96>
    7ef8:	90 93 94 20 	sts	0x2094, r25	; 0x802094 <__flp+0x1>
    7efc:	80 93 93 20 	sts	0x2093, r24	; 0x802093 <__flp>
    7f00:	fe 01       	movw	r30, r28
    7f02:	32 96       	adiw	r30, 0x02	; 2
    7f04:	44 c0       	rjmp	.+136    	; 0x7f8e <malloc+0x124>
    7f06:	fe 01       	movw	r30, r28
    7f08:	e2 0f       	add	r30, r18
    7f0a:	f3 1f       	adc	r31, r19
    7f0c:	81 93       	st	Z+, r24
    7f0e:	91 93       	st	Z+, r25
    7f10:	22 50       	subi	r18, 0x02	; 2
    7f12:	31 09       	sbc	r19, r1
    7f14:	39 83       	std	Y+1, r19	; 0x01
    7f16:	28 83       	st	Y, r18
    7f18:	3a c0       	rjmp	.+116    	; 0x7f8e <malloc+0x124>
    7f1a:	20 91 91 20 	lds	r18, 0x2091	; 0x802091 <__brkval>
    7f1e:	30 91 92 20 	lds	r19, 0x2092	; 0x802092 <__brkval+0x1>
    7f22:	23 2b       	or	r18, r19
    7f24:	41 f4       	brne	.+16     	; 0x7f36 <malloc+0xcc>
    7f26:	20 91 06 02 	lds	r18, 0x0206	; 0x800206 <__malloc_heap_start>
    7f2a:	30 91 07 02 	lds	r19, 0x0207	; 0x800207 <__malloc_heap_start+0x1>
    7f2e:	30 93 92 20 	sts	0x2092, r19	; 0x802092 <__brkval+0x1>
    7f32:	20 93 91 20 	sts	0x2091, r18	; 0x802091 <__brkval>
    7f36:	20 91 04 02 	lds	r18, 0x0204	; 0x800204 <__malloc_heap_end>
    7f3a:	30 91 05 02 	lds	r19, 0x0205	; 0x800205 <__malloc_heap_end+0x1>
    7f3e:	21 15       	cp	r18, r1
    7f40:	31 05       	cpc	r19, r1
    7f42:	41 f4       	brne	.+16     	; 0x7f54 <malloc+0xea>
    7f44:	2d b7       	in	r18, 0x3d	; 61
    7f46:	3e b7       	in	r19, 0x3e	; 62
    7f48:	40 91 08 02 	lds	r20, 0x0208	; 0x800208 <__malloc_margin>
    7f4c:	50 91 09 02 	lds	r21, 0x0209	; 0x800209 <__malloc_margin+0x1>
    7f50:	24 1b       	sub	r18, r20
    7f52:	35 0b       	sbc	r19, r21
    7f54:	e0 91 91 20 	lds	r30, 0x2091	; 0x802091 <__brkval>
    7f58:	f0 91 92 20 	lds	r31, 0x2092	; 0x802092 <__brkval+0x1>
    7f5c:	e2 17       	cp	r30, r18
    7f5e:	f3 07       	cpc	r31, r19
    7f60:	a0 f4       	brcc	.+40     	; 0x7f8a <malloc+0x120>
    7f62:	2e 1b       	sub	r18, r30
    7f64:	3f 0b       	sbc	r19, r31
    7f66:	28 17       	cp	r18, r24
    7f68:	39 07       	cpc	r19, r25
    7f6a:	78 f0       	brcs	.+30     	; 0x7f8a <malloc+0x120>
    7f6c:	ac 01       	movw	r20, r24
    7f6e:	4e 5f       	subi	r20, 0xFE	; 254
    7f70:	5f 4f       	sbci	r21, 0xFF	; 255
    7f72:	24 17       	cp	r18, r20
    7f74:	35 07       	cpc	r19, r21
    7f76:	48 f0       	brcs	.+18     	; 0x7f8a <malloc+0x120>
    7f78:	4e 0f       	add	r20, r30
    7f7a:	5f 1f       	adc	r21, r31
    7f7c:	50 93 92 20 	sts	0x2092, r21	; 0x802092 <__brkval+0x1>
    7f80:	40 93 91 20 	sts	0x2091, r20	; 0x802091 <__brkval>
    7f84:	81 93       	st	Z+, r24
    7f86:	91 93       	st	Z+, r25
    7f88:	02 c0       	rjmp	.+4      	; 0x7f8e <malloc+0x124>
    7f8a:	e0 e0       	ldi	r30, 0x00	; 0
    7f8c:	f0 e0       	ldi	r31, 0x00	; 0
    7f8e:	cf 01       	movw	r24, r30
    7f90:	df 91       	pop	r29
    7f92:	cf 91       	pop	r28
    7f94:	1f 91       	pop	r17
    7f96:	0f 91       	pop	r16
    7f98:	08 95       	ret

00007f9a <free>:
    7f9a:	cf 93       	push	r28
    7f9c:	df 93       	push	r29
    7f9e:	00 97       	sbiw	r24, 0x00	; 0
    7fa0:	09 f4       	brne	.+2      	; 0x7fa4 <free+0xa>
    7fa2:	81 c0       	rjmp	.+258    	; 0x80a6 <free+0x10c>
    7fa4:	fc 01       	movw	r30, r24
    7fa6:	32 97       	sbiw	r30, 0x02	; 2
    7fa8:	13 82       	std	Z+3, r1	; 0x03
    7faa:	12 82       	std	Z+2, r1	; 0x02
    7fac:	a0 91 93 20 	lds	r26, 0x2093	; 0x802093 <__flp>
    7fb0:	b0 91 94 20 	lds	r27, 0x2094	; 0x802094 <__flp+0x1>
    7fb4:	10 97       	sbiw	r26, 0x00	; 0
    7fb6:	81 f4       	brne	.+32     	; 0x7fd8 <free+0x3e>
    7fb8:	20 81       	ld	r18, Z
    7fba:	31 81       	ldd	r19, Z+1	; 0x01
    7fbc:	82 0f       	add	r24, r18
    7fbe:	93 1f       	adc	r25, r19
    7fc0:	20 91 91 20 	lds	r18, 0x2091	; 0x802091 <__brkval>
    7fc4:	30 91 92 20 	lds	r19, 0x2092	; 0x802092 <__brkval+0x1>
    7fc8:	28 17       	cp	r18, r24
    7fca:	39 07       	cpc	r19, r25
    7fcc:	51 f5       	brne	.+84     	; 0x8022 <free+0x88>
    7fce:	f0 93 92 20 	sts	0x2092, r31	; 0x802092 <__brkval+0x1>
    7fd2:	e0 93 91 20 	sts	0x2091, r30	; 0x802091 <__brkval>
    7fd6:	67 c0       	rjmp	.+206    	; 0x80a6 <free+0x10c>
    7fd8:	ed 01       	movw	r28, r26
    7fda:	20 e0       	ldi	r18, 0x00	; 0
    7fdc:	30 e0       	ldi	r19, 0x00	; 0
    7fde:	ce 17       	cp	r28, r30
    7fe0:	df 07       	cpc	r29, r31
    7fe2:	40 f4       	brcc	.+16     	; 0x7ff4 <free+0x5a>
    7fe4:	4a 81       	ldd	r20, Y+2	; 0x02
    7fe6:	5b 81       	ldd	r21, Y+3	; 0x03
    7fe8:	9e 01       	movw	r18, r28
    7fea:	41 15       	cp	r20, r1
    7fec:	51 05       	cpc	r21, r1
    7fee:	f1 f0       	breq	.+60     	; 0x802c <free+0x92>
    7ff0:	ea 01       	movw	r28, r20
    7ff2:	f5 cf       	rjmp	.-22     	; 0x7fde <free+0x44>
    7ff4:	d3 83       	std	Z+3, r29	; 0x03
    7ff6:	c2 83       	std	Z+2, r28	; 0x02
    7ff8:	40 81       	ld	r20, Z
    7ffa:	51 81       	ldd	r21, Z+1	; 0x01
    7ffc:	84 0f       	add	r24, r20
    7ffe:	95 1f       	adc	r25, r21
    8000:	c8 17       	cp	r28, r24
    8002:	d9 07       	cpc	r29, r25
    8004:	59 f4       	brne	.+22     	; 0x801c <free+0x82>
    8006:	88 81       	ld	r24, Y
    8008:	99 81       	ldd	r25, Y+1	; 0x01
    800a:	84 0f       	add	r24, r20
    800c:	95 1f       	adc	r25, r21
    800e:	02 96       	adiw	r24, 0x02	; 2
    8010:	91 83       	std	Z+1, r25	; 0x01
    8012:	80 83       	st	Z, r24
    8014:	8a 81       	ldd	r24, Y+2	; 0x02
    8016:	9b 81       	ldd	r25, Y+3	; 0x03
    8018:	93 83       	std	Z+3, r25	; 0x03
    801a:	82 83       	std	Z+2, r24	; 0x02
    801c:	21 15       	cp	r18, r1
    801e:	31 05       	cpc	r19, r1
    8020:	29 f4       	brne	.+10     	; 0x802c <free+0x92>
    8022:	f0 93 94 20 	sts	0x2094, r31	; 0x802094 <__flp+0x1>
    8026:	e0 93 93 20 	sts	0x2093, r30	; 0x802093 <__flp>
    802a:	3d c0       	rjmp	.+122    	; 0x80a6 <free+0x10c>
    802c:	e9 01       	movw	r28, r18
    802e:	fb 83       	std	Y+3, r31	; 0x03
    8030:	ea 83       	std	Y+2, r30	; 0x02
    8032:	49 91       	ld	r20, Y+
    8034:	59 91       	ld	r21, Y+
    8036:	c4 0f       	add	r28, r20
    8038:	d5 1f       	adc	r29, r21
    803a:	ec 17       	cp	r30, r28
    803c:	fd 07       	cpc	r31, r29
    803e:	61 f4       	brne	.+24     	; 0x8058 <free+0xbe>
    8040:	80 81       	ld	r24, Z
    8042:	91 81       	ldd	r25, Z+1	; 0x01
    8044:	84 0f       	add	r24, r20
    8046:	95 1f       	adc	r25, r21
    8048:	02 96       	adiw	r24, 0x02	; 2
    804a:	e9 01       	movw	r28, r18
    804c:	99 83       	std	Y+1, r25	; 0x01
    804e:	88 83       	st	Y, r24
    8050:	82 81       	ldd	r24, Z+2	; 0x02
    8052:	93 81       	ldd	r25, Z+3	; 0x03
    8054:	9b 83       	std	Y+3, r25	; 0x03
    8056:	8a 83       	std	Y+2, r24	; 0x02
    8058:	e0 e0       	ldi	r30, 0x00	; 0
    805a:	f0 e0       	ldi	r31, 0x00	; 0
    805c:	12 96       	adiw	r26, 0x02	; 2
    805e:	8d 91       	ld	r24, X+
    8060:	9c 91       	ld	r25, X
    8062:	13 97       	sbiw	r26, 0x03	; 3
    8064:	00 97       	sbiw	r24, 0x00	; 0
    8066:	19 f0       	breq	.+6      	; 0x806e <free+0xd4>
    8068:	fd 01       	movw	r30, r26
    806a:	dc 01       	movw	r26, r24
    806c:	f7 cf       	rjmp	.-18     	; 0x805c <free+0xc2>
    806e:	8d 91       	ld	r24, X+
    8070:	9c 91       	ld	r25, X
    8072:	11 97       	sbiw	r26, 0x01	; 1
    8074:	9d 01       	movw	r18, r26
    8076:	2e 5f       	subi	r18, 0xFE	; 254
    8078:	3f 4f       	sbci	r19, 0xFF	; 255
    807a:	82 0f       	add	r24, r18
    807c:	93 1f       	adc	r25, r19
    807e:	20 91 91 20 	lds	r18, 0x2091	; 0x802091 <__brkval>
    8082:	30 91 92 20 	lds	r19, 0x2092	; 0x802092 <__brkval+0x1>
    8086:	28 17       	cp	r18, r24
    8088:	39 07       	cpc	r19, r25
    808a:	69 f4       	brne	.+26     	; 0x80a6 <free+0x10c>
    808c:	30 97       	sbiw	r30, 0x00	; 0
    808e:	29 f4       	brne	.+10     	; 0x809a <free+0x100>
    8090:	10 92 94 20 	sts	0x2094, r1	; 0x802094 <__flp+0x1>
    8094:	10 92 93 20 	sts	0x2093, r1	; 0x802093 <__flp>
    8098:	02 c0       	rjmp	.+4      	; 0x809e <free+0x104>
    809a:	13 82       	std	Z+3, r1	; 0x03
    809c:	12 82       	std	Z+2, r1	; 0x02
    809e:	b0 93 92 20 	sts	0x2092, r27	; 0x802092 <__brkval+0x1>
    80a2:	a0 93 91 20 	sts	0x2091, r26	; 0x802091 <__brkval>
    80a6:	df 91       	pop	r29
    80a8:	cf 91       	pop	r28
    80aa:	08 95       	ret

000080ac <strnlen_P>:
    80ac:	fc 01       	movw	r30, r24
    80ae:	05 90       	lpm	r0, Z+
    80b0:	61 50       	subi	r22, 0x01	; 1
    80b2:	70 40       	sbci	r23, 0x00	; 0
    80b4:	01 10       	cpse	r0, r1
    80b6:	d8 f7       	brcc	.-10     	; 0x80ae <strnlen_P+0x2>
    80b8:	80 95       	com	r24
    80ba:	90 95       	com	r25
    80bc:	8e 0f       	add	r24, r30
    80be:	9f 1f       	adc	r25, r31
    80c0:	08 95       	ret

000080c2 <fputc>:
    80c2:	0f 93       	push	r16
    80c4:	1f 93       	push	r17
    80c6:	cf 93       	push	r28
    80c8:	df 93       	push	r29
    80ca:	fb 01       	movw	r30, r22
    80cc:	23 81       	ldd	r18, Z+3	; 0x03
    80ce:	21 fd       	sbrc	r18, 1
    80d0:	03 c0       	rjmp	.+6      	; 0x80d8 <fputc+0x16>
    80d2:	8f ef       	ldi	r24, 0xFF	; 255
    80d4:	9f ef       	ldi	r25, 0xFF	; 255
    80d6:	2c c0       	rjmp	.+88     	; 0x8130 <fputc+0x6e>
    80d8:	22 ff       	sbrs	r18, 2
    80da:	16 c0       	rjmp	.+44     	; 0x8108 <fputc+0x46>
    80dc:	46 81       	ldd	r20, Z+6	; 0x06
    80de:	57 81       	ldd	r21, Z+7	; 0x07
    80e0:	24 81       	ldd	r18, Z+4	; 0x04
    80e2:	35 81       	ldd	r19, Z+5	; 0x05
    80e4:	42 17       	cp	r20, r18
    80e6:	53 07       	cpc	r21, r19
    80e8:	44 f4       	brge	.+16     	; 0x80fa <fputc+0x38>
    80ea:	a0 81       	ld	r26, Z
    80ec:	b1 81       	ldd	r27, Z+1	; 0x01
    80ee:	9d 01       	movw	r18, r26
    80f0:	2f 5f       	subi	r18, 0xFF	; 255
    80f2:	3f 4f       	sbci	r19, 0xFF	; 255
    80f4:	31 83       	std	Z+1, r19	; 0x01
    80f6:	20 83       	st	Z, r18
    80f8:	8c 93       	st	X, r24
    80fa:	26 81       	ldd	r18, Z+6	; 0x06
    80fc:	37 81       	ldd	r19, Z+7	; 0x07
    80fe:	2f 5f       	subi	r18, 0xFF	; 255
    8100:	3f 4f       	sbci	r19, 0xFF	; 255
    8102:	37 83       	std	Z+7, r19	; 0x07
    8104:	26 83       	std	Z+6, r18	; 0x06
    8106:	14 c0       	rjmp	.+40     	; 0x8130 <fputc+0x6e>
    8108:	8b 01       	movw	r16, r22
    810a:	ec 01       	movw	r28, r24
    810c:	fb 01       	movw	r30, r22
    810e:	00 84       	ldd	r0, Z+8	; 0x08
    8110:	f1 85       	ldd	r31, Z+9	; 0x09
    8112:	e0 2d       	mov	r30, r0
    8114:	19 95       	eicall
    8116:	89 2b       	or	r24, r25
    8118:	e1 f6       	brne	.-72     	; 0x80d2 <fputc+0x10>
    811a:	d8 01       	movw	r26, r16
    811c:	16 96       	adiw	r26, 0x06	; 6
    811e:	8d 91       	ld	r24, X+
    8120:	9c 91       	ld	r25, X
    8122:	17 97       	sbiw	r26, 0x07	; 7
    8124:	01 96       	adiw	r24, 0x01	; 1
    8126:	17 96       	adiw	r26, 0x07	; 7
    8128:	9c 93       	st	X, r25
    812a:	8e 93       	st	-X, r24
    812c:	16 97       	sbiw	r26, 0x06	; 6
    812e:	ce 01       	movw	r24, r28
    8130:	df 91       	pop	r29
    8132:	cf 91       	pop	r28
    8134:	1f 91       	pop	r17
    8136:	0f 91       	pop	r16
    8138:	08 95       	ret

0000813a <__ultoa_invert>:
    813a:	fa 01       	movw	r30, r20
    813c:	aa 27       	eor	r26, r26
    813e:	28 30       	cpi	r18, 0x08	; 8
    8140:	51 f1       	breq	.+84     	; 0x8196 <__ultoa_invert+0x5c>
    8142:	20 31       	cpi	r18, 0x10	; 16
    8144:	81 f1       	breq	.+96     	; 0x81a6 <__ultoa_invert+0x6c>
    8146:	e8 94       	clt
    8148:	6f 93       	push	r22
    814a:	6e 7f       	andi	r22, 0xFE	; 254
    814c:	6e 5f       	subi	r22, 0xFE	; 254
    814e:	7f 4f       	sbci	r23, 0xFF	; 255
    8150:	8f 4f       	sbci	r24, 0xFF	; 255
    8152:	9f 4f       	sbci	r25, 0xFF	; 255
    8154:	af 4f       	sbci	r26, 0xFF	; 255
    8156:	b1 e0       	ldi	r27, 0x01	; 1
    8158:	3e d0       	rcall	.+124    	; 0x81d6 <__ultoa_invert+0x9c>
    815a:	b4 e0       	ldi	r27, 0x04	; 4
    815c:	3c d0       	rcall	.+120    	; 0x81d6 <__ultoa_invert+0x9c>
    815e:	67 0f       	add	r22, r23
    8160:	78 1f       	adc	r23, r24
    8162:	89 1f       	adc	r24, r25
    8164:	9a 1f       	adc	r25, r26
    8166:	a1 1d       	adc	r26, r1
    8168:	68 0f       	add	r22, r24
    816a:	79 1f       	adc	r23, r25
    816c:	8a 1f       	adc	r24, r26
    816e:	91 1d       	adc	r25, r1
    8170:	a1 1d       	adc	r26, r1
    8172:	6a 0f       	add	r22, r26
    8174:	71 1d       	adc	r23, r1
    8176:	81 1d       	adc	r24, r1
    8178:	91 1d       	adc	r25, r1
    817a:	a1 1d       	adc	r26, r1
    817c:	20 d0       	rcall	.+64     	; 0x81be <__ultoa_invert+0x84>
    817e:	09 f4       	brne	.+2      	; 0x8182 <__ultoa_invert+0x48>
    8180:	68 94       	set
    8182:	3f 91       	pop	r19
    8184:	2a e0       	ldi	r18, 0x0A	; 10
    8186:	26 9f       	mul	r18, r22
    8188:	11 24       	eor	r1, r1
    818a:	30 19       	sub	r19, r0
    818c:	30 5d       	subi	r19, 0xD0	; 208
    818e:	31 93       	st	Z+, r19
    8190:	de f6       	brtc	.-74     	; 0x8148 <__ultoa_invert+0xe>
    8192:	cf 01       	movw	r24, r30
    8194:	08 95       	ret
    8196:	46 2f       	mov	r20, r22
    8198:	47 70       	andi	r20, 0x07	; 7
    819a:	40 5d       	subi	r20, 0xD0	; 208
    819c:	41 93       	st	Z+, r20
    819e:	b3 e0       	ldi	r27, 0x03	; 3
    81a0:	0f d0       	rcall	.+30     	; 0x81c0 <__ultoa_invert+0x86>
    81a2:	c9 f7       	brne	.-14     	; 0x8196 <__ultoa_invert+0x5c>
    81a4:	f6 cf       	rjmp	.-20     	; 0x8192 <__ultoa_invert+0x58>
    81a6:	46 2f       	mov	r20, r22
    81a8:	4f 70       	andi	r20, 0x0F	; 15
    81aa:	40 5d       	subi	r20, 0xD0	; 208
    81ac:	4a 33       	cpi	r20, 0x3A	; 58
    81ae:	18 f0       	brcs	.+6      	; 0x81b6 <__ultoa_invert+0x7c>
    81b0:	49 5d       	subi	r20, 0xD9	; 217
    81b2:	31 fd       	sbrc	r19, 1
    81b4:	40 52       	subi	r20, 0x20	; 32
    81b6:	41 93       	st	Z+, r20
    81b8:	02 d0       	rcall	.+4      	; 0x81be <__ultoa_invert+0x84>
    81ba:	a9 f7       	brne	.-22     	; 0x81a6 <__ultoa_invert+0x6c>
    81bc:	ea cf       	rjmp	.-44     	; 0x8192 <__ultoa_invert+0x58>
    81be:	b4 e0       	ldi	r27, 0x04	; 4
    81c0:	a6 95       	lsr	r26
    81c2:	97 95       	ror	r25
    81c4:	87 95       	ror	r24
    81c6:	77 95       	ror	r23
    81c8:	67 95       	ror	r22
    81ca:	ba 95       	dec	r27
    81cc:	c9 f7       	brne	.-14     	; 0x81c0 <__ultoa_invert+0x86>
    81ce:	00 97       	sbiw	r24, 0x00	; 0
    81d0:	61 05       	cpc	r22, r1
    81d2:	71 05       	cpc	r23, r1
    81d4:	08 95       	ret
    81d6:	9b 01       	movw	r18, r22
    81d8:	ac 01       	movw	r20, r24
    81da:	0a 2e       	mov	r0, r26
    81dc:	06 94       	lsr	r0
    81de:	57 95       	ror	r21
    81e0:	47 95       	ror	r20
    81e2:	37 95       	ror	r19
    81e4:	27 95       	ror	r18
    81e6:	ba 95       	dec	r27
    81e8:	c9 f7       	brne	.-14     	; 0x81dc <__ultoa_invert+0xa2>
    81ea:	62 0f       	add	r22, r18
    81ec:	73 1f       	adc	r23, r19
    81ee:	84 1f       	adc	r24, r20
    81f0:	95 1f       	adc	r25, r21
    81f2:	a0 1d       	adc	r26, r0
    81f4:	08 95       	ret

000081f6 <_exit>:
    81f6:	f8 94       	cli

000081f8 <__stop_program>:
    81f8:	ff cf       	rjmp	.-2      	; 0x81f8 <__stop_program>
